
nucleo-l4r5zi-sine-cube-ai.elf:     file format elf32-littlearm

Sections:
Idx Name          Size      VMA       LMA       File off  Algn
  0 .isr_vector   000001bc  08000000  08000000  00010000  2**0
                  CONTENTS, ALLOC, LOAD, READONLY, DATA
  1 .text         00007e78  080001c0  080001c0  000101c0  2**4
                  CONTENTS, ALLOC, LOAD, READONLY, CODE
  2 .rodata       000326ec  08008038  08008038  00018038  2**3
                  CONTENTS, ALLOC, LOAD, READONLY, DATA
  3 .ARM.extab    00000000  0803a724  0803a724  00050828  2**0
                  CONTENTS
  4 .ARM          00000008  0803a724  0803a724  0004a724  2**2
                  CONTENTS, ALLOC, LOAD, READONLY, DATA
  5 .preinit_array 00000000  0803a72c  0803a72c  00050828  2**0
                  CONTENTS, ALLOC, LOAD, DATA
  6 .init_array   00000004  0803a72c  0803a72c  0004a72c  2**2
                  CONTENTS, ALLOC, LOAD, DATA
  7 .fini_array   00000004  0803a730  0803a730  0004a730  2**2
                  CONTENTS, ALLOC, LOAD, DATA
  8 .data         00000828  20000000  0803a734  00050000  2**2
                  CONTENTS, ALLOC, LOAD, DATA
  9 .bss          0000023c  20000828  0803af5c  00050828  2**2
                  ALLOC
 10 ._user_heap_stack 00000a04  20000a64  0803af5c  00050a64  2**0
                  ALLOC
 11 .ARM.attributes 00000030  00000000  00000000  00050828  2**0
                  CONTENTS, READONLY
 12 .comment      000000ce  00000000  00000000  00050858  2**0
                  CONTENTS, READONLY
 13 .debug_frame  000012fc  00000000  00000000  00050928  2**2
                  CONTENTS, READONLY, DEBUGGING, OCTETS

Disassembly of section .text:

080001c0 <__do_global_dtors_aux>:
 80001c0:	b510      	push	{r4, lr}
 80001c2:	4c05      	ldr	r4, [pc, #20]	; (80001d8 <__do_global_dtors_aux+0x18>)
 80001c4:	7823      	ldrb	r3, [r4, #0]
 80001c6:	b933      	cbnz	r3, 80001d6 <__do_global_dtors_aux+0x16>
 80001c8:	4b04      	ldr	r3, [pc, #16]	; (80001dc <__do_global_dtors_aux+0x1c>)
 80001ca:	b113      	cbz	r3, 80001d2 <__do_global_dtors_aux+0x12>
 80001cc:	4804      	ldr	r0, [pc, #16]	; (80001e0 <__do_global_dtors_aux+0x20>)
 80001ce:	f3af 8000 	nop.w
 80001d2:	2301      	movs	r3, #1
 80001d4:	7023      	strb	r3, [r4, #0]
 80001d6:	bd10      	pop	{r4, pc}
 80001d8:	20000828 	.word	0x20000828
 80001dc:	00000000 	.word	0x00000000
 80001e0:	08008020 	.word	0x08008020

080001e4 <frame_dummy>:
 80001e4:	b508      	push	{r3, lr}
 80001e6:	4b03      	ldr	r3, [pc, #12]	; (80001f4 <frame_dummy+0x10>)
 80001e8:	b11b      	cbz	r3, 80001f2 <frame_dummy+0xe>
 80001ea:	4903      	ldr	r1, [pc, #12]	; (80001f8 <frame_dummy+0x14>)
 80001ec:	4803      	ldr	r0, [pc, #12]	; (80001fc <frame_dummy+0x18>)
 80001ee:	f3af 8000 	nop.w
 80001f2:	bd08      	pop	{r3, pc}
 80001f4:	00000000 	.word	0x00000000
 80001f8:	2000082c 	.word	0x2000082c
 80001fc:	08008020 	.word	0x08008020

08000200 <strlen>:
 8000200:	4603      	mov	r3, r0
 8000202:	f813 2b01 	ldrb.w	r2, [r3], #1
 8000206:	2a00      	cmp	r2, #0
 8000208:	d1fb      	bne.n	8000202 <strlen+0x2>
 800020a:	1a18      	subs	r0, r3, r0
 800020c:	3801      	subs	r0, #1
 800020e:	4770      	bx	lr

08000210 <memchr>:
 8000210:	f001 01ff 	and.w	r1, r1, #255	; 0xff
 8000214:	2a10      	cmp	r2, #16
 8000216:	db2b      	blt.n	8000270 <memchr+0x60>
 8000218:	f010 0f07 	tst.w	r0, #7
 800021c:	d008      	beq.n	8000230 <memchr+0x20>
 800021e:	f810 3b01 	ldrb.w	r3, [r0], #1
 8000222:	3a01      	subs	r2, #1
 8000224:	428b      	cmp	r3, r1
 8000226:	d02d      	beq.n	8000284 <memchr+0x74>
 8000228:	f010 0f07 	tst.w	r0, #7
 800022c:	b342      	cbz	r2, 8000280 <memchr+0x70>
 800022e:	d1f6      	bne.n	800021e <memchr+0xe>
 8000230:	b4f0      	push	{r4, r5, r6, r7}
 8000232:	ea41 2101 	orr.w	r1, r1, r1, lsl #8
 8000236:	ea41 4101 	orr.w	r1, r1, r1, lsl #16
 800023a:	f022 0407 	bic.w	r4, r2, #7
 800023e:	f07f 0700 	mvns.w	r7, #0
 8000242:	2300      	movs	r3, #0
 8000244:	e8f0 5602 	ldrd	r5, r6, [r0], #8
 8000248:	3c08      	subs	r4, #8
 800024a:	ea85 0501 	eor.w	r5, r5, r1
 800024e:	ea86 0601 	eor.w	r6, r6, r1
 8000252:	fa85 f547 	uadd8	r5, r5, r7
 8000256:	faa3 f587 	sel	r5, r3, r7
 800025a:	fa86 f647 	uadd8	r6, r6, r7
 800025e:	faa5 f687 	sel	r6, r5, r7
 8000262:	b98e      	cbnz	r6, 8000288 <memchr+0x78>
 8000264:	d1ee      	bne.n	8000244 <memchr+0x34>
 8000266:	bcf0      	pop	{r4, r5, r6, r7}
 8000268:	f001 01ff 	and.w	r1, r1, #255	; 0xff
 800026c:	f002 0207 	and.w	r2, r2, #7
 8000270:	b132      	cbz	r2, 8000280 <memchr+0x70>
 8000272:	f810 3b01 	ldrb.w	r3, [r0], #1
 8000276:	3a01      	subs	r2, #1
 8000278:	ea83 0301 	eor.w	r3, r3, r1
 800027c:	b113      	cbz	r3, 8000284 <memchr+0x74>
 800027e:	d1f8      	bne.n	8000272 <memchr+0x62>
 8000280:	2000      	movs	r0, #0
 8000282:	4770      	bx	lr
 8000284:	3801      	subs	r0, #1
 8000286:	4770      	bx	lr
 8000288:	2d00      	cmp	r5, #0
 800028a:	bf06      	itte	eq
 800028c:	4635      	moveq	r5, r6
 800028e:	3803      	subeq	r0, #3
 8000290:	3807      	subne	r0, #7
 8000292:	f015 0f01 	tst.w	r5, #1
 8000296:	d107      	bne.n	80002a8 <memchr+0x98>
 8000298:	3001      	adds	r0, #1
 800029a:	f415 7f80 	tst.w	r5, #256	; 0x100
 800029e:	bf02      	ittt	eq
 80002a0:	3001      	addeq	r0, #1
 80002a2:	f415 3fc0 	tsteq.w	r5, #98304	; 0x18000
 80002a6:	3001      	addeq	r0, #1
 80002a8:	bcf0      	pop	{r4, r5, r6, r7}
 80002aa:	3801      	subs	r0, #1
 80002ac:	4770      	bx	lr
 80002ae:	bf00      	nop

080002b0 <__aeabi_drsub>:
 80002b0:	f081 4100 	eor.w	r1, r1, #2147483648	; 0x80000000
 80002b4:	e002      	b.n	80002bc <__adddf3>
 80002b6:	bf00      	nop

080002b8 <__aeabi_dsub>:
 80002b8:	f083 4300 	eor.w	r3, r3, #2147483648	; 0x80000000

080002bc <__adddf3>:
 80002bc:	b530      	push	{r4, r5, lr}
 80002be:	ea4f 0441 	mov.w	r4, r1, lsl #1
 80002c2:	ea4f 0543 	mov.w	r5, r3, lsl #1
 80002c6:	ea94 0f05 	teq	r4, r5
 80002ca:	bf08      	it	eq
 80002cc:	ea90 0f02 	teqeq	r0, r2
 80002d0:	bf1f      	itttt	ne
 80002d2:	ea54 0c00 	orrsne.w	ip, r4, r0
 80002d6:	ea55 0c02 	orrsne.w	ip, r5, r2
 80002da:	ea7f 5c64 	mvnsne.w	ip, r4, asr #21
 80002de:	ea7f 5c65 	mvnsne.w	ip, r5, asr #21
 80002e2:	f000 80e2 	beq.w	80004aa <__adddf3+0x1ee>
 80002e6:	ea4f 5454 	mov.w	r4, r4, lsr #21
 80002ea:	ebd4 5555 	rsbs	r5, r4, r5, lsr #21
 80002ee:	bfb8      	it	lt
 80002f0:	426d      	neglt	r5, r5
 80002f2:	dd0c      	ble.n	800030e <__adddf3+0x52>
 80002f4:	442c      	add	r4, r5
 80002f6:	ea80 0202 	eor.w	r2, r0, r2
 80002fa:	ea81 0303 	eor.w	r3, r1, r3
 80002fe:	ea82 0000 	eor.w	r0, r2, r0
 8000302:	ea83 0101 	eor.w	r1, r3, r1
 8000306:	ea80 0202 	eor.w	r2, r0, r2
 800030a:	ea81 0303 	eor.w	r3, r1, r3
 800030e:	2d36      	cmp	r5, #54	; 0x36
 8000310:	bf88      	it	hi
 8000312:	bd30      	pophi	{r4, r5, pc}
 8000314:	f011 4f00 	tst.w	r1, #2147483648	; 0x80000000
 8000318:	ea4f 3101 	mov.w	r1, r1, lsl #12
 800031c:	f44f 1c80 	mov.w	ip, #1048576	; 0x100000
 8000320:	ea4c 3111 	orr.w	r1, ip, r1, lsr #12
 8000324:	d002      	beq.n	800032c <__adddf3+0x70>
 8000326:	4240      	negs	r0, r0
 8000328:	eb61 0141 	sbc.w	r1, r1, r1, lsl #1
 800032c:	f013 4f00 	tst.w	r3, #2147483648	; 0x80000000
 8000330:	ea4f 3303 	mov.w	r3, r3, lsl #12
 8000334:	ea4c 3313 	orr.w	r3, ip, r3, lsr #12
 8000338:	d002      	beq.n	8000340 <__adddf3+0x84>
 800033a:	4252      	negs	r2, r2
 800033c:	eb63 0343 	sbc.w	r3, r3, r3, lsl #1
 8000340:	ea94 0f05 	teq	r4, r5
 8000344:	f000 80a7 	beq.w	8000496 <__adddf3+0x1da>
 8000348:	f1a4 0401 	sub.w	r4, r4, #1
 800034c:	f1d5 0e20 	rsbs	lr, r5, #32
 8000350:	db0d      	blt.n	800036e <__adddf3+0xb2>
 8000352:	fa02 fc0e 	lsl.w	ip, r2, lr
 8000356:	fa22 f205 	lsr.w	r2, r2, r5
 800035a:	1880      	adds	r0, r0, r2
 800035c:	f141 0100 	adc.w	r1, r1, #0
 8000360:	fa03 f20e 	lsl.w	r2, r3, lr
 8000364:	1880      	adds	r0, r0, r2
 8000366:	fa43 f305 	asr.w	r3, r3, r5
 800036a:	4159      	adcs	r1, r3
 800036c:	e00e      	b.n	800038c <__adddf3+0xd0>
 800036e:	f1a5 0520 	sub.w	r5, r5, #32
 8000372:	f10e 0e20 	add.w	lr, lr, #32
 8000376:	2a01      	cmp	r2, #1
 8000378:	fa03 fc0e 	lsl.w	ip, r3, lr
 800037c:	bf28      	it	cs
 800037e:	f04c 0c02 	orrcs.w	ip, ip, #2
 8000382:	fa43 f305 	asr.w	r3, r3, r5
 8000386:	18c0      	adds	r0, r0, r3
 8000388:	eb51 71e3 	adcs.w	r1, r1, r3, asr #31
 800038c:	f001 4500 	and.w	r5, r1, #2147483648	; 0x80000000
 8000390:	d507      	bpl.n	80003a2 <__adddf3+0xe6>
 8000392:	f04f 0e00 	mov.w	lr, #0
 8000396:	f1dc 0c00 	rsbs	ip, ip, #0
 800039a:	eb7e 0000 	sbcs.w	r0, lr, r0
 800039e:	eb6e 0101 	sbc.w	r1, lr, r1
 80003a2:	f5b1 1f80 	cmp.w	r1, #1048576	; 0x100000
 80003a6:	d31b      	bcc.n	80003e0 <__adddf3+0x124>
 80003a8:	f5b1 1f00 	cmp.w	r1, #2097152	; 0x200000
 80003ac:	d30c      	bcc.n	80003c8 <__adddf3+0x10c>
 80003ae:	0849      	lsrs	r1, r1, #1
 80003b0:	ea5f 0030 	movs.w	r0, r0, rrx
 80003b4:	ea4f 0c3c 	mov.w	ip, ip, rrx
 80003b8:	f104 0401 	add.w	r4, r4, #1
 80003bc:	ea4f 5244 	mov.w	r2, r4, lsl #21
 80003c0:	f512 0f80 	cmn.w	r2, #4194304	; 0x400000
 80003c4:	f080 809a 	bcs.w	80004fc <__adddf3+0x240>
 80003c8:	f1bc 4f00 	cmp.w	ip, #2147483648	; 0x80000000
 80003cc:	bf08      	it	eq
 80003ce:	ea5f 0c50 	movseq.w	ip, r0, lsr #1
 80003d2:	f150 0000 	adcs.w	r0, r0, #0
 80003d6:	eb41 5104 	adc.w	r1, r1, r4, lsl #20
 80003da:	ea41 0105 	orr.w	r1, r1, r5
 80003de:	bd30      	pop	{r4, r5, pc}
 80003e0:	ea5f 0c4c 	movs.w	ip, ip, lsl #1
 80003e4:	4140      	adcs	r0, r0
 80003e6:	eb41 0101 	adc.w	r1, r1, r1
 80003ea:	3c01      	subs	r4, #1
 80003ec:	bf28      	it	cs
 80003ee:	f5b1 1f80 	cmpcs.w	r1, #1048576	; 0x100000
 80003f2:	d2e9      	bcs.n	80003c8 <__adddf3+0x10c>
 80003f4:	f091 0f00 	teq	r1, #0
 80003f8:	bf04      	itt	eq
 80003fa:	4601      	moveq	r1, r0
 80003fc:	2000      	moveq	r0, #0
 80003fe:	fab1 f381 	clz	r3, r1
 8000402:	bf08      	it	eq
 8000404:	3320      	addeq	r3, #32
 8000406:	f1a3 030b 	sub.w	r3, r3, #11
 800040a:	f1b3 0220 	subs.w	r2, r3, #32
 800040e:	da0c      	bge.n	800042a <__adddf3+0x16e>
 8000410:	320c      	adds	r2, #12
 8000412:	dd08      	ble.n	8000426 <__adddf3+0x16a>
 8000414:	f102 0c14 	add.w	ip, r2, #20
 8000418:	f1c2 020c 	rsb	r2, r2, #12
 800041c:	fa01 f00c 	lsl.w	r0, r1, ip
 8000420:	fa21 f102 	lsr.w	r1, r1, r2
 8000424:	e00c      	b.n	8000440 <__adddf3+0x184>
 8000426:	f102 0214 	add.w	r2, r2, #20
 800042a:	bfd8      	it	le
 800042c:	f1c2 0c20 	rsble	ip, r2, #32
 8000430:	fa01 f102 	lsl.w	r1, r1, r2
 8000434:	fa20 fc0c 	lsr.w	ip, r0, ip
 8000438:	bfdc      	itt	le
 800043a:	ea41 010c 	orrle.w	r1, r1, ip
 800043e:	4090      	lslle	r0, r2
 8000440:	1ae4      	subs	r4, r4, r3
 8000442:	bfa2      	ittt	ge
 8000444:	eb01 5104 	addge.w	r1, r1, r4, lsl #20
 8000448:	4329      	orrge	r1, r5
 800044a:	bd30      	popge	{r4, r5, pc}
 800044c:	ea6f 0404 	mvn.w	r4, r4
 8000450:	3c1f      	subs	r4, #31
 8000452:	da1c      	bge.n	800048e <__adddf3+0x1d2>
 8000454:	340c      	adds	r4, #12
 8000456:	dc0e      	bgt.n	8000476 <__adddf3+0x1ba>
 8000458:	f104 0414 	add.w	r4, r4, #20
 800045c:	f1c4 0220 	rsb	r2, r4, #32
 8000460:	fa20 f004 	lsr.w	r0, r0, r4
 8000464:	fa01 f302 	lsl.w	r3, r1, r2
 8000468:	ea40 0003 	orr.w	r0, r0, r3
 800046c:	fa21 f304 	lsr.w	r3, r1, r4
 8000470:	ea45 0103 	orr.w	r1, r5, r3
 8000474:	bd30      	pop	{r4, r5, pc}
 8000476:	f1c4 040c 	rsb	r4, r4, #12
 800047a:	f1c4 0220 	rsb	r2, r4, #32
 800047e:	fa20 f002 	lsr.w	r0, r0, r2
 8000482:	fa01 f304 	lsl.w	r3, r1, r4
 8000486:	ea40 0003 	orr.w	r0, r0, r3
 800048a:	4629      	mov	r1, r5
 800048c:	bd30      	pop	{r4, r5, pc}
 800048e:	fa21 f004 	lsr.w	r0, r1, r4
 8000492:	4629      	mov	r1, r5
 8000494:	bd30      	pop	{r4, r5, pc}
 8000496:	f094 0f00 	teq	r4, #0
 800049a:	f483 1380 	eor.w	r3, r3, #1048576	; 0x100000
 800049e:	bf06      	itte	eq
 80004a0:	f481 1180 	eoreq.w	r1, r1, #1048576	; 0x100000
 80004a4:	3401      	addeq	r4, #1
 80004a6:	3d01      	subne	r5, #1
 80004a8:	e74e      	b.n	8000348 <__adddf3+0x8c>
 80004aa:	ea7f 5c64 	mvns.w	ip, r4, asr #21
 80004ae:	bf18      	it	ne
 80004b0:	ea7f 5c65 	mvnsne.w	ip, r5, asr #21
 80004b4:	d029      	beq.n	800050a <__adddf3+0x24e>
 80004b6:	ea94 0f05 	teq	r4, r5
 80004ba:	bf08      	it	eq
 80004bc:	ea90 0f02 	teqeq	r0, r2
 80004c0:	d005      	beq.n	80004ce <__adddf3+0x212>
 80004c2:	ea54 0c00 	orrs.w	ip, r4, r0
 80004c6:	bf04      	itt	eq
 80004c8:	4619      	moveq	r1, r3
 80004ca:	4610      	moveq	r0, r2
 80004cc:	bd30      	pop	{r4, r5, pc}
 80004ce:	ea91 0f03 	teq	r1, r3
 80004d2:	bf1e      	ittt	ne
 80004d4:	2100      	movne	r1, #0
 80004d6:	2000      	movne	r0, #0
 80004d8:	bd30      	popne	{r4, r5, pc}
 80004da:	ea5f 5c54 	movs.w	ip, r4, lsr #21
 80004de:	d105      	bne.n	80004ec <__adddf3+0x230>
 80004e0:	0040      	lsls	r0, r0, #1
 80004e2:	4149      	adcs	r1, r1
 80004e4:	bf28      	it	cs
 80004e6:	f041 4100 	orrcs.w	r1, r1, #2147483648	; 0x80000000
 80004ea:	bd30      	pop	{r4, r5, pc}
 80004ec:	f514 0480 	adds.w	r4, r4, #4194304	; 0x400000
 80004f0:	bf3c      	itt	cc
 80004f2:	f501 1180 	addcc.w	r1, r1, #1048576	; 0x100000
 80004f6:	bd30      	popcc	{r4, r5, pc}
 80004f8:	f001 4500 	and.w	r5, r1, #2147483648	; 0x80000000
 80004fc:	f045 41fe 	orr.w	r1, r5, #2130706432	; 0x7f000000
 8000500:	f441 0170 	orr.w	r1, r1, #15728640	; 0xf00000
 8000504:	f04f 0000 	mov.w	r0, #0
 8000508:	bd30      	pop	{r4, r5, pc}
 800050a:	ea7f 5c64 	mvns.w	ip, r4, asr #21
 800050e:	bf1a      	itte	ne
 8000510:	4619      	movne	r1, r3
 8000512:	4610      	movne	r0, r2
 8000514:	ea7f 5c65 	mvnseq.w	ip, r5, asr #21
 8000518:	bf1c      	itt	ne
 800051a:	460b      	movne	r3, r1
 800051c:	4602      	movne	r2, r0
 800051e:	ea50 3401 	orrs.w	r4, r0, r1, lsl #12
 8000522:	bf06      	itte	eq
 8000524:	ea52 3503 	orrseq.w	r5, r2, r3, lsl #12
 8000528:	ea91 0f03 	teqeq	r1, r3
 800052c:	f441 2100 	orrne.w	r1, r1, #524288	; 0x80000
 8000530:	bd30      	pop	{r4, r5, pc}
 8000532:	bf00      	nop

08000534 <__aeabi_ui2d>:
 8000534:	f090 0f00 	teq	r0, #0
 8000538:	bf04      	itt	eq
 800053a:	2100      	moveq	r1, #0
 800053c:	4770      	bxeq	lr
 800053e:	b530      	push	{r4, r5, lr}
 8000540:	f44f 6480 	mov.w	r4, #1024	; 0x400
 8000544:	f104 0432 	add.w	r4, r4, #50	; 0x32
 8000548:	f04f 0500 	mov.w	r5, #0
 800054c:	f04f 0100 	mov.w	r1, #0
 8000550:	e750      	b.n	80003f4 <__adddf3+0x138>
 8000552:	bf00      	nop

08000554 <__aeabi_i2d>:
 8000554:	f090 0f00 	teq	r0, #0
 8000558:	bf04      	itt	eq
 800055a:	2100      	moveq	r1, #0
 800055c:	4770      	bxeq	lr
 800055e:	b530      	push	{r4, r5, lr}
 8000560:	f44f 6480 	mov.w	r4, #1024	; 0x400
 8000564:	f104 0432 	add.w	r4, r4, #50	; 0x32
 8000568:	f010 4500 	ands.w	r5, r0, #2147483648	; 0x80000000
 800056c:	bf48      	it	mi
 800056e:	4240      	negmi	r0, r0
 8000570:	f04f 0100 	mov.w	r1, #0
 8000574:	e73e      	b.n	80003f4 <__adddf3+0x138>
 8000576:	bf00      	nop

08000578 <__aeabi_f2d>:
 8000578:	0042      	lsls	r2, r0, #1
 800057a:	ea4f 01e2 	mov.w	r1, r2, asr #3
 800057e:	ea4f 0131 	mov.w	r1, r1, rrx
 8000582:	ea4f 7002 	mov.w	r0, r2, lsl #28
 8000586:	bf1f      	itttt	ne
 8000588:	f012 437f 	andsne.w	r3, r2, #4278190080	; 0xff000000
 800058c:	f093 4f7f 	teqne	r3, #4278190080	; 0xff000000
 8000590:	f081 5160 	eorne.w	r1, r1, #939524096	; 0x38000000
 8000594:	4770      	bxne	lr
 8000596:	f032 427f 	bics.w	r2, r2, #4278190080	; 0xff000000
 800059a:	bf08      	it	eq
 800059c:	4770      	bxeq	lr
 800059e:	f093 4f7f 	teq	r3, #4278190080	; 0xff000000
 80005a2:	bf04      	itt	eq
 80005a4:	f441 2100 	orreq.w	r1, r1, #524288	; 0x80000
 80005a8:	4770      	bxeq	lr
 80005aa:	b530      	push	{r4, r5, lr}
 80005ac:	f44f 7460 	mov.w	r4, #896	; 0x380
 80005b0:	f001 4500 	and.w	r5, r1, #2147483648	; 0x80000000
 80005b4:	f021 4100 	bic.w	r1, r1, #2147483648	; 0x80000000
 80005b8:	e71c      	b.n	80003f4 <__adddf3+0x138>
 80005ba:	bf00      	nop

080005bc <__aeabi_ul2d>:
 80005bc:	ea50 0201 	orrs.w	r2, r0, r1
 80005c0:	bf08      	it	eq
 80005c2:	4770      	bxeq	lr
 80005c4:	b530      	push	{r4, r5, lr}
 80005c6:	f04f 0500 	mov.w	r5, #0
 80005ca:	e00a      	b.n	80005e2 <__aeabi_l2d+0x16>

080005cc <__aeabi_l2d>:
 80005cc:	ea50 0201 	orrs.w	r2, r0, r1
 80005d0:	bf08      	it	eq
 80005d2:	4770      	bxeq	lr
 80005d4:	b530      	push	{r4, r5, lr}
 80005d6:	f011 4500 	ands.w	r5, r1, #2147483648	; 0x80000000
 80005da:	d502      	bpl.n	80005e2 <__aeabi_l2d+0x16>
 80005dc:	4240      	negs	r0, r0
 80005de:	eb61 0141 	sbc.w	r1, r1, r1, lsl #1
 80005e2:	f44f 6480 	mov.w	r4, #1024	; 0x400
 80005e6:	f104 0432 	add.w	r4, r4, #50	; 0x32
 80005ea:	ea5f 5c91 	movs.w	ip, r1, lsr #22
 80005ee:	f43f aed8 	beq.w	80003a2 <__adddf3+0xe6>
 80005f2:	f04f 0203 	mov.w	r2, #3
 80005f6:	ea5f 0cdc 	movs.w	ip, ip, lsr #3
 80005fa:	bf18      	it	ne
 80005fc:	3203      	addne	r2, #3
 80005fe:	ea5f 0cdc 	movs.w	ip, ip, lsr #3
 8000602:	bf18      	it	ne
 8000604:	3203      	addne	r2, #3
 8000606:	eb02 02dc 	add.w	r2, r2, ip, lsr #3
 800060a:	f1c2 0320 	rsb	r3, r2, #32
 800060e:	fa00 fc03 	lsl.w	ip, r0, r3
 8000612:	fa20 f002 	lsr.w	r0, r0, r2
 8000616:	fa01 fe03 	lsl.w	lr, r1, r3
 800061a:	ea40 000e 	orr.w	r0, r0, lr
 800061e:	fa21 f102 	lsr.w	r1, r1, r2
 8000622:	4414      	add	r4, r2
 8000624:	e6bd      	b.n	80003a2 <__adddf3+0xe6>
 8000626:	bf00      	nop

08000628 <__aeabi_dmul>:
 8000628:	b570      	push	{r4, r5, r6, lr}
 800062a:	f04f 0cff 	mov.w	ip, #255	; 0xff
 800062e:	f44c 6ce0 	orr.w	ip, ip, #1792	; 0x700
 8000632:	ea1c 5411 	ands.w	r4, ip, r1, lsr #20
 8000636:	bf1d      	ittte	ne
 8000638:	ea1c 5513 	andsne.w	r5, ip, r3, lsr #20
 800063c:	ea94 0f0c 	teqne	r4, ip
 8000640:	ea95 0f0c 	teqne	r5, ip
 8000644:	f000 f8de 	bleq	8000804 <__aeabi_dmul+0x1dc>
 8000648:	442c      	add	r4, r5
 800064a:	ea81 0603 	eor.w	r6, r1, r3
 800064e:	ea21 514c 	bic.w	r1, r1, ip, lsl #21
 8000652:	ea23 534c 	bic.w	r3, r3, ip, lsl #21
 8000656:	ea50 3501 	orrs.w	r5, r0, r1, lsl #12
 800065a:	bf18      	it	ne
 800065c:	ea52 3503 	orrsne.w	r5, r2, r3, lsl #12
 8000660:	f441 1180 	orr.w	r1, r1, #1048576	; 0x100000
 8000664:	f443 1380 	orr.w	r3, r3, #1048576	; 0x100000
 8000668:	d038      	beq.n	80006dc <__aeabi_dmul+0xb4>
 800066a:	fba0 ce02 	umull	ip, lr, r0, r2
 800066e:	f04f 0500 	mov.w	r5, #0
 8000672:	fbe1 e502 	umlal	lr, r5, r1, r2
 8000676:	f006 4200 	and.w	r2, r6, #2147483648	; 0x80000000
 800067a:	fbe0 e503 	umlal	lr, r5, r0, r3
 800067e:	f04f 0600 	mov.w	r6, #0
 8000682:	fbe1 5603 	umlal	r5, r6, r1, r3
 8000686:	f09c 0f00 	teq	ip, #0
 800068a:	bf18      	it	ne
 800068c:	f04e 0e01 	orrne.w	lr, lr, #1
 8000690:	f1a4 04ff 	sub.w	r4, r4, #255	; 0xff
 8000694:	f5b6 7f00 	cmp.w	r6, #512	; 0x200
 8000698:	f564 7440 	sbc.w	r4, r4, #768	; 0x300
 800069c:	d204      	bcs.n	80006a8 <__aeabi_dmul+0x80>
 800069e:	ea5f 0e4e 	movs.w	lr, lr, lsl #1
 80006a2:	416d      	adcs	r5, r5
 80006a4:	eb46 0606 	adc.w	r6, r6, r6
 80006a8:	ea42 21c6 	orr.w	r1, r2, r6, lsl #11
 80006ac:	ea41 5155 	orr.w	r1, r1, r5, lsr #21
 80006b0:	ea4f 20c5 	mov.w	r0, r5, lsl #11
 80006b4:	ea40 505e 	orr.w	r0, r0, lr, lsr #21
 80006b8:	ea4f 2ece 	mov.w	lr, lr, lsl #11
 80006bc:	f1b4 0cfd 	subs.w	ip, r4, #253	; 0xfd
 80006c0:	bf88      	it	hi
 80006c2:	f5bc 6fe0 	cmphi.w	ip, #1792	; 0x700
 80006c6:	d81e      	bhi.n	8000706 <__aeabi_dmul+0xde>
 80006c8:	f1be 4f00 	cmp.w	lr, #2147483648	; 0x80000000
 80006cc:	bf08      	it	eq
 80006ce:	ea5f 0e50 	movseq.w	lr, r0, lsr #1
 80006d2:	f150 0000 	adcs.w	r0, r0, #0
 80006d6:	eb41 5104 	adc.w	r1, r1, r4, lsl #20
 80006da:	bd70      	pop	{r4, r5, r6, pc}
 80006dc:	f006 4600 	and.w	r6, r6, #2147483648	; 0x80000000
 80006e0:	ea46 0101 	orr.w	r1, r6, r1
 80006e4:	ea40 0002 	orr.w	r0, r0, r2
 80006e8:	ea81 0103 	eor.w	r1, r1, r3
 80006ec:	ebb4 045c 	subs.w	r4, r4, ip, lsr #1
 80006f0:	bfc2      	ittt	gt
 80006f2:	ebd4 050c 	rsbsgt	r5, r4, ip
 80006f6:	ea41 5104 	orrgt.w	r1, r1, r4, lsl #20
 80006fa:	bd70      	popgt	{r4, r5, r6, pc}
 80006fc:	f441 1180 	orr.w	r1, r1, #1048576	; 0x100000
 8000700:	f04f 0e00 	mov.w	lr, #0
 8000704:	3c01      	subs	r4, #1
 8000706:	f300 80ab 	bgt.w	8000860 <__aeabi_dmul+0x238>
 800070a:	f114 0f36 	cmn.w	r4, #54	; 0x36
 800070e:	bfde      	ittt	le
 8000710:	2000      	movle	r0, #0
 8000712:	f001 4100 	andle.w	r1, r1, #2147483648	; 0x80000000
 8000716:	bd70      	pople	{r4, r5, r6, pc}
 8000718:	f1c4 0400 	rsb	r4, r4, #0
 800071c:	3c20      	subs	r4, #32
 800071e:	da35      	bge.n	800078c <__aeabi_dmul+0x164>
 8000720:	340c      	adds	r4, #12
 8000722:	dc1b      	bgt.n	800075c <__aeabi_dmul+0x134>
 8000724:	f104 0414 	add.w	r4, r4, #20
 8000728:	f1c4 0520 	rsb	r5, r4, #32
 800072c:	fa00 f305 	lsl.w	r3, r0, r5
 8000730:	fa20 f004 	lsr.w	r0, r0, r4
 8000734:	fa01 f205 	lsl.w	r2, r1, r5
 8000738:	ea40 0002 	orr.w	r0, r0, r2
 800073c:	f001 4200 	and.w	r2, r1, #2147483648	; 0x80000000
 8000740:	f021 4100 	bic.w	r1, r1, #2147483648	; 0x80000000
 8000744:	eb10 70d3 	adds.w	r0, r0, r3, lsr #31
 8000748:	fa21 f604 	lsr.w	r6, r1, r4
 800074c:	eb42 0106 	adc.w	r1, r2, r6
 8000750:	ea5e 0e43 	orrs.w	lr, lr, r3, lsl #1
 8000754:	bf08      	it	eq
 8000756:	ea20 70d3 	biceq.w	r0, r0, r3, lsr #31
 800075a:	bd70      	pop	{r4, r5, r6, pc}
 800075c:	f1c4 040c 	rsb	r4, r4, #12
 8000760:	f1c4 0520 	rsb	r5, r4, #32
 8000764:	fa00 f304 	lsl.w	r3, r0, r4
 8000768:	fa20 f005 	lsr.w	r0, r0, r5
 800076c:	fa01 f204 	lsl.w	r2, r1, r4
 8000770:	ea40 0002 	orr.w	r0, r0, r2
 8000774:	f001 4100 	and.w	r1, r1, #2147483648	; 0x80000000
 8000778:	eb10 70d3 	adds.w	r0, r0, r3, lsr #31
 800077c:	f141 0100 	adc.w	r1, r1, #0
 8000780:	ea5e 0e43 	orrs.w	lr, lr, r3, lsl #1
 8000784:	bf08      	it	eq
 8000786:	ea20 70d3 	biceq.w	r0, r0, r3, lsr #31
 800078a:	bd70      	pop	{r4, r5, r6, pc}
 800078c:	f1c4 0520 	rsb	r5, r4, #32
 8000790:	fa00 f205 	lsl.w	r2, r0, r5
 8000794:	ea4e 0e02 	orr.w	lr, lr, r2
 8000798:	fa20 f304 	lsr.w	r3, r0, r4
 800079c:	fa01 f205 	lsl.w	r2, r1, r5
 80007a0:	ea43 0302 	orr.w	r3, r3, r2
 80007a4:	fa21 f004 	lsr.w	r0, r1, r4
 80007a8:	f001 4100 	and.w	r1, r1, #2147483648	; 0x80000000
 80007ac:	fa21 f204 	lsr.w	r2, r1, r4
 80007b0:	ea20 0002 	bic.w	r0, r0, r2
 80007b4:	eb00 70d3 	add.w	r0, r0, r3, lsr #31
 80007b8:	ea5e 0e43 	orrs.w	lr, lr, r3, lsl #1
 80007bc:	bf08      	it	eq
 80007be:	ea20 70d3 	biceq.w	r0, r0, r3, lsr #31
 80007c2:	bd70      	pop	{r4, r5, r6, pc}
 80007c4:	f094 0f00 	teq	r4, #0
 80007c8:	d10f      	bne.n	80007ea <__aeabi_dmul+0x1c2>
 80007ca:	f001 4600 	and.w	r6, r1, #2147483648	; 0x80000000
 80007ce:	0040      	lsls	r0, r0, #1
 80007d0:	eb41 0101 	adc.w	r1, r1, r1
 80007d4:	f411 1f80 	tst.w	r1, #1048576	; 0x100000
 80007d8:	bf08      	it	eq
 80007da:	3c01      	subeq	r4, #1
 80007dc:	d0f7      	beq.n	80007ce <__aeabi_dmul+0x1a6>
 80007de:	ea41 0106 	orr.w	r1, r1, r6
 80007e2:	f095 0f00 	teq	r5, #0
 80007e6:	bf18      	it	ne
 80007e8:	4770      	bxne	lr
 80007ea:	f003 4600 	and.w	r6, r3, #2147483648	; 0x80000000
 80007ee:	0052      	lsls	r2, r2, #1
 80007f0:	eb43 0303 	adc.w	r3, r3, r3
 80007f4:	f413 1f80 	tst.w	r3, #1048576	; 0x100000
 80007f8:	bf08      	it	eq
 80007fa:	3d01      	subeq	r5, #1
 80007fc:	d0f7      	beq.n	80007ee <__aeabi_dmul+0x1c6>
 80007fe:	ea43 0306 	orr.w	r3, r3, r6
 8000802:	4770      	bx	lr
 8000804:	ea94 0f0c 	teq	r4, ip
 8000808:	ea0c 5513 	and.w	r5, ip, r3, lsr #20
 800080c:	bf18      	it	ne
 800080e:	ea95 0f0c 	teqne	r5, ip
 8000812:	d00c      	beq.n	800082e <__aeabi_dmul+0x206>
 8000814:	ea50 0641 	orrs.w	r6, r0, r1, lsl #1
 8000818:	bf18      	it	ne
 800081a:	ea52 0643 	orrsne.w	r6, r2, r3, lsl #1
 800081e:	d1d1      	bne.n	80007c4 <__aeabi_dmul+0x19c>
 8000820:	ea81 0103 	eor.w	r1, r1, r3
 8000824:	f001 4100 	and.w	r1, r1, #2147483648	; 0x80000000
 8000828:	f04f 0000 	mov.w	r0, #0
 800082c:	bd70      	pop	{r4, r5, r6, pc}
 800082e:	ea50 0641 	orrs.w	r6, r0, r1, lsl #1
 8000832:	bf06      	itte	eq
 8000834:	4610      	moveq	r0, r2
 8000836:	4619      	moveq	r1, r3
 8000838:	ea52 0643 	orrsne.w	r6, r2, r3, lsl #1
 800083c:	d019      	beq.n	8000872 <__aeabi_dmul+0x24a>
 800083e:	ea94 0f0c 	teq	r4, ip
 8000842:	d102      	bne.n	800084a <__aeabi_dmul+0x222>
 8000844:	ea50 3601 	orrs.w	r6, r0, r1, lsl #12
 8000848:	d113      	bne.n	8000872 <__aeabi_dmul+0x24a>
 800084a:	ea95 0f0c 	teq	r5, ip
 800084e:	d105      	bne.n	800085c <__aeabi_dmul+0x234>
 8000850:	ea52 3603 	orrs.w	r6, r2, r3, lsl #12
 8000854:	bf1c      	itt	ne
 8000856:	4610      	movne	r0, r2
 8000858:	4619      	movne	r1, r3
 800085a:	d10a      	bne.n	8000872 <__aeabi_dmul+0x24a>
 800085c:	ea81 0103 	eor.w	r1, r1, r3
 8000860:	f001 4100 	and.w	r1, r1, #2147483648	; 0x80000000
 8000864:	f041 41fe 	orr.w	r1, r1, #2130706432	; 0x7f000000
 8000868:	f441 0170 	orr.w	r1, r1, #15728640	; 0xf00000
 800086c:	f04f 0000 	mov.w	r0, #0
 8000870:	bd70      	pop	{r4, r5, r6, pc}
 8000872:	f041 41fe 	orr.w	r1, r1, #2130706432	; 0x7f000000
 8000876:	f441 0178 	orr.w	r1, r1, #16252928	; 0xf80000
 800087a:	bd70      	pop	{r4, r5, r6, pc}

0800087c <__aeabi_ddiv>:
 800087c:	b570      	push	{r4, r5, r6, lr}
 800087e:	f04f 0cff 	mov.w	ip, #255	; 0xff
 8000882:	f44c 6ce0 	orr.w	ip, ip, #1792	; 0x700
 8000886:	ea1c 5411 	ands.w	r4, ip, r1, lsr #20
 800088a:	bf1d      	ittte	ne
 800088c:	ea1c 5513 	andsne.w	r5, ip, r3, lsr #20
 8000890:	ea94 0f0c 	teqne	r4, ip
 8000894:	ea95 0f0c 	teqne	r5, ip
 8000898:	f000 f8a7 	bleq	80009ea <__aeabi_ddiv+0x16e>
 800089c:	eba4 0405 	sub.w	r4, r4, r5
 80008a0:	ea81 0e03 	eor.w	lr, r1, r3
 80008a4:	ea52 3503 	orrs.w	r5, r2, r3, lsl #12
 80008a8:	ea4f 3101 	mov.w	r1, r1, lsl #12
 80008ac:	f000 8088 	beq.w	80009c0 <__aeabi_ddiv+0x144>
 80008b0:	ea4f 3303 	mov.w	r3, r3, lsl #12
 80008b4:	f04f 5580 	mov.w	r5, #268435456	; 0x10000000
 80008b8:	ea45 1313 	orr.w	r3, r5, r3, lsr #4
 80008bc:	ea43 6312 	orr.w	r3, r3, r2, lsr #24
 80008c0:	ea4f 2202 	mov.w	r2, r2, lsl #8
 80008c4:	ea45 1511 	orr.w	r5, r5, r1, lsr #4
 80008c8:	ea45 6510 	orr.w	r5, r5, r0, lsr #24
 80008cc:	ea4f 2600 	mov.w	r6, r0, lsl #8
 80008d0:	f00e 4100 	and.w	r1, lr, #2147483648	; 0x80000000
 80008d4:	429d      	cmp	r5, r3
 80008d6:	bf08      	it	eq
 80008d8:	4296      	cmpeq	r6, r2
 80008da:	f144 04fd 	adc.w	r4, r4, #253	; 0xfd
 80008de:	f504 7440 	add.w	r4, r4, #768	; 0x300
 80008e2:	d202      	bcs.n	80008ea <__aeabi_ddiv+0x6e>
 80008e4:	085b      	lsrs	r3, r3, #1
 80008e6:	ea4f 0232 	mov.w	r2, r2, rrx
 80008ea:	1ab6      	subs	r6, r6, r2
 80008ec:	eb65 0503 	sbc.w	r5, r5, r3
 80008f0:	085b      	lsrs	r3, r3, #1
 80008f2:	ea4f 0232 	mov.w	r2, r2, rrx
 80008f6:	f44f 1080 	mov.w	r0, #1048576	; 0x100000
 80008fa:	f44f 2c00 	mov.w	ip, #524288	; 0x80000
 80008fe:	ebb6 0e02 	subs.w	lr, r6, r2
 8000902:	eb75 0e03 	sbcs.w	lr, r5, r3
 8000906:	bf22      	ittt	cs
 8000908:	1ab6      	subcs	r6, r6, r2
 800090a:	4675      	movcs	r5, lr
 800090c:	ea40 000c 	orrcs.w	r0, r0, ip
 8000910:	085b      	lsrs	r3, r3, #1
 8000912:	ea4f 0232 	mov.w	r2, r2, rrx
 8000916:	ebb6 0e02 	subs.w	lr, r6, r2
 800091a:	eb75 0e03 	sbcs.w	lr, r5, r3
 800091e:	bf22      	ittt	cs
 8000920:	1ab6      	subcs	r6, r6, r2
 8000922:	4675      	movcs	r5, lr
 8000924:	ea40 005c 	orrcs.w	r0, r0, ip, lsr #1
 8000928:	085b      	lsrs	r3, r3, #1
 800092a:	ea4f 0232 	mov.w	r2, r2, rrx
 800092e:	ebb6 0e02 	subs.w	lr, r6, r2
 8000932:	eb75 0e03 	sbcs.w	lr, r5, r3
 8000936:	bf22      	ittt	cs
 8000938:	1ab6      	subcs	r6, r6, r2
 800093a:	4675      	movcs	r5, lr
 800093c:	ea40 009c 	orrcs.w	r0, r0, ip, lsr #2
 8000940:	085b      	lsrs	r3, r3, #1
 8000942:	ea4f 0232 	mov.w	r2, r2, rrx
 8000946:	ebb6 0e02 	subs.w	lr, r6, r2
 800094a:	eb75 0e03 	sbcs.w	lr, r5, r3
 800094e:	bf22      	ittt	cs
 8000950:	1ab6      	subcs	r6, r6, r2
 8000952:	4675      	movcs	r5, lr
 8000954:	ea40 00dc 	orrcs.w	r0, r0, ip, lsr #3
 8000958:	ea55 0e06 	orrs.w	lr, r5, r6
 800095c:	d018      	beq.n	8000990 <__aeabi_ddiv+0x114>
 800095e:	ea4f 1505 	mov.w	r5, r5, lsl #4
 8000962:	ea45 7516 	orr.w	r5, r5, r6, lsr #28
 8000966:	ea4f 1606 	mov.w	r6, r6, lsl #4
 800096a:	ea4f 03c3 	mov.w	r3, r3, lsl #3
 800096e:	ea43 7352 	orr.w	r3, r3, r2, lsr #29
 8000972:	ea4f 02c2 	mov.w	r2, r2, lsl #3
 8000976:	ea5f 1c1c 	movs.w	ip, ip, lsr #4
 800097a:	d1c0      	bne.n	80008fe <__aeabi_ddiv+0x82>
 800097c:	f411 1f80 	tst.w	r1, #1048576	; 0x100000
 8000980:	d10b      	bne.n	800099a <__aeabi_ddiv+0x11e>
 8000982:	ea41 0100 	orr.w	r1, r1, r0
 8000986:	f04f 0000 	mov.w	r0, #0
 800098a:	f04f 4c00 	mov.w	ip, #2147483648	; 0x80000000
 800098e:	e7b6      	b.n	80008fe <__aeabi_ddiv+0x82>
 8000990:	f411 1f80 	tst.w	r1, #1048576	; 0x100000
 8000994:	bf04      	itt	eq
 8000996:	4301      	orreq	r1, r0
 8000998:	2000      	moveq	r0, #0
 800099a:	f1b4 0cfd 	subs.w	ip, r4, #253	; 0xfd
 800099e:	bf88      	it	hi
 80009a0:	f5bc 6fe0 	cmphi.w	ip, #1792	; 0x700
 80009a4:	f63f aeaf 	bhi.w	8000706 <__aeabi_dmul+0xde>
 80009a8:	ebb5 0c03 	subs.w	ip, r5, r3
 80009ac:	bf04      	itt	eq
 80009ae:	ebb6 0c02 	subseq.w	ip, r6, r2
 80009b2:	ea5f 0c50 	movseq.w	ip, r0, lsr #1
 80009b6:	f150 0000 	adcs.w	r0, r0, #0
 80009ba:	eb41 5104 	adc.w	r1, r1, r4, lsl #20
 80009be:	bd70      	pop	{r4, r5, r6, pc}
 80009c0:	f00e 4e00 	and.w	lr, lr, #2147483648	; 0x80000000
 80009c4:	ea4e 3111 	orr.w	r1, lr, r1, lsr #12
 80009c8:	eb14 045c 	adds.w	r4, r4, ip, lsr #1
 80009cc:	bfc2      	ittt	gt
 80009ce:	ebd4 050c 	rsbsgt	r5, r4, ip
 80009d2:	ea41 5104 	orrgt.w	r1, r1, r4, lsl #20
 80009d6:	bd70      	popgt	{r4, r5, r6, pc}
 80009d8:	f441 1180 	orr.w	r1, r1, #1048576	; 0x100000
 80009dc:	f04f 0e00 	mov.w	lr, #0
 80009e0:	3c01      	subs	r4, #1
 80009e2:	e690      	b.n	8000706 <__aeabi_dmul+0xde>
 80009e4:	ea45 0e06 	orr.w	lr, r5, r6
 80009e8:	e68d      	b.n	8000706 <__aeabi_dmul+0xde>
 80009ea:	ea0c 5513 	and.w	r5, ip, r3, lsr #20
 80009ee:	ea94 0f0c 	teq	r4, ip
 80009f2:	bf08      	it	eq
 80009f4:	ea95 0f0c 	teqeq	r5, ip
 80009f8:	f43f af3b 	beq.w	8000872 <__aeabi_dmul+0x24a>
 80009fc:	ea94 0f0c 	teq	r4, ip
 8000a00:	d10a      	bne.n	8000a18 <__aeabi_ddiv+0x19c>
 8000a02:	ea50 3401 	orrs.w	r4, r0, r1, lsl #12
 8000a06:	f47f af34 	bne.w	8000872 <__aeabi_dmul+0x24a>
 8000a0a:	ea95 0f0c 	teq	r5, ip
 8000a0e:	f47f af25 	bne.w	800085c <__aeabi_dmul+0x234>
 8000a12:	4610      	mov	r0, r2
 8000a14:	4619      	mov	r1, r3
 8000a16:	e72c      	b.n	8000872 <__aeabi_dmul+0x24a>
 8000a18:	ea95 0f0c 	teq	r5, ip
 8000a1c:	d106      	bne.n	8000a2c <__aeabi_ddiv+0x1b0>
 8000a1e:	ea52 3503 	orrs.w	r5, r2, r3, lsl #12
 8000a22:	f43f aefd 	beq.w	8000820 <__aeabi_dmul+0x1f8>
 8000a26:	4610      	mov	r0, r2
 8000a28:	4619      	mov	r1, r3
 8000a2a:	e722      	b.n	8000872 <__aeabi_dmul+0x24a>
 8000a2c:	ea50 0641 	orrs.w	r6, r0, r1, lsl #1
 8000a30:	bf18      	it	ne
 8000a32:	ea52 0643 	orrsne.w	r6, r2, r3, lsl #1
 8000a36:	f47f aec5 	bne.w	80007c4 <__aeabi_dmul+0x19c>
 8000a3a:	ea50 0441 	orrs.w	r4, r0, r1, lsl #1
 8000a3e:	f47f af0d 	bne.w	800085c <__aeabi_dmul+0x234>
 8000a42:	ea52 0543 	orrs.w	r5, r2, r3, lsl #1
 8000a46:	f47f aeeb 	bne.w	8000820 <__aeabi_dmul+0x1f8>
 8000a4a:	e712      	b.n	8000872 <__aeabi_dmul+0x24a>

08000a4c <__gedf2>:
 8000a4c:	f04f 3cff 	mov.w	ip, #4294967295
 8000a50:	e006      	b.n	8000a60 <__cmpdf2+0x4>
 8000a52:	bf00      	nop

08000a54 <__ledf2>:
 8000a54:	f04f 0c01 	mov.w	ip, #1
 8000a58:	e002      	b.n	8000a60 <__cmpdf2+0x4>
 8000a5a:	bf00      	nop

08000a5c <__cmpdf2>:
 8000a5c:	f04f 0c01 	mov.w	ip, #1
 8000a60:	f84d cd04 	str.w	ip, [sp, #-4]!
 8000a64:	ea4f 0c41 	mov.w	ip, r1, lsl #1
 8000a68:	ea7f 5c6c 	mvns.w	ip, ip, asr #21
 8000a6c:	ea4f 0c43 	mov.w	ip, r3, lsl #1
 8000a70:	bf18      	it	ne
 8000a72:	ea7f 5c6c 	mvnsne.w	ip, ip, asr #21
 8000a76:	d01b      	beq.n	8000ab0 <__cmpdf2+0x54>
 8000a78:	b001      	add	sp, #4
 8000a7a:	ea50 0c41 	orrs.w	ip, r0, r1, lsl #1
 8000a7e:	bf0c      	ite	eq
 8000a80:	ea52 0c43 	orrseq.w	ip, r2, r3, lsl #1
 8000a84:	ea91 0f03 	teqne	r1, r3
 8000a88:	bf02      	ittt	eq
 8000a8a:	ea90 0f02 	teqeq	r0, r2
 8000a8e:	2000      	moveq	r0, #0
 8000a90:	4770      	bxeq	lr
 8000a92:	f110 0f00 	cmn.w	r0, #0
 8000a96:	ea91 0f03 	teq	r1, r3
 8000a9a:	bf58      	it	pl
 8000a9c:	4299      	cmppl	r1, r3
 8000a9e:	bf08      	it	eq
 8000aa0:	4290      	cmpeq	r0, r2
 8000aa2:	bf2c      	ite	cs
 8000aa4:	17d8      	asrcs	r0, r3, #31
 8000aa6:	ea6f 70e3 	mvncc.w	r0, r3, asr #31
 8000aaa:	f040 0001 	orr.w	r0, r0, #1
 8000aae:	4770      	bx	lr
 8000ab0:	ea4f 0c41 	mov.w	ip, r1, lsl #1
 8000ab4:	ea7f 5c6c 	mvns.w	ip, ip, asr #21
 8000ab8:	d102      	bne.n	8000ac0 <__cmpdf2+0x64>
 8000aba:	ea50 3c01 	orrs.w	ip, r0, r1, lsl #12
 8000abe:	d107      	bne.n	8000ad0 <__cmpdf2+0x74>
 8000ac0:	ea4f 0c43 	mov.w	ip, r3, lsl #1
 8000ac4:	ea7f 5c6c 	mvns.w	ip, ip, asr #21
 8000ac8:	d1d6      	bne.n	8000a78 <__cmpdf2+0x1c>
 8000aca:	ea52 3c03 	orrs.w	ip, r2, r3, lsl #12
 8000ace:	d0d3      	beq.n	8000a78 <__cmpdf2+0x1c>
 8000ad0:	f85d 0b04 	ldr.w	r0, [sp], #4
 8000ad4:	4770      	bx	lr
 8000ad6:	bf00      	nop

08000ad8 <__aeabi_cdrcmple>:
 8000ad8:	4684      	mov	ip, r0
 8000ada:	4610      	mov	r0, r2
 8000adc:	4662      	mov	r2, ip
 8000ade:	468c      	mov	ip, r1
 8000ae0:	4619      	mov	r1, r3
 8000ae2:	4663      	mov	r3, ip
 8000ae4:	e000      	b.n	8000ae8 <__aeabi_cdcmpeq>
 8000ae6:	bf00      	nop

08000ae8 <__aeabi_cdcmpeq>:
 8000ae8:	b501      	push	{r0, lr}
 8000aea:	f7ff ffb7 	bl	8000a5c <__cmpdf2>
 8000aee:	2800      	cmp	r0, #0
 8000af0:	bf48      	it	mi
 8000af2:	f110 0f00 	cmnmi.w	r0, #0
 8000af6:	bd01      	pop	{r0, pc}

08000af8 <__aeabi_dcmpeq>:
 8000af8:	f84d ed08 	str.w	lr, [sp, #-8]!
 8000afc:	f7ff fff4 	bl	8000ae8 <__aeabi_cdcmpeq>
 8000b00:	bf0c      	ite	eq
 8000b02:	2001      	moveq	r0, #1
 8000b04:	2000      	movne	r0, #0
 8000b06:	f85d fb08 	ldr.w	pc, [sp], #8
 8000b0a:	bf00      	nop

08000b0c <__aeabi_dcmplt>:
 8000b0c:	f84d ed08 	str.w	lr, [sp, #-8]!
 8000b10:	f7ff ffea 	bl	8000ae8 <__aeabi_cdcmpeq>
 8000b14:	bf34      	ite	cc
 8000b16:	2001      	movcc	r0, #1
 8000b18:	2000      	movcs	r0, #0
 8000b1a:	f85d fb08 	ldr.w	pc, [sp], #8
 8000b1e:	bf00      	nop

08000b20 <__aeabi_dcmple>:
 8000b20:	f84d ed08 	str.w	lr, [sp, #-8]!
 8000b24:	f7ff ffe0 	bl	8000ae8 <__aeabi_cdcmpeq>
 8000b28:	bf94      	ite	ls
 8000b2a:	2001      	movls	r0, #1
 8000b2c:	2000      	movhi	r0, #0
 8000b2e:	f85d fb08 	ldr.w	pc, [sp], #8
 8000b32:	bf00      	nop

08000b34 <__aeabi_dcmpge>:
 8000b34:	f84d ed08 	str.w	lr, [sp, #-8]!
 8000b38:	f7ff ffce 	bl	8000ad8 <__aeabi_cdrcmple>
 8000b3c:	bf94      	ite	ls
 8000b3e:	2001      	movls	r0, #1
 8000b40:	2000      	movhi	r0, #0
 8000b42:	f85d fb08 	ldr.w	pc, [sp], #8
 8000b46:	bf00      	nop

08000b48 <__aeabi_dcmpgt>:
 8000b48:	f84d ed08 	str.w	lr, [sp, #-8]!
 8000b4c:	f7ff ffc4 	bl	8000ad8 <__aeabi_cdrcmple>
 8000b50:	bf34      	ite	cc
 8000b52:	2001      	movcc	r0, #1
 8000b54:	2000      	movcs	r0, #0
 8000b56:	f85d fb08 	ldr.w	pc, [sp], #8
 8000b5a:	bf00      	nop

08000b5c <__aeabi_dcmpun>:
 8000b5c:	ea4f 0c41 	mov.w	ip, r1, lsl #1
 8000b60:	ea7f 5c6c 	mvns.w	ip, ip, asr #21
 8000b64:	d102      	bne.n	8000b6c <__aeabi_dcmpun+0x10>
 8000b66:	ea50 3c01 	orrs.w	ip, r0, r1, lsl #12
 8000b6a:	d10a      	bne.n	8000b82 <__aeabi_dcmpun+0x26>
 8000b6c:	ea4f 0c43 	mov.w	ip, r3, lsl #1
 8000b70:	ea7f 5c6c 	mvns.w	ip, ip, asr #21
 8000b74:	d102      	bne.n	8000b7c <__aeabi_dcmpun+0x20>
 8000b76:	ea52 3c03 	orrs.w	ip, r2, r3, lsl #12
 8000b7a:	d102      	bne.n	8000b82 <__aeabi_dcmpun+0x26>
 8000b7c:	f04f 0000 	mov.w	r0, #0
 8000b80:	4770      	bx	lr
 8000b82:	f04f 0001 	mov.w	r0, #1
 8000b86:	4770      	bx	lr

08000b88 <__aeabi_d2iz>:
 8000b88:	ea4f 0241 	mov.w	r2, r1, lsl #1
 8000b8c:	f512 1200 	adds.w	r2, r2, #2097152	; 0x200000
 8000b90:	d215      	bcs.n	8000bbe <__aeabi_d2iz+0x36>
 8000b92:	d511      	bpl.n	8000bb8 <__aeabi_d2iz+0x30>
 8000b94:	f46f 7378 	mvn.w	r3, #992	; 0x3e0
 8000b98:	ebb3 5262 	subs.w	r2, r3, r2, asr #21
 8000b9c:	d912      	bls.n	8000bc4 <__aeabi_d2iz+0x3c>
 8000b9e:	ea4f 23c1 	mov.w	r3, r1, lsl #11
 8000ba2:	f043 4300 	orr.w	r3, r3, #2147483648	; 0x80000000
 8000ba6:	ea43 5350 	orr.w	r3, r3, r0, lsr #21
 8000baa:	f011 4f00 	tst.w	r1, #2147483648	; 0x80000000
 8000bae:	fa23 f002 	lsr.w	r0, r3, r2
 8000bb2:	bf18      	it	ne
 8000bb4:	4240      	negne	r0, r0
 8000bb6:	4770      	bx	lr
 8000bb8:	f04f 0000 	mov.w	r0, #0
 8000bbc:	4770      	bx	lr
 8000bbe:	ea50 3001 	orrs.w	r0, r0, r1, lsl #12
 8000bc2:	d105      	bne.n	8000bd0 <__aeabi_d2iz+0x48>
 8000bc4:	f011 4000 	ands.w	r0, r1, #2147483648	; 0x80000000
 8000bc8:	bf08      	it	eq
 8000bca:	f06f 4000 	mvneq.w	r0, #2147483648	; 0x80000000
 8000bce:	4770      	bx	lr
 8000bd0:	f04f 0000 	mov.w	r0, #0
 8000bd4:	4770      	bx	lr
 8000bd6:	bf00      	nop

08000bd8 <__aeabi_uldivmod>:
 8000bd8:	b953      	cbnz	r3, 8000bf0 <__aeabi_uldivmod+0x18>
 8000bda:	b94a      	cbnz	r2, 8000bf0 <__aeabi_uldivmod+0x18>
 8000bdc:	2900      	cmp	r1, #0
 8000bde:	bf08      	it	eq
 8000be0:	2800      	cmpeq	r0, #0
 8000be2:	bf1c      	itt	ne
 8000be4:	f04f 31ff 	movne.w	r1, #4294967295
 8000be8:	f04f 30ff 	movne.w	r0, #4294967295
 8000bec:	f000 b96e 	b.w	8000ecc <__aeabi_idiv0>
 8000bf0:	f1ad 0c08 	sub.w	ip, sp, #8
 8000bf4:	e96d ce04 	strd	ip, lr, [sp, #-16]!
 8000bf8:	f000 f806 	bl	8000c08 <__udivmoddi4>
 8000bfc:	f8dd e004 	ldr.w	lr, [sp, #4]
 8000c00:	e9dd 2302 	ldrd	r2, r3, [sp, #8]
 8000c04:	b004      	add	sp, #16
 8000c06:	4770      	bx	lr

08000c08 <__udivmoddi4>:
 8000c08:	e92d 47f0 	stmdb	sp!, {r4, r5, r6, r7, r8, r9, sl, lr}
 8000c0c:	9d08      	ldr	r5, [sp, #32]
 8000c0e:	4604      	mov	r4, r0
 8000c10:	468c      	mov	ip, r1
 8000c12:	2b00      	cmp	r3, #0
 8000c14:	f040 8083 	bne.w	8000d1e <__udivmoddi4+0x116>
 8000c18:	428a      	cmp	r2, r1
 8000c1a:	4617      	mov	r7, r2
 8000c1c:	d947      	bls.n	8000cae <__udivmoddi4+0xa6>
 8000c1e:	fab2 f282 	clz	r2, r2
 8000c22:	b142      	cbz	r2, 8000c36 <__udivmoddi4+0x2e>
 8000c24:	f1c2 0020 	rsb	r0, r2, #32
 8000c28:	fa24 f000 	lsr.w	r0, r4, r0
 8000c2c:	4091      	lsls	r1, r2
 8000c2e:	4097      	lsls	r7, r2
 8000c30:	ea40 0c01 	orr.w	ip, r0, r1
 8000c34:	4094      	lsls	r4, r2
 8000c36:	ea4f 4817 	mov.w	r8, r7, lsr #16
 8000c3a:	0c23      	lsrs	r3, r4, #16
 8000c3c:	fbbc f6f8 	udiv	r6, ip, r8
 8000c40:	fa1f fe87 	uxth.w	lr, r7
 8000c44:	fb08 c116 	mls	r1, r8, r6, ip
 8000c48:	ea43 4301 	orr.w	r3, r3, r1, lsl #16
 8000c4c:	fb06 f10e 	mul.w	r1, r6, lr
 8000c50:	4299      	cmp	r1, r3
 8000c52:	d909      	bls.n	8000c68 <__udivmoddi4+0x60>
 8000c54:	18fb      	adds	r3, r7, r3
 8000c56:	f106 30ff 	add.w	r0, r6, #4294967295
 8000c5a:	f080 8119 	bcs.w	8000e90 <__udivmoddi4+0x288>
 8000c5e:	4299      	cmp	r1, r3
 8000c60:	f240 8116 	bls.w	8000e90 <__udivmoddi4+0x288>
 8000c64:	3e02      	subs	r6, #2
 8000c66:	443b      	add	r3, r7
 8000c68:	1a5b      	subs	r3, r3, r1
 8000c6a:	b2a4      	uxth	r4, r4
 8000c6c:	fbb3 f0f8 	udiv	r0, r3, r8
 8000c70:	fb08 3310 	mls	r3, r8, r0, r3
 8000c74:	ea44 4403 	orr.w	r4, r4, r3, lsl #16
 8000c78:	fb00 fe0e 	mul.w	lr, r0, lr
 8000c7c:	45a6      	cmp	lr, r4
 8000c7e:	d909      	bls.n	8000c94 <__udivmoddi4+0x8c>
 8000c80:	193c      	adds	r4, r7, r4
 8000c82:	f100 33ff 	add.w	r3, r0, #4294967295
 8000c86:	f080 8105 	bcs.w	8000e94 <__udivmoddi4+0x28c>
 8000c8a:	45a6      	cmp	lr, r4
 8000c8c:	f240 8102 	bls.w	8000e94 <__udivmoddi4+0x28c>
 8000c90:	3802      	subs	r0, #2
 8000c92:	443c      	add	r4, r7
 8000c94:	ea40 4006 	orr.w	r0, r0, r6, lsl #16
 8000c98:	eba4 040e 	sub.w	r4, r4, lr
 8000c9c:	2600      	movs	r6, #0
 8000c9e:	b11d      	cbz	r5, 8000ca8 <__udivmoddi4+0xa0>
 8000ca0:	40d4      	lsrs	r4, r2
 8000ca2:	2300      	movs	r3, #0
 8000ca4:	e9c5 4300 	strd	r4, r3, [r5]
 8000ca8:	4631      	mov	r1, r6
 8000caa:	e8bd 87f0 	ldmia.w	sp!, {r4, r5, r6, r7, r8, r9, sl, pc}
 8000cae:	b902      	cbnz	r2, 8000cb2 <__udivmoddi4+0xaa>
 8000cb0:	deff      	udf	#255	; 0xff
 8000cb2:	fab2 f282 	clz	r2, r2
 8000cb6:	2a00      	cmp	r2, #0
 8000cb8:	d150      	bne.n	8000d5c <__udivmoddi4+0x154>
 8000cba:	1bcb      	subs	r3, r1, r7
 8000cbc:	ea4f 4e17 	mov.w	lr, r7, lsr #16
 8000cc0:	fa1f f887 	uxth.w	r8, r7
 8000cc4:	2601      	movs	r6, #1
 8000cc6:	fbb3 fcfe 	udiv	ip, r3, lr
 8000cca:	0c21      	lsrs	r1, r4, #16
 8000ccc:	fb0e 331c 	mls	r3, lr, ip, r3
 8000cd0:	ea41 4103 	orr.w	r1, r1, r3, lsl #16
 8000cd4:	fb08 f30c 	mul.w	r3, r8, ip
 8000cd8:	428b      	cmp	r3, r1
 8000cda:	d907      	bls.n	8000cec <__udivmoddi4+0xe4>
 8000cdc:	1879      	adds	r1, r7, r1
 8000cde:	f10c 30ff 	add.w	r0, ip, #4294967295
 8000ce2:	d202      	bcs.n	8000cea <__udivmoddi4+0xe2>
 8000ce4:	428b      	cmp	r3, r1
 8000ce6:	f200 80e9 	bhi.w	8000ebc <__udivmoddi4+0x2b4>
 8000cea:	4684      	mov	ip, r0
 8000cec:	1ac9      	subs	r1, r1, r3
 8000cee:	b2a3      	uxth	r3, r4
 8000cf0:	fbb1 f0fe 	udiv	r0, r1, lr
 8000cf4:	fb0e 1110 	mls	r1, lr, r0, r1
 8000cf8:	ea43 4401 	orr.w	r4, r3, r1, lsl #16
 8000cfc:	fb08 f800 	mul.w	r8, r8, r0
 8000d00:	45a0      	cmp	r8, r4
 8000d02:	d907      	bls.n	8000d14 <__udivmoddi4+0x10c>
 8000d04:	193c      	adds	r4, r7, r4
 8000d06:	f100 33ff 	add.w	r3, r0, #4294967295
 8000d0a:	d202      	bcs.n	8000d12 <__udivmoddi4+0x10a>
 8000d0c:	45a0      	cmp	r8, r4
 8000d0e:	f200 80d9 	bhi.w	8000ec4 <__udivmoddi4+0x2bc>
 8000d12:	4618      	mov	r0, r3
 8000d14:	eba4 0408 	sub.w	r4, r4, r8
 8000d18:	ea40 400c 	orr.w	r0, r0, ip, lsl #16
 8000d1c:	e7bf      	b.n	8000c9e <__udivmoddi4+0x96>
 8000d1e:	428b      	cmp	r3, r1
 8000d20:	d909      	bls.n	8000d36 <__udivmoddi4+0x12e>
 8000d22:	2d00      	cmp	r5, #0
 8000d24:	f000 80b1 	beq.w	8000e8a <__udivmoddi4+0x282>
 8000d28:	2600      	movs	r6, #0
 8000d2a:	e9c5 0100 	strd	r0, r1, [r5]
 8000d2e:	4630      	mov	r0, r6
 8000d30:	4631      	mov	r1, r6
 8000d32:	e8bd 87f0 	ldmia.w	sp!, {r4, r5, r6, r7, r8, r9, sl, pc}
 8000d36:	fab3 f683 	clz	r6, r3
 8000d3a:	2e00      	cmp	r6, #0
 8000d3c:	d14a      	bne.n	8000dd4 <__udivmoddi4+0x1cc>
 8000d3e:	428b      	cmp	r3, r1
 8000d40:	d302      	bcc.n	8000d48 <__udivmoddi4+0x140>
 8000d42:	4282      	cmp	r2, r0
 8000d44:	f200 80b8 	bhi.w	8000eb8 <__udivmoddi4+0x2b0>
 8000d48:	1a84      	subs	r4, r0, r2
 8000d4a:	eb61 0103 	sbc.w	r1, r1, r3
 8000d4e:	2001      	movs	r0, #1
 8000d50:	468c      	mov	ip, r1
 8000d52:	2d00      	cmp	r5, #0
 8000d54:	d0a8      	beq.n	8000ca8 <__udivmoddi4+0xa0>
 8000d56:	e9c5 4c00 	strd	r4, ip, [r5]
 8000d5a:	e7a5      	b.n	8000ca8 <__udivmoddi4+0xa0>
 8000d5c:	f1c2 0320 	rsb	r3, r2, #32
 8000d60:	fa20 f603 	lsr.w	r6, r0, r3
 8000d64:	4097      	lsls	r7, r2
 8000d66:	fa01 f002 	lsl.w	r0, r1, r2
 8000d6a:	ea4f 4e17 	mov.w	lr, r7, lsr #16
 8000d6e:	40d9      	lsrs	r1, r3
 8000d70:	4330      	orrs	r0, r6
 8000d72:	0c03      	lsrs	r3, r0, #16
 8000d74:	fbb1 f6fe 	udiv	r6, r1, lr
 8000d78:	fa1f f887 	uxth.w	r8, r7
 8000d7c:	fb0e 1116 	mls	r1, lr, r6, r1
 8000d80:	ea43 4301 	orr.w	r3, r3, r1, lsl #16
 8000d84:	fb06 f108 	mul.w	r1, r6, r8
 8000d88:	4299      	cmp	r1, r3
 8000d8a:	fa04 f402 	lsl.w	r4, r4, r2
 8000d8e:	d909      	bls.n	8000da4 <__udivmoddi4+0x19c>
 8000d90:	18fb      	adds	r3, r7, r3
 8000d92:	f106 3cff 	add.w	ip, r6, #4294967295
 8000d96:	f080 808d 	bcs.w	8000eb4 <__udivmoddi4+0x2ac>
 8000d9a:	4299      	cmp	r1, r3
 8000d9c:	f240 808a 	bls.w	8000eb4 <__udivmoddi4+0x2ac>
 8000da0:	3e02      	subs	r6, #2
 8000da2:	443b      	add	r3, r7
 8000da4:	1a5b      	subs	r3, r3, r1
 8000da6:	b281      	uxth	r1, r0
 8000da8:	fbb3 f0fe 	udiv	r0, r3, lr
 8000dac:	fb0e 3310 	mls	r3, lr, r0, r3
 8000db0:	ea41 4103 	orr.w	r1, r1, r3, lsl #16
 8000db4:	fb00 f308 	mul.w	r3, r0, r8
 8000db8:	428b      	cmp	r3, r1
 8000dba:	d907      	bls.n	8000dcc <__udivmoddi4+0x1c4>
 8000dbc:	1879      	adds	r1, r7, r1
 8000dbe:	f100 3cff 	add.w	ip, r0, #4294967295
 8000dc2:	d273      	bcs.n	8000eac <__udivmoddi4+0x2a4>
 8000dc4:	428b      	cmp	r3, r1
 8000dc6:	d971      	bls.n	8000eac <__udivmoddi4+0x2a4>
 8000dc8:	3802      	subs	r0, #2
 8000dca:	4439      	add	r1, r7
 8000dcc:	1acb      	subs	r3, r1, r3
 8000dce:	ea40 4606 	orr.w	r6, r0, r6, lsl #16
 8000dd2:	e778      	b.n	8000cc6 <__udivmoddi4+0xbe>
 8000dd4:	f1c6 0c20 	rsb	ip, r6, #32
 8000dd8:	fa03 f406 	lsl.w	r4, r3, r6
 8000ddc:	fa22 f30c 	lsr.w	r3, r2, ip
 8000de0:	431c      	orrs	r4, r3
 8000de2:	fa20 f70c 	lsr.w	r7, r0, ip
 8000de6:	fa01 f306 	lsl.w	r3, r1, r6
 8000dea:	ea4f 4e14 	mov.w	lr, r4, lsr #16
 8000dee:	fa21 f10c 	lsr.w	r1, r1, ip
 8000df2:	431f      	orrs	r7, r3
 8000df4:	0c3b      	lsrs	r3, r7, #16
 8000df6:	fbb1 f9fe 	udiv	r9, r1, lr
 8000dfa:	fa1f f884 	uxth.w	r8, r4
 8000dfe:	fb0e 1119 	mls	r1, lr, r9, r1
 8000e02:	ea43 4101 	orr.w	r1, r3, r1, lsl #16
 8000e06:	fb09 fa08 	mul.w	sl, r9, r8
 8000e0a:	458a      	cmp	sl, r1
 8000e0c:	fa02 f206 	lsl.w	r2, r2, r6
 8000e10:	fa00 f306 	lsl.w	r3, r0, r6
 8000e14:	d908      	bls.n	8000e28 <__udivmoddi4+0x220>
 8000e16:	1861      	adds	r1, r4, r1
 8000e18:	f109 30ff 	add.w	r0, r9, #4294967295
 8000e1c:	d248      	bcs.n	8000eb0 <__udivmoddi4+0x2a8>
 8000e1e:	458a      	cmp	sl, r1
 8000e20:	d946      	bls.n	8000eb0 <__udivmoddi4+0x2a8>
 8000e22:	f1a9 0902 	sub.w	r9, r9, #2
 8000e26:	4421      	add	r1, r4
 8000e28:	eba1 010a 	sub.w	r1, r1, sl
 8000e2c:	b2bf      	uxth	r7, r7
 8000e2e:	fbb1 f0fe 	udiv	r0, r1, lr
 8000e32:	fb0e 1110 	mls	r1, lr, r0, r1
 8000e36:	ea47 4701 	orr.w	r7, r7, r1, lsl #16
 8000e3a:	fb00 f808 	mul.w	r8, r0, r8
 8000e3e:	45b8      	cmp	r8, r7
 8000e40:	d907      	bls.n	8000e52 <__udivmoddi4+0x24a>
 8000e42:	19e7      	adds	r7, r4, r7
 8000e44:	f100 31ff 	add.w	r1, r0, #4294967295
 8000e48:	d22e      	bcs.n	8000ea8 <__udivmoddi4+0x2a0>
 8000e4a:	45b8      	cmp	r8, r7
 8000e4c:	d92c      	bls.n	8000ea8 <__udivmoddi4+0x2a0>
 8000e4e:	3802      	subs	r0, #2
 8000e50:	4427      	add	r7, r4
 8000e52:	ea40 4009 	orr.w	r0, r0, r9, lsl #16
 8000e56:	eba7 0708 	sub.w	r7, r7, r8
 8000e5a:	fba0 8902 	umull	r8, r9, r0, r2
 8000e5e:	454f      	cmp	r7, r9
 8000e60:	46c6      	mov	lr, r8
 8000e62:	4649      	mov	r1, r9
 8000e64:	d31a      	bcc.n	8000e9c <__udivmoddi4+0x294>
 8000e66:	d017      	beq.n	8000e98 <__udivmoddi4+0x290>
 8000e68:	b15d      	cbz	r5, 8000e82 <__udivmoddi4+0x27a>
 8000e6a:	ebb3 020e 	subs.w	r2, r3, lr
 8000e6e:	eb67 0701 	sbc.w	r7, r7, r1
 8000e72:	fa07 fc0c 	lsl.w	ip, r7, ip
 8000e76:	40f2      	lsrs	r2, r6
 8000e78:	ea4c 0202 	orr.w	r2, ip, r2
 8000e7c:	40f7      	lsrs	r7, r6
 8000e7e:	e9c5 2700 	strd	r2, r7, [r5]
 8000e82:	2600      	movs	r6, #0
 8000e84:	4631      	mov	r1, r6
 8000e86:	e8bd 87f0 	ldmia.w	sp!, {r4, r5, r6, r7, r8, r9, sl, pc}
 8000e8a:	462e      	mov	r6, r5
 8000e8c:	4628      	mov	r0, r5
 8000e8e:	e70b      	b.n	8000ca8 <__udivmoddi4+0xa0>
 8000e90:	4606      	mov	r6, r0
 8000e92:	e6e9      	b.n	8000c68 <__udivmoddi4+0x60>
 8000e94:	4618      	mov	r0, r3
 8000e96:	e6fd      	b.n	8000c94 <__udivmoddi4+0x8c>
 8000e98:	4543      	cmp	r3, r8
 8000e9a:	d2e5      	bcs.n	8000e68 <__udivmoddi4+0x260>
 8000e9c:	ebb8 0e02 	subs.w	lr, r8, r2
 8000ea0:	eb69 0104 	sbc.w	r1, r9, r4
 8000ea4:	3801      	subs	r0, #1
 8000ea6:	e7df      	b.n	8000e68 <__udivmoddi4+0x260>
 8000ea8:	4608      	mov	r0, r1
 8000eaa:	e7d2      	b.n	8000e52 <__udivmoddi4+0x24a>
 8000eac:	4660      	mov	r0, ip
 8000eae:	e78d      	b.n	8000dcc <__udivmoddi4+0x1c4>
 8000eb0:	4681      	mov	r9, r0
 8000eb2:	e7b9      	b.n	8000e28 <__udivmoddi4+0x220>
 8000eb4:	4666      	mov	r6, ip
 8000eb6:	e775      	b.n	8000da4 <__udivmoddi4+0x19c>
 8000eb8:	4630      	mov	r0, r6
 8000eba:	e74a      	b.n	8000d52 <__udivmoddi4+0x14a>
 8000ebc:	f1ac 0c02 	sub.w	ip, ip, #2
 8000ec0:	4439      	add	r1, r7
 8000ec2:	e713      	b.n	8000cec <__udivmoddi4+0xe4>
 8000ec4:	3802      	subs	r0, #2
 8000ec6:	443c      	add	r4, r7
 8000ec8:	e724      	b.n	8000d14 <__udivmoddi4+0x10c>
 8000eca:	bf00      	nop

08000ecc <__aeabi_idiv0>:
 8000ecc:	4770      	bx	lr
 8000ece:	bf00      	nop

08000ed0 <SystemClock_Config>:
 8000ed0:	b500      	push	{lr}
 8000ed2:	b0bd      	sub	sp, #244	; 0xf4
 8000ed4:	2244      	movs	r2, #68	; 0x44
 8000ed6:	2100      	movs	r1, #0
 8000ed8:	a806      	add	r0, sp, #24
 8000eda:	f004 f8f3 	bl	80050c4 <memset>
 8000ede:	2214      	movs	r2, #20
 8000ee0:	2100      	movs	r1, #0
 8000ee2:	a801      	add	r0, sp, #4
 8000ee4:	f004 f8ee 	bl	80050c4 <memset>
 8000ee8:	2294      	movs	r2, #148	; 0x94
 8000eea:	2100      	movs	r1, #0
 8000eec:	a817      	add	r0, sp, #92	; 0x5c
 8000eee:	f004 f8e9 	bl	80050c4 <memset>
 8000ef2:	2000      	movs	r0, #0
 8000ef4:	f000 fd6e 	bl	80019d4 <HAL_PWREx_ControlVoltageScaling>
 8000ef8:	b108      	cbz	r0, 8000efe <SystemClock_Config+0x2e>
 8000efa:	b672      	cpsid	i
 8000efc:	e7fe      	b.n	8000efc <SystemClock_Config+0x2c>
 8000efe:	2240      	movs	r2, #64	; 0x40
 8000f00:	f44f 7180 	mov.w	r1, #256	; 0x100
 8000f04:	2302      	movs	r3, #2
 8000f06:	e9cd 1209 	strd	r1, r2, [sp, #36]	; 0x24
 8000f0a:	a806      	add	r0, sp, #24
 8000f0c:	221e      	movs	r2, #30
 8000f0e:	e9cd 3310 	strd	r3, r3, [sp, #64]	; 0x40
 8000f12:	e9cd 2313 	strd	r2, r3, [sp, #76]	; 0x4c
 8000f16:	e9cd 3315 	strd	r3, r3, [sp, #84]	; 0x54
 8000f1a:	9306      	str	r3, [sp, #24]
 8000f1c:	9312      	str	r3, [sp, #72]	; 0x48
 8000f1e:	f000 fe49 	bl	8001bb4 <HAL_RCC_OscConfig>
 8000f22:	b108      	cbz	r0, 8000f28 <SystemClock_Config+0x58>
 8000f24:	b672      	cpsid	i
 8000f26:	e7fe      	b.n	8000f26 <SystemClock_Config+0x56>
 8000f28:	2303      	movs	r3, #3
 8000f2a:	220f      	movs	r2, #15
 8000f2c:	e9cd 2301 	strd	r2, r3, [sp, #4]
 8000f30:	f44f 6380 	mov.w	r3, #1024	; 0x400
 8000f34:	e9cd 3004 	strd	r3, r0, [sp, #16]
 8000f38:	9003      	str	r0, [sp, #12]
 8000f3a:	2105      	movs	r1, #5
 8000f3c:	a801      	add	r0, sp, #4
 8000f3e:	f001 f8e7 	bl	8002110 <HAL_RCC_ClockConfig>
 8000f42:	b108      	cbz	r0, 8000f48 <SystemClock_Config+0x78>
 8000f44:	b672      	cpsid	i
 8000f46:	e7fe      	b.n	8000f46 <SystemClock_Config+0x76>
 8000f48:	e9cd 0027 	strd	r0, r0, [sp, #156]	; 0x9c
 8000f4c:	2306      	movs	r3, #6
 8000f4e:	a817      	add	r0, sp, #92	; 0x5c
 8000f50:	9317      	str	r3, [sp, #92]	; 0x5c
 8000f52:	f001 fae5 	bl	8002520 <HAL_RCCEx_PeriphCLKConfig>
 8000f56:	b108      	cbz	r0, 8000f5c <SystemClock_Config+0x8c>
 8000f58:	b672      	cpsid	i
 8000f5a:	e7fe      	b.n	8000f5a <SystemClock_Config+0x8a>
 8000f5c:	b03d      	add	sp, #244	; 0xf4
 8000f5e:	f85d fb04 	ldr.w	pc, [sp], #4
	...

08000f64 <main>:
 8000f64:	e92d 4ff0 	stmdb	sp!, {r4, r5, r6, r7, r8, r9, sl, fp, lr}
 8000f68:	4dae      	ldr	r5, [pc, #696]	; (8001224 <main+0x2c0>)
 8000f6a:	cd0f      	ldmia	r5!, {r0, r1, r2, r3}
 8000f6c:	f6ad 5d4c 	subw	sp, sp, #3404	; 0xd4c
 8000f70:	ae0d      	add	r6, sp, #52	; 0x34
 8000f72:	c60f      	stmia	r6!, {r0, r1, r2, r3}
 8000f74:	e895 0003 	ldmia.w	r5, {r0, r1}
 8000f78:	f1a5 0710 	sub.w	r7, r5, #16
 8000f7c:	e886 0003 	stmia.w	r6, {r0, r1}
 8000f80:	cf0f      	ldmia	r7!, {r0, r1, r2, r3}
 8000f82:	ae13      	add	r6, sp, #76	; 0x4c
 8000f84:	c60f      	stmia	r6!, {r0, r1, r2, r3}
 8000f86:	e895 0003 	ldmia.w	r5, {r0, r1}
 8000f8a:	4ba7      	ldr	r3, [pc, #668]	; (8001228 <main+0x2c4>)
 8000f8c:	f04f 1501 	mov.w	r5, #65537	; 0x10001
 8000f90:	2400      	movs	r4, #0
 8000f92:	e886 0003 	stmia.w	r6, {r0, r1}
 8000f96:	e9cd 3519 	strd	r3, r5, [sp, #100]	; 0x64
 8000f9a:	2601      	movs	r6, #1
 8000f9c:	4ba3      	ldr	r3, [pc, #652]	; (800122c <main+0x2c8>)
 8000f9e:	931c      	str	r3, [sp, #112]	; 0x70
 8000fa0:	9406      	str	r4, [sp, #24]
 8000fa2:	f8ad 606c 	strh.w	r6, [sp, #108]	; 0x6c
 8000fa6:	f002 f98f 	bl	80032c8 <ai_sine_model_data_weights_get>
 8000faa:	4ba1      	ldr	r3, [pc, #644]	; (8001230 <main+0x2cc>)
 8000fac:	f8ad 6084 	strh.w	r6, [sp, #132]	; 0x84
 8000fb0:	e9cd 351f 	strd	r3, r5, [sp, #124]	; 0x7c
 8000fb4:	f44f 6348 	mov.w	r3, #3200	; 0xc80
 8000fb8:	9322      	str	r3, [sp, #136]	; 0x88
 8000fba:	f10d 0810 	add.w	r8, sp, #16
 8000fbe:	ab32      	add	r3, sp, #200	; 0xc8
 8000fc0:	af05      	add	r7, sp, #20
 8000fc2:	e9cd 3423 	strd	r3, r4, [sp, #140]	; 0x8c
 8000fc6:	e9cd 041d 	strd	r0, r4, [sp, #116]	; 0x74
 8000fca:	f8ad 6038 	strh.w	r6, [sp, #56]	; 0x38
 8000fce:	f8cd 8044 	str.w	r8, [sp, #68]	; 0x44
 8000fd2:	f8ad 6050 	strh.w	r6, [sp, #80]	; 0x50
 8000fd6:	9717      	str	r7, [sp, #92]	; 0x5c
 8000fd8:	f000 fb16 	bl	8001608 <HAL_Init>
 8000fdc:	f7ff ff78 	bl	8000ed0 <SystemClock_Config>
 8000fe0:	4621      	mov	r1, r4
 8000fe2:	2214      	movs	r2, #20
 8000fe4:	a825      	add	r0, sp, #148	; 0x94
 8000fe6:	f004 f86d 	bl	80050c4 <memset>
 8000fea:	4b92      	ldr	r3, [pc, #584]	; (8001234 <main+0x2d0>)
 8000fec:	6cda      	ldr	r2, [r3, #76]	; 0x4c
 8000fee:	f042 0204 	orr.w	r2, r2, #4
 8000ff2:	64da      	str	r2, [r3, #76]	; 0x4c
 8000ff4:	6cda      	ldr	r2, [r3, #76]	; 0x4c
 8000ff6:	f002 0204 	and.w	r2, r2, #4
 8000ffa:	9207      	str	r2, [sp, #28]
 8000ffc:	9a07      	ldr	r2, [sp, #28]
 8000ffe:	6cda      	ldr	r2, [r3, #76]	; 0x4c
 8001000:	f042 0280 	orr.w	r2, r2, #128	; 0x80
 8001004:	64da      	str	r2, [r3, #76]	; 0x4c
 8001006:	6cda      	ldr	r2, [r3, #76]	; 0x4c
 8001008:	f002 0280 	and.w	r2, r2, #128	; 0x80
 800100c:	9208      	str	r2, [sp, #32]
 800100e:	9a08      	ldr	r2, [sp, #32]
 8001010:	6cda      	ldr	r2, [r3, #76]	; 0x4c
 8001012:	4332      	orrs	r2, r6
 8001014:	64da      	str	r2, [r3, #76]	; 0x4c
 8001016:	6cda      	ldr	r2, [r3, #76]	; 0x4c
 8001018:	4032      	ands	r2, r6
 800101a:	9209      	str	r2, [sp, #36]	; 0x24
 800101c:	9a09      	ldr	r2, [sp, #36]	; 0x24
 800101e:	6cda      	ldr	r2, [r3, #76]	; 0x4c
 8001020:	f042 0202 	orr.w	r2, r2, #2
 8001024:	64da      	str	r2, [r3, #76]	; 0x4c
 8001026:	6cda      	ldr	r2, [r3, #76]	; 0x4c
 8001028:	f002 0202 	and.w	r2, r2, #2
 800102c:	920a      	str	r2, [sp, #40]	; 0x28
 800102e:	9a0a      	ldr	r2, [sp, #40]	; 0x28
 8001030:	6cda      	ldr	r2, [r3, #76]	; 0x4c
 8001032:	f042 0208 	orr.w	r2, r2, #8
 8001036:	64da      	str	r2, [r3, #76]	; 0x4c
 8001038:	6cda      	ldr	r2, [r3, #76]	; 0x4c
 800103a:	f002 0208 	and.w	r2, r2, #8
 800103e:	920b      	str	r2, [sp, #44]	; 0x2c
 8001040:	9a0b      	ldr	r2, [sp, #44]	; 0x2c
 8001042:	6cda      	ldr	r2, [r3, #76]	; 0x4c
 8001044:	f042 0240 	orr.w	r2, r2, #64	; 0x40
 8001048:	64da      	str	r2, [r3, #76]	; 0x4c
 800104a:	6cdb      	ldr	r3, [r3, #76]	; 0x4c
 800104c:	f003 0340 	and.w	r3, r3, #64	; 0x40
 8001050:	930c      	str	r3, [sp, #48]	; 0x30
 8001052:	9b0c      	ldr	r3, [sp, #48]	; 0x30
 8001054:	f000 fd1a 	bl	8001a8c <HAL_PWREx_EnableVddIO2>
 8001058:	4877      	ldr	r0, [pc, #476]	; (8001238 <main+0x2d4>)
 800105a:	4622      	mov	r2, r4
 800105c:	f44f 4181 	mov.w	r1, #16512	; 0x4080
 8001060:	f000 fc98 	bl	8001994 <HAL_GPIO_WritePin>
 8001064:	4622      	mov	r2, r4
 8001066:	4875      	ldr	r0, [pc, #468]	; (800123c <main+0x2d8>)
 8001068:	2120      	movs	r1, #32
 800106a:	f000 fc93 	bl	8001994 <HAL_GPIO_WritePin>
 800106e:	4b74      	ldr	r3, [pc, #464]	; (8001240 <main+0x2dc>)
 8001070:	4874      	ldr	r0, [pc, #464]	; (8001244 <main+0x2e0>)
 8001072:	9427      	str	r4, [sp, #156]	; 0x9c
 8001074:	f44f 5100 	mov.w	r1, #8192	; 0x2000
 8001078:	e9cd 1325 	strd	r1, r3, [sp, #148]	; 0x94
 800107c:	a925      	add	r1, sp, #148	; 0x94
 800107e:	f000 fbaf 	bl	80017e0 <HAL_GPIO_Init>
 8001082:	f44f 4381 	mov.w	r3, #16512	; 0x4080
 8001086:	486c      	ldr	r0, [pc, #432]	; (8001238 <main+0x2d4>)
 8001088:	a925      	add	r1, sp, #148	; 0x94
 800108a:	e9cd 3625 	strd	r3, r6, [sp, #148]	; 0x94
 800108e:	e9cd 4427 	strd	r4, r4, [sp, #156]	; 0x9c
 8001092:	f000 fba5 	bl	80017e0 <HAL_GPIO_Init>
 8001096:	2320      	movs	r3, #32
 8001098:	4868      	ldr	r0, [pc, #416]	; (800123c <main+0x2d8>)
 800109a:	a925      	add	r1, sp, #148	; 0x94
 800109c:	e9cd 3625 	strd	r3, r6, [sp, #148]	; 0x94
 80010a0:	e9cd 4427 	strd	r4, r4, [sp, #156]	; 0x9c
 80010a4:	f000 fb9c 	bl	80017e0 <HAL_GPIO_Init>
 80010a8:	2340      	movs	r3, #64	; 0x40
 80010aa:	4864      	ldr	r0, [pc, #400]	; (800123c <main+0x2d8>)
 80010ac:	9427      	str	r4, [sp, #156]	; 0x9c
 80010ae:	a925      	add	r1, sp, #148	; 0x94
 80010b0:	f04f 0902 	mov.w	r9, #2
 80010b4:	e9cd 3425 	strd	r3, r4, [sp, #148]	; 0x94
 80010b8:	f000 fb92 	bl	80017e0 <HAL_GPIO_Init>
 80010bc:	f44f 73c0 	mov.w	r3, #384	; 0x180
 80010c0:	e9cd 3925 	strd	r3, r9, [sp, #148]	; 0x94
 80010c4:	2503      	movs	r5, #3
 80010c6:	2308      	movs	r3, #8
 80010c8:	485c      	ldr	r0, [pc, #368]	; (800123c <main+0x2d8>)
 80010ca:	9427      	str	r4, [sp, #156]	; 0x9c
 80010cc:	a925      	add	r1, sp, #148	; 0x94
 80010ce:	e9cd 5328 	strd	r5, r3, [sp, #160]	; 0xa0
 80010d2:	f000 fb85 	bl	80017e0 <HAL_GPIO_Init>
 80010d6:	f44f 53e8 	mov.w	r3, #7424	; 0x1d00
 80010da:	e9cd 3925 	strd	r3, r9, [sp, #148]	; 0x94
 80010de:	a925      	add	r1, sp, #148	; 0x94
 80010e0:	230a      	movs	r3, #10
 80010e2:	f04f 4090 	mov.w	r0, #1207959552	; 0x48000000
 80010e6:	e9cd 4527 	strd	r4, r5, [sp, #156]	; 0x9c
 80010ea:	9329      	str	r3, [sp, #164]	; 0xa4
 80010ec:	4d56      	ldr	r5, [pc, #344]	; (8001248 <main+0x2e4>)
 80010ee:	f000 fb77 	bl	80017e0 <HAL_GPIO_Init>
 80010f2:	f44f 7300 	mov.w	r3, #512	; 0x200
 80010f6:	a925      	add	r1, sp, #148	; 0x94
 80010f8:	f04f 4090 	mov.w	r0, #1207959552	; 0x48000000
 80010fc:	e9cd 3425 	strd	r3, r4, [sp, #148]	; 0x94
 8001100:	9427      	str	r4, [sp, #156]	; 0x9c
 8001102:	f000 fb6d 	bl	80017e0 <HAL_GPIO_Init>
 8001106:	4b51      	ldr	r3, [pc, #324]	; (800124c <main+0x2e8>)
 8001108:	612c      	str	r4, [r5, #16]
 800110a:	f44f 3ae1 	mov.w	sl, #115200	; 0x1c200
 800110e:	f04f 090c 	mov.w	r9, #12
 8001112:	4628      	mov	r0, r5
 8001114:	e9c5 3a00 	strd	r3, sl, [r5]
 8001118:	e9c5 4402 	strd	r4, r4, [r5, #8]
 800111c:	e9c5 9405 	strd	r9, r4, [r5, #20]
 8001120:	e9c5 4407 	strd	r4, r4, [r5, #28]
 8001124:	e9c5 4409 	strd	r4, r4, [r5, #36]	; 0x24
 8001128:	f001 ff74 	bl	8003014 <HAL_UART_Init>
 800112c:	4601      	mov	r1, r0
 800112e:	b108      	cbz	r0, 8001134 <main+0x1d0>
 8001130:	b672      	cpsid	i
 8001132:	e7fe      	b.n	8001132 <main+0x1ce>
 8001134:	4628      	mov	r0, r5
 8001136:	f001 ffda 	bl	80030ee <HAL_UARTEx_SetTxFifoThreshold>
 800113a:	4601      	mov	r1, r0
 800113c:	b108      	cbz	r0, 8001142 <main+0x1de>
 800113e:	b672      	cpsid	i
 8001140:	e7fe      	b.n	8001140 <main+0x1dc>
 8001142:	4628      	mov	r0, r5
 8001144:	f001 fff7 	bl	8003136 <HAL_UARTEx_SetRxFifoThreshold>
 8001148:	b108      	cbz	r0, 800114e <main+0x1ea>
 800114a:	b672      	cpsid	i
 800114c:	e7fe      	b.n	800114c <main+0x1e8>
 800114e:	4628      	mov	r0, r5
 8001150:	f001 ffb2 	bl	80030b8 <HAL_UARTEx_DisableFifoMode>
 8001154:	b108      	cbz	r0, 800115a <main+0x1f6>
 8001156:	b672      	cpsid	i
 8001158:	e7fe      	b.n	8001158 <main+0x1f4>
 800115a:	4d3d      	ldr	r5, [pc, #244]	; (8001250 <main+0x2ec>)
 800115c:	4a3d      	ldr	r2, [pc, #244]	; (8001254 <main+0x2f0>)
 800115e:	60a8      	str	r0, [r5, #8]
 8001160:	234f      	movs	r3, #79	; 0x4f
 8001162:	e9c5 2300 	strd	r2, r3, [r5]
 8001166:	f64f 73ff 	movw	r3, #65535	; 0xffff
 800116a:	e9c5 3003 	strd	r3, r0, [r5, #12]
 800116e:	e9c5 0005 	strd	r0, r0, [r5, #20]
 8001172:	4628      	mov	r0, r5
 8001174:	f001 fc86 	bl	8002a84 <HAL_TIM_Base_Init>
 8001178:	4603      	mov	r3, r0
 800117a:	b108      	cbz	r0, 8001180 <main+0x21c>
 800117c:	b672      	cpsid	i
 800117e:	e7fe      	b.n	800117e <main+0x21a>
 8001180:	4835      	ldr	r0, [pc, #212]	; (8001258 <main+0x2f4>)
 8001182:	4a36      	ldr	r2, [pc, #216]	; (800125c <main+0x2f8>)
 8001184:	8083      	strh	r3, [r0, #4]
 8001186:	e9c0 3305 	strd	r3, r3, [r0, #20]
 800118a:	6002      	str	r2, [r0, #0]
 800118c:	6206      	str	r6, [r0, #32]
 800118e:	f000 facb 	bl	8001728 <HAL_CRC_Init>
 8001192:	b108      	cbz	r0, 8001198 <main+0x234>
 8001194:	b672      	cpsid	i
 8001196:	e7fe      	b.n	8001196 <main+0x232>
 8001198:	4c31      	ldr	r4, [pc, #196]	; (8001260 <main+0x2fc>)
 800119a:	4b32      	ldr	r3, [pc, #200]	; (8001264 <main+0x300>)
 800119c:	62a0      	str	r0, [r4, #40]	; 0x28
 800119e:	e9c4 0002 	strd	r0, r0, [r4, #8]
 80011a2:	e9c4 0904 	strd	r0, r9, [r4, #16]
 80011a6:	e9c4 0006 	strd	r0, r0, [r4, #24]
 80011aa:	e9c4 0008 	strd	r0, r0, [r4, #32]
 80011ae:	4620      	mov	r0, r4
 80011b0:	e9c4 3a00 	strd	r3, sl, [r4]
 80011b4:	f001 ff2e 	bl	8003014 <HAL_UART_Init>
 80011b8:	4601      	mov	r1, r0
 80011ba:	b108      	cbz	r0, 80011c0 <main+0x25c>
 80011bc:	b672      	cpsid	i
 80011be:	e7fe      	b.n	80011be <main+0x25a>
 80011c0:	4620      	mov	r0, r4
 80011c2:	f001 ff94 	bl	80030ee <HAL_UARTEx_SetTxFifoThreshold>
 80011c6:	4601      	mov	r1, r0
 80011c8:	b108      	cbz	r0, 80011ce <main+0x26a>
 80011ca:	b672      	cpsid	i
 80011cc:	e7fe      	b.n	80011cc <main+0x268>
 80011ce:	4620      	mov	r0, r4
 80011d0:	f001 ffb1 	bl	8003136 <HAL_UARTEx_SetRxFifoThreshold>
 80011d4:	b108      	cbz	r0, 80011da <main+0x276>
 80011d6:	b672      	cpsid	i
 80011d8:	e7fe      	b.n	80011d8 <main+0x274>
 80011da:	4620      	mov	r0, r4
 80011dc:	f001 ff6c 	bl	80030b8 <HAL_UARTEx_DisableFifoMode>
 80011e0:	b108      	cbz	r0, 80011e6 <main+0x282>
 80011e2:	b672      	cpsid	i
 80011e4:	e7fe      	b.n	80011e4 <main+0x280>
 80011e6:	481a      	ldr	r0, [pc, #104]	; (8001250 <main+0x2ec>)
 80011e8:	f001 fbb0 	bl	800294c <HAL_TIM_Base_Start>
 80011ec:	491e      	ldr	r1, [pc, #120]	; (8001268 <main+0x304>)
 80011ee:	a825      	add	r0, sp, #148	; 0x94
 80011f0:	f004 fcb4 	bl	8005b5c <strcpy>
 80011f4:	2364      	movs	r3, #100	; 0x64
 80011f6:	221a      	movs	r2, #26
 80011f8:	a925      	add	r1, sp, #148	; 0x94
 80011fa:	4819      	ldr	r0, [pc, #100]	; (8001260 <main+0x2fc>)
 80011fc:	f001 fe78 	bl	8002ef0 <HAL_UART_Transmit>
 8001200:	2100      	movs	r1, #0
 8001202:	a806      	add	r0, sp, #24
 8001204:	f001 ffbc 	bl	8003180 <ai_sine_model_create>
 8001208:	f010 0fff 	tst.w	r0, #255	; 0xff
 800120c:	d030      	beq.n	8001270 <main+0x30c>
 800120e:	4917      	ldr	r1, [pc, #92]	; (800126c <main+0x308>)
 8001210:	a825      	add	r0, sp, #148	; 0x94
 8001212:	f004 fca3 	bl	8005b5c <strcpy>
 8001216:	4812      	ldr	r0, [pc, #72]	; (8001260 <main+0x2fc>)
 8001218:	2364      	movs	r3, #100	; 0x64
 800121a:	2225      	movs	r2, #37	; 0x25
 800121c:	a925      	add	r1, sp, #148	; 0x94
 800121e:	f001 fe67 	bl	8002ef0 <HAL_UART_Transmit>
 8001222:	e7fe      	b.n	8001222 <main+0x2be>
 8001224:	08008038 	.word	0x08008038
 8001228:	40040440 	.word	0x40040440
 800122c:	00032194 	.word	0x00032194
 8001230:	00040440 	.word	0x00040440
 8001234:	40021000 	.word	0x40021000
 8001238:	48000400 	.word	0x48000400
 800123c:	48001800 	.word	0x48001800
 8001240:	10110000 	.word	0x10110000
 8001244:	48000800 	.word	0x48000800
 8001248:	200008c0 	.word	0x200008c0
 800124c:	40004800 	.word	0x40004800
 8001250:	20000a04 	.word	0x20000a04
 8001254:	40014400 	.word	0x40014400
 8001258:	20000950 	.word	0x20000950
 800125c:	40023000 	.word	0x40023000
 8001260:	20000974 	.word	0x20000974
 8001264:	40004400 	.word	0x40004400
 8001268:	08008054 	.word	0x08008054
 800126c:	0800806f 	.word	0x0800806f
 8001270:	9806      	ldr	r0, [sp, #24]
 8001272:	a919      	add	r1, sp, #100	; 0x64
 8001274:	f001 ff92 	bl	800319c <ai_sine_model_init>
 8001278:	2800      	cmp	r0, #0
 800127a:	d040      	beq.n	80012fe <main+0x39a>
 800127c:	f8df 90a0 	ldr.w	r9, [pc, #160]	; 8001320 <main+0x3bc>
 8001280:	f8df b0a0 	ldr.w	fp, [pc, #160]	; 8001324 <main+0x3c0>
 8001284:	4e23      	ldr	r6, [pc, #140]	; (8001314 <main+0x3b0>)
 8001286:	2180      	movs	r1, #128	; 0x80
 8001288:	4648      	mov	r0, r9
 800128a:	f000 fb88 	bl	800199e <HAL_GPIO_TogglePin>
 800128e:	f04f 4380 	mov.w	r3, #1073741824	; 0x40000000
 8001292:	f8c8 3000 	str.w	r3, [r8]
 8001296:	682b      	ldr	r3, [r5, #0]
 8001298:	9806      	ldr	r0, [sp, #24]
 800129a:	6a5b      	ldr	r3, [r3, #36]	; 0x24
 800129c:	9303      	str	r3, [sp, #12]
 800129e:	aa13      	add	r2, sp, #76	; 0x4c
 80012a0:	a90d      	add	r1, sp, #52	; 0x34
 80012a2:	f002 f80f 	bl	80032c4 <ai_sine_model_run>
 80012a6:	2801      	cmp	r0, #1
 80012a8:	d009      	beq.n	80012be <main+0x35a>
 80012aa:	4659      	mov	r1, fp
 80012ac:	a825      	add	r0, sp, #148	; 0x94
 80012ae:	f004 fc55 	bl	8005b5c <strcpy>
 80012b2:	2364      	movs	r3, #100	; 0x64
 80012b4:	2220      	movs	r2, #32
 80012b6:	a925      	add	r1, sp, #148	; 0x94
 80012b8:	4630      	mov	r0, r6
 80012ba:	f001 fe19 	bl	8002ef0 <HAL_UART_Transmit>
 80012be:	f8d7 a000 	ldr.w	sl, [r7]
 80012c2:	4648      	mov	r0, r9
 80012c4:	f44f 4180 	mov.w	r1, #16384	; 0x4000
 80012c8:	f000 fb69 	bl	800199e <HAL_GPIO_TogglePin>
 80012cc:	682a      	ldr	r2, [r5, #0]
 80012ce:	4650      	mov	r0, sl
 80012d0:	6a54      	ldr	r4, [r2, #36]	; 0x24
 80012d2:	f7ff f951 	bl	8000578 <__aeabi_f2d>
 80012d6:	460b      	mov	r3, r1
 80012d8:	9903      	ldr	r1, [sp, #12]
 80012da:	1a64      	subs	r4, r4, r1
 80012dc:	4602      	mov	r2, r0
 80012de:	490e      	ldr	r1, [pc, #56]	; (8001318 <main+0x3b4>)
 80012e0:	9400      	str	r4, [sp, #0]
 80012e2:	a825      	add	r0, sp, #148	; 0x94
 80012e4:	f004 fc1a 	bl	8005b1c <siprintf>
 80012e8:	2364      	movs	r3, #100	; 0x64
 80012ea:	b282      	uxth	r2, r0
 80012ec:	a925      	add	r1, sp, #148	; 0x94
 80012ee:	4630      	mov	r0, r6
 80012f0:	f001 fdfe 	bl	8002ef0 <HAL_UART_Transmit>
 80012f4:	f44f 60fa 	mov.w	r0, #2000	; 0x7d0
 80012f8:	f000 f9a8 	bl	800164c <HAL_Delay>
 80012fc:	e7c3      	b.n	8001286 <main+0x322>
 80012fe:	4907      	ldr	r1, [pc, #28]	; (800131c <main+0x3b8>)
 8001300:	a825      	add	r0, sp, #148	; 0x94
 8001302:	f004 fc2b 	bl	8005b5c <strcpy>
 8001306:	4803      	ldr	r0, [pc, #12]	; (8001314 <main+0x3b0>)
 8001308:	2364      	movs	r3, #100	; 0x64
 800130a:	2220      	movs	r2, #32
 800130c:	a925      	add	r1, sp, #148	; 0x94
 800130e:	f001 fdef 	bl	8002ef0 <HAL_UART_Transmit>
 8001312:	e7fe      	b.n	8001312 <main+0x3ae>
 8001314:	20000974 	.word	0x20000974
 8001318:	080080d7 	.word	0x080080d7
 800131c:	08008095 	.word	0x08008095
 8001320:	48000400 	.word	0x48000400
 8001324:	080080b6 	.word	0x080080b6

08001328 <HAL_MspInit>:
 8001328:	4b0a      	ldr	r3, [pc, #40]	; (8001354 <HAL_MspInit+0x2c>)
 800132a:	6e1a      	ldr	r2, [r3, #96]	; 0x60
 800132c:	f042 0201 	orr.w	r2, r2, #1
 8001330:	661a      	str	r2, [r3, #96]	; 0x60
 8001332:	6e1a      	ldr	r2, [r3, #96]	; 0x60
 8001334:	b082      	sub	sp, #8
 8001336:	f002 0201 	and.w	r2, r2, #1
 800133a:	9200      	str	r2, [sp, #0]
 800133c:	9a00      	ldr	r2, [sp, #0]
 800133e:	6d9a      	ldr	r2, [r3, #88]	; 0x58
 8001340:	f042 5280 	orr.w	r2, r2, #268435456	; 0x10000000
 8001344:	659a      	str	r2, [r3, #88]	; 0x58
 8001346:	6d9b      	ldr	r3, [r3, #88]	; 0x58
 8001348:	f003 5380 	and.w	r3, r3, #268435456	; 0x10000000
 800134c:	9301      	str	r3, [sp, #4]
 800134e:	9b01      	ldr	r3, [sp, #4]
 8001350:	b002      	add	sp, #8
 8001352:	4770      	bx	lr
 8001354:	40021000 	.word	0x40021000

08001358 <HAL_CRC_MspInit>:
 8001358:	6802      	ldr	r2, [r0, #0]
 800135a:	4b08      	ldr	r3, [pc, #32]	; (800137c <HAL_CRC_MspInit+0x24>)
 800135c:	429a      	cmp	r2, r3
 800135e:	b082      	sub	sp, #8
 8001360:	d10a      	bne.n	8001378 <HAL_CRC_MspInit+0x20>
 8001362:	f5a3 5300 	sub.w	r3, r3, #8192	; 0x2000
 8001366:	6c9a      	ldr	r2, [r3, #72]	; 0x48
 8001368:	f442 5280 	orr.w	r2, r2, #4096	; 0x1000
 800136c:	649a      	str	r2, [r3, #72]	; 0x48
 800136e:	6c9b      	ldr	r3, [r3, #72]	; 0x48
 8001370:	f403 5380 	and.w	r3, r3, #4096	; 0x1000
 8001374:	9301      	str	r3, [sp, #4]
 8001376:	9b01      	ldr	r3, [sp, #4]
 8001378:	b002      	add	sp, #8
 800137a:	4770      	bx	lr
 800137c:	40023000 	.word	0x40023000

08001380 <HAL_TIM_Base_MspInit>:
 8001380:	6802      	ldr	r2, [r0, #0]
 8001382:	4b08      	ldr	r3, [pc, #32]	; (80013a4 <HAL_TIM_Base_MspInit+0x24>)
 8001384:	429a      	cmp	r2, r3
 8001386:	b082      	sub	sp, #8
 8001388:	d10a      	bne.n	80013a0 <HAL_TIM_Base_MspInit+0x20>
 800138a:	f503 434c 	add.w	r3, r3, #52224	; 0xcc00
 800138e:	6e1a      	ldr	r2, [r3, #96]	; 0x60
 8001390:	f442 3200 	orr.w	r2, r2, #131072	; 0x20000
 8001394:	661a      	str	r2, [r3, #96]	; 0x60
 8001396:	6e1b      	ldr	r3, [r3, #96]	; 0x60
 8001398:	f403 3300 	and.w	r3, r3, #131072	; 0x20000
 800139c:	9301      	str	r3, [sp, #4]
 800139e:	9b01      	ldr	r3, [sp, #4]
 80013a0:	b002      	add	sp, #8
 80013a2:	4770      	bx	lr
 80013a4:	40014400 	.word	0x40014400

080013a8 <HAL_UART_MspInit>:
 80013a8:	b510      	push	{r4, lr}
 80013aa:	2214      	movs	r2, #20
 80013ac:	b08a      	sub	sp, #40	; 0x28
 80013ae:	4604      	mov	r4, r0
 80013b0:	2100      	movs	r1, #0
 80013b2:	eb0d 0002 	add.w	r0, sp, r2
 80013b6:	f003 fe85 	bl	80050c4 <memset>
 80013ba:	6823      	ldr	r3, [r4, #0]
 80013bc:	4a25      	ldr	r2, [pc, #148]	; (8001454 <HAL_UART_MspInit+0xac>)
 80013be:	4293      	cmp	r3, r2
 80013c0:	d123      	bne.n	800140a <HAL_UART_MspInit+0x62>
 80013c2:	4b25      	ldr	r3, [pc, #148]	; (8001458 <HAL_UART_MspInit+0xb0>)
 80013c4:	6d9a      	ldr	r2, [r3, #88]	; 0x58
 80013c6:	f442 3200 	orr.w	r2, r2, #131072	; 0x20000
 80013ca:	659a      	str	r2, [r3, #88]	; 0x58
 80013cc:	6d9a      	ldr	r2, [r3, #88]	; 0x58
 80013ce:	f402 3200 	and.w	r2, r2, #131072	; 0x20000
 80013d2:	9201      	str	r2, [sp, #4]
 80013d4:	9a01      	ldr	r2, [sp, #4]
 80013d6:	6cda      	ldr	r2, [r3, #76]	; 0x4c
 80013d8:	f042 0201 	orr.w	r2, r2, #1
 80013dc:	64da      	str	r2, [r3, #76]	; 0x4c
 80013de:	6cdb      	ldr	r3, [r3, #76]	; 0x4c
 80013e0:	f003 0301 	and.w	r3, r3, #1
 80013e4:	9302      	str	r3, [sp, #8]
 80013e6:	200c      	movs	r0, #12
 80013e8:	9b02      	ldr	r3, [sp, #8]
 80013ea:	2302      	movs	r3, #2
 80013ec:	e9cd 0305 	strd	r0, r3, [sp, #20]
 80013f0:	2400      	movs	r4, #0
 80013f2:	2303      	movs	r3, #3
 80013f4:	e9cd 4307 	strd	r4, r3, [sp, #28]
 80013f8:	2307      	movs	r3, #7
 80013fa:	9309      	str	r3, [sp, #36]	; 0x24
 80013fc:	a905      	add	r1, sp, #20
 80013fe:	f04f 4090 	mov.w	r0, #1207959552	; 0x48000000
 8001402:	f000 f9ed 	bl	80017e0 <HAL_GPIO_Init>
 8001406:	b00a      	add	sp, #40	; 0x28
 8001408:	bd10      	pop	{r4, pc}
 800140a:	4a14      	ldr	r2, [pc, #80]	; (800145c <HAL_UART_MspInit+0xb4>)
 800140c:	4293      	cmp	r3, r2
 800140e:	d1fa      	bne.n	8001406 <HAL_UART_MspInit+0x5e>
 8001410:	4b11      	ldr	r3, [pc, #68]	; (8001458 <HAL_UART_MspInit+0xb0>)
 8001412:	4813      	ldr	r0, [pc, #76]	; (8001460 <HAL_UART_MspInit+0xb8>)
 8001414:	6d9a      	ldr	r2, [r3, #88]	; 0x58
 8001416:	f442 2280 	orr.w	r2, r2, #262144	; 0x40000
 800141a:	659a      	str	r2, [r3, #88]	; 0x58
 800141c:	6d9a      	ldr	r2, [r3, #88]	; 0x58
 800141e:	f402 2280 	and.w	r2, r2, #262144	; 0x40000
 8001422:	9203      	str	r2, [sp, #12]
 8001424:	9a03      	ldr	r2, [sp, #12]
 8001426:	6cda      	ldr	r2, [r3, #76]	; 0x4c
 8001428:	f042 0208 	orr.w	r2, r2, #8
 800142c:	64da      	str	r2, [r3, #76]	; 0x4c
 800142e:	6cdb      	ldr	r3, [r3, #76]	; 0x4c
 8001430:	f003 0308 	and.w	r3, r3, #8
 8001434:	9304      	str	r3, [sp, #16]
 8001436:	9b04      	ldr	r3, [sp, #16]
 8001438:	f44f 7240 	mov.w	r2, #768	; 0x300
 800143c:	2302      	movs	r3, #2
 800143e:	2100      	movs	r1, #0
 8001440:	e9cd 2305 	strd	r2, r3, [sp, #20]
 8001444:	2303      	movs	r3, #3
 8001446:	e9cd 1307 	strd	r1, r3, [sp, #28]
 800144a:	2307      	movs	r3, #7
 800144c:	9309      	str	r3, [sp, #36]	; 0x24
 800144e:	a905      	add	r1, sp, #20
 8001450:	e7d7      	b.n	8001402 <HAL_UART_MspInit+0x5a>
 8001452:	bf00      	nop
 8001454:	40004400 	.word	0x40004400
 8001458:	40021000 	.word	0x40021000
 800145c:	40004800 	.word	0x40004800
 8001460:	48000c00 	.word	0x48000c00

08001464 <NMI_Handler>:
 8001464:	e7fe      	b.n	8001464 <NMI_Handler>

08001466 <HardFault_Handler>:
 8001466:	e7fe      	b.n	8001466 <HardFault_Handler>

08001468 <MemManage_Handler>:
 8001468:	e7fe      	b.n	8001468 <MemManage_Handler>

0800146a <BusFault_Handler>:
 800146a:	e7fe      	b.n	800146a <BusFault_Handler>

0800146c <UsageFault_Handler>:
 800146c:	e7fe      	b.n	800146c <UsageFault_Handler>

0800146e <SVC_Handler>:
 800146e:	4770      	bx	lr

08001470 <DebugMon_Handler>:
 8001470:	4770      	bx	lr

08001472 <PendSV_Handler>:
 8001472:	4770      	bx	lr

08001474 <SysTick_Handler>:
 8001474:	f000 b8d8 	b.w	8001628 <HAL_IncTick>

08001478 <_getpid>:
 8001478:	2001      	movs	r0, #1
 800147a:	4770      	bx	lr

0800147c <_kill>:
 800147c:	b508      	push	{r3, lr}
 800147e:	f003 fde1 	bl	8005044 <__errno>
 8001482:	2316      	movs	r3, #22
 8001484:	6003      	str	r3, [r0, #0]
 8001486:	f04f 30ff 	mov.w	r0, #4294967295
 800148a:	bd08      	pop	{r3, pc}

0800148c <_exit>:
 800148c:	b508      	push	{r3, lr}
 800148e:	f003 fdd9 	bl	8005044 <__errno>
 8001492:	2316      	movs	r3, #22
 8001494:	6003      	str	r3, [r0, #0]
 8001496:	e7fe      	b.n	8001496 <_exit+0xa>

08001498 <_read>:
 8001498:	b570      	push	{r4, r5, r6, lr}
 800149a:	460e      	mov	r6, r1
 800149c:	4614      	mov	r4, r2
 800149e:	2500      	movs	r5, #0
 80014a0:	42a5      	cmp	r5, r4
 80014a2:	db01      	blt.n	80014a8 <_read+0x10>
 80014a4:	4620      	mov	r0, r4
 80014a6:	bd70      	pop	{r4, r5, r6, pc}
 80014a8:	f3af 8000 	nop.w
 80014ac:	5570      	strb	r0, [r6, r5]
 80014ae:	3501      	adds	r5, #1
 80014b0:	e7f6      	b.n	80014a0 <_read+0x8>

080014b2 <_write>:
 80014b2:	b570      	push	{r4, r5, r6, lr}
 80014b4:	460e      	mov	r6, r1
 80014b6:	4614      	mov	r4, r2
 80014b8:	2500      	movs	r5, #0
 80014ba:	42a5      	cmp	r5, r4
 80014bc:	db01      	blt.n	80014c2 <_write+0x10>
 80014be:	4620      	mov	r0, r4
 80014c0:	bd70      	pop	{r4, r5, r6, pc}
 80014c2:	5d70      	ldrb	r0, [r6, r5]
 80014c4:	f3af 8000 	nop.w
 80014c8:	3501      	adds	r5, #1
 80014ca:	e7f6      	b.n	80014ba <_write+0x8>

080014cc <_close>:
 80014cc:	f04f 30ff 	mov.w	r0, #4294967295
 80014d0:	4770      	bx	lr

080014d2 <_fstat>:
 80014d2:	f44f 5300 	mov.w	r3, #8192	; 0x2000
 80014d6:	604b      	str	r3, [r1, #4]
 80014d8:	2000      	movs	r0, #0
 80014da:	4770      	bx	lr

080014dc <_isatty>:
 80014dc:	2001      	movs	r0, #1
 80014de:	4770      	bx	lr

080014e0 <_lseek>:
 80014e0:	2000      	movs	r0, #0
 80014e2:	4770      	bx	lr

080014e4 <_sbrk>:
 80014e4:	4b0b      	ldr	r3, [pc, #44]	; (8001514 <_sbrk+0x30>)
 80014e6:	6819      	ldr	r1, [r3, #0]
 80014e8:	b510      	push	{r4, lr}
 80014ea:	4602      	mov	r2, r0
 80014ec:	b909      	cbnz	r1, 80014f2 <_sbrk+0xe>
 80014ee:	490a      	ldr	r1, [pc, #40]	; (8001518 <_sbrk+0x34>)
 80014f0:	6019      	str	r1, [r3, #0]
 80014f2:	6818      	ldr	r0, [r3, #0]
 80014f4:	4909      	ldr	r1, [pc, #36]	; (800151c <_sbrk+0x38>)
 80014f6:	4c0a      	ldr	r4, [pc, #40]	; (8001520 <_sbrk+0x3c>)
 80014f8:	4402      	add	r2, r0
 80014fa:	1b09      	subs	r1, r1, r4
 80014fc:	428a      	cmp	r2, r1
 80014fe:	d906      	bls.n	800150e <_sbrk+0x2a>
 8001500:	f003 fda0 	bl	8005044 <__errno>
 8001504:	230c      	movs	r3, #12
 8001506:	6003      	str	r3, [r0, #0]
 8001508:	f04f 30ff 	mov.w	r0, #4294967295
 800150c:	bd10      	pop	{r4, pc}
 800150e:	601a      	str	r2, [r3, #0]
 8001510:	e7fc      	b.n	800150c <_sbrk+0x28>
 8001512:	bf00      	nop
 8001514:	20000844 	.word	0x20000844
 8001518:	20000a68 	.word	0x20000a68
 800151c:	200a0000 	.word	0x200a0000
 8001520:	00000800 	.word	0x00000800

08001524 <SystemInit>:
 8001524:	4a0e      	ldr	r2, [pc, #56]	; (8001560 <SystemInit+0x3c>)
 8001526:	f8d2 3088 	ldr.w	r3, [r2, #136]	; 0x88
 800152a:	f443 0370 	orr.w	r3, r3, #15728640	; 0xf00000
 800152e:	f8c2 3088 	str.w	r3, [r2, #136]	; 0x88
 8001532:	4b0c      	ldr	r3, [pc, #48]	; (8001564 <SystemInit+0x40>)
 8001534:	681a      	ldr	r2, [r3, #0]
 8001536:	2100      	movs	r1, #0
 8001538:	f042 0201 	orr.w	r2, r2, #1
 800153c:	601a      	str	r2, [r3, #0]
 800153e:	6099      	str	r1, [r3, #8]
 8001540:	681a      	ldr	r2, [r3, #0]
 8001542:	f022 52a8 	bic.w	r2, r2, #352321536	; 0x15000000
 8001546:	f422 2210 	bic.w	r2, r2, #589824	; 0x90000
 800154a:	601a      	str	r2, [r3, #0]
 800154c:	f44f 5280 	mov.w	r2, #4096	; 0x1000
 8001550:	60da      	str	r2, [r3, #12]
 8001552:	681a      	ldr	r2, [r3, #0]
 8001554:	f422 2280 	bic.w	r2, r2, #262144	; 0x40000
 8001558:	601a      	str	r2, [r3, #0]
 800155a:	6199      	str	r1, [r3, #24]
 800155c:	4770      	bx	lr
 800155e:	bf00      	nop
 8001560:	e000ed00 	.word	0xe000ed00
 8001564:	40021000 	.word	0x40021000

08001568 <Reset_Handler>:
 8001568:	f8df d034 	ldr.w	sp, [pc, #52]	; 80015a0 <LoopForever+0x2>
 800156c:	f7ff ffda 	bl	8001524 <SystemInit>
 8001570:	2100      	movs	r1, #0
 8001572:	e003      	b.n	800157c <LoopCopyDataInit>

08001574 <CopyDataInit>:
 8001574:	4b0b      	ldr	r3, [pc, #44]	; (80015a4 <LoopForever+0x6>)
 8001576:	585b      	ldr	r3, [r3, r1]
 8001578:	5043      	str	r3, [r0, r1]
 800157a:	3104      	adds	r1, #4

0800157c <LoopCopyDataInit>:
 800157c:	480a      	ldr	r0, [pc, #40]	; (80015a8 <LoopForever+0xa>)
 800157e:	4b0b      	ldr	r3, [pc, #44]	; (80015ac <LoopForever+0xe>)
 8001580:	1842      	adds	r2, r0, r1
 8001582:	429a      	cmp	r2, r3
 8001584:	d3f6      	bcc.n	8001574 <CopyDataInit>
 8001586:	4a0a      	ldr	r2, [pc, #40]	; (80015b0 <LoopForever+0x12>)
 8001588:	e002      	b.n	8001590 <LoopFillZerobss>

0800158a <FillZerobss>:
 800158a:	2300      	movs	r3, #0
 800158c:	f842 3b04 	str.w	r3, [r2], #4

08001590 <LoopFillZerobss>:
 8001590:	4b08      	ldr	r3, [pc, #32]	; (80015b4 <LoopForever+0x16>)
 8001592:	429a      	cmp	r2, r3
 8001594:	d3f9      	bcc.n	800158a <FillZerobss>
 8001596:	f003 fd5b 	bl	8005050 <__libc_init_array>
 800159a:	f7ff fce3 	bl	8000f64 <main>

0800159e <LoopForever>:
 800159e:	e7fe      	b.n	800159e <LoopForever>
 80015a0:	200a0000 	.word	0x200a0000
 80015a4:	0803a734 	.word	0x0803a734
 80015a8:	20000000 	.word	0x20000000
 80015ac:	20000828 	.word	0x20000828
 80015b0:	20000828 	.word	0x20000828
 80015b4:	20000a64 	.word	0x20000a64

080015b8 <ADC1_IRQHandler>:
 80015b8:	e7fe      	b.n	80015b8 <ADC1_IRQHandler>
	...

080015bc <HAL_InitTick>:
 80015bc:	b538      	push	{r3, r4, r5, lr}
 80015be:	4b0f      	ldr	r3, [pc, #60]	; (80015fc <HAL_InitTick+0x40>)
 80015c0:	4605      	mov	r5, r0
 80015c2:	7818      	ldrb	r0, [r3, #0]
 80015c4:	b908      	cbnz	r0, 80015ca <HAL_InitTick+0xe>
 80015c6:	2001      	movs	r0, #1
 80015c8:	bd38      	pop	{r3, r4, r5, pc}
 80015ca:	4a0d      	ldr	r2, [pc, #52]	; (8001600 <HAL_InitTick+0x44>)
 80015cc:	f44f 737a 	mov.w	r3, #1000	; 0x3e8
 80015d0:	fbb3 f3f0 	udiv	r3, r3, r0
 80015d4:	6810      	ldr	r0, [r2, #0]
 80015d6:	fbb0 f0f3 	udiv	r0, r0, r3
 80015da:	f000 f88f 	bl	80016fc <HAL_SYSTICK_Config>
 80015de:	4604      	mov	r4, r0
 80015e0:	2800      	cmp	r0, #0
 80015e2:	d1f0      	bne.n	80015c6 <HAL_InitTick+0xa>
 80015e4:	2d0f      	cmp	r5, #15
 80015e6:	d8ee      	bhi.n	80015c6 <HAL_InitTick+0xa>
 80015e8:	4602      	mov	r2, r0
 80015ea:	4629      	mov	r1, r5
 80015ec:	f04f 30ff 	mov.w	r0, #4294967295
 80015f0:	f000 f852 	bl	8001698 <HAL_NVIC_SetPriority>
 80015f4:	4b03      	ldr	r3, [pc, #12]	; (8001604 <HAL_InitTick+0x48>)
 80015f6:	4620      	mov	r0, r4
 80015f8:	601d      	str	r5, [r3, #0]
 80015fa:	e7e5      	b.n	80015c8 <HAL_InitTick+0xc>
 80015fc:	20000004 	.word	0x20000004
 8001600:	20000000 	.word	0x20000000
 8001604:	20000008 	.word	0x20000008

08001608 <HAL_Init>:
 8001608:	b510      	push	{r4, lr}
 800160a:	2003      	movs	r0, #3
 800160c:	f000 f832 	bl	8001674 <HAL_NVIC_SetPriorityGrouping>
 8001610:	2000      	movs	r0, #0
 8001612:	f7ff ffd3 	bl	80015bc <HAL_InitTick>
 8001616:	4604      	mov	r4, r0
 8001618:	b918      	cbnz	r0, 8001622 <HAL_Init+0x1a>
 800161a:	f7ff fe85 	bl	8001328 <HAL_MspInit>
 800161e:	4620      	mov	r0, r4
 8001620:	bd10      	pop	{r4, pc}
 8001622:	2401      	movs	r4, #1
 8001624:	e7fb      	b.n	800161e <HAL_Init+0x16>
	...

08001628 <HAL_IncTick>:
 8001628:	4a03      	ldr	r2, [pc, #12]	; (8001638 <HAL_IncTick+0x10>)
 800162a:	4b04      	ldr	r3, [pc, #16]	; (800163c <HAL_IncTick+0x14>)
 800162c:	6811      	ldr	r1, [r2, #0]
 800162e:	781b      	ldrb	r3, [r3, #0]
 8001630:	440b      	add	r3, r1
 8001632:	6013      	str	r3, [r2, #0]
 8001634:	4770      	bx	lr
 8001636:	bf00      	nop
 8001638:	20000a50 	.word	0x20000a50
 800163c:	20000004 	.word	0x20000004

08001640 <HAL_GetTick>:
 8001640:	4b01      	ldr	r3, [pc, #4]	; (8001648 <HAL_GetTick+0x8>)
 8001642:	6818      	ldr	r0, [r3, #0]
 8001644:	4770      	bx	lr
 8001646:	bf00      	nop
 8001648:	20000a50 	.word	0x20000a50

0800164c <HAL_Delay>:
 800164c:	b538      	push	{r3, r4, r5, lr}
 800164e:	4604      	mov	r4, r0
 8001650:	f7ff fff6 	bl	8001640 <HAL_GetTick>
 8001654:	1c63      	adds	r3, r4, #1
 8001656:	bf1c      	itt	ne
 8001658:	4b05      	ldrne	r3, [pc, #20]	; (8001670 <HAL_Delay+0x24>)
 800165a:	781b      	ldrbne	r3, [r3, #0]
 800165c:	4605      	mov	r5, r0
 800165e:	bf18      	it	ne
 8001660:	18e4      	addne	r4, r4, r3
 8001662:	f7ff ffed 	bl	8001640 <HAL_GetTick>
 8001666:	1b43      	subs	r3, r0, r5
 8001668:	42a3      	cmp	r3, r4
 800166a:	d3fa      	bcc.n	8001662 <HAL_Delay+0x16>
 800166c:	bd38      	pop	{r3, r4, r5, pc}
 800166e:	bf00      	nop
 8001670:	20000004 	.word	0x20000004

08001674 <HAL_NVIC_SetPriorityGrouping>:
 8001674:	4907      	ldr	r1, [pc, #28]	; (8001694 <HAL_NVIC_SetPriorityGrouping+0x20>)
 8001676:	68ca      	ldr	r2, [r1, #12]
 8001678:	f422 62e0 	bic.w	r2, r2, #1792	; 0x700
 800167c:	0203      	lsls	r3, r0, #8
 800167e:	0412      	lsls	r2, r2, #16
 8001680:	f403 63e0 	and.w	r3, r3, #1792	; 0x700
 8001684:	0c12      	lsrs	r2, r2, #16
 8001686:	4313      	orrs	r3, r2
 8001688:	f043 63bf 	orr.w	r3, r3, #100139008	; 0x5f80000
 800168c:	f443 3300 	orr.w	r3, r3, #131072	; 0x20000
 8001690:	60cb      	str	r3, [r1, #12]
 8001692:	4770      	bx	lr
 8001694:	e000ed00 	.word	0xe000ed00

08001698 <HAL_NVIC_SetPriority>:
 8001698:	4b16      	ldr	r3, [pc, #88]	; (80016f4 <HAL_NVIC_SetPriority+0x5c>)
 800169a:	b530      	push	{r4, r5, lr}
 800169c:	68dc      	ldr	r4, [r3, #12]
 800169e:	f3c4 2402 	ubfx	r4, r4, #8, #3
 80016a2:	f1c4 0507 	rsb	r5, r4, #7
 80016a6:	1d23      	adds	r3, r4, #4
 80016a8:	2d04      	cmp	r5, #4
 80016aa:	bf28      	it	cs
 80016ac:	2504      	movcs	r5, #4
 80016ae:	2b06      	cmp	r3, #6
 80016b0:	f04f 33ff 	mov.w	r3, #4294967295
 80016b4:	bf8c      	ite	hi
 80016b6:	3c03      	subhi	r4, #3
 80016b8:	2400      	movls	r4, #0
 80016ba:	fa03 f505 	lsl.w	r5, r3, r5
 80016be:	ea21 0105 	bic.w	r1, r1, r5
 80016c2:	40a3      	lsls	r3, r4
 80016c4:	ea22 0203 	bic.w	r2, r2, r3
 80016c8:	40a1      	lsls	r1, r4
 80016ca:	2800      	cmp	r0, #0
 80016cc:	ea41 0302 	orr.w	r3, r1, r2
 80016d0:	bfac      	ite	ge
 80016d2:	f100 4060 	addge.w	r0, r0, #3758096384	; 0xe0000000
 80016d6:	4a08      	ldrlt	r2, [pc, #32]	; (80016f8 <HAL_NVIC_SetPriority+0x60>)
 80016d8:	ea4f 1303 	mov.w	r3, r3, lsl #4
 80016dc:	bfb8      	it	lt
 80016de:	f000 000f 	andlt.w	r0, r0, #15
 80016e2:	b2db      	uxtb	r3, r3
 80016e4:	bfaa      	itet	ge
 80016e6:	f500 4061 	addge.w	r0, r0, #57600	; 0xe100
 80016ea:	5413      	strblt	r3, [r2, r0]
 80016ec:	f880 3300 	strbge.w	r3, [r0, #768]	; 0x300
 80016f0:	bd30      	pop	{r4, r5, pc}
 80016f2:	bf00      	nop
 80016f4:	e000ed00 	.word	0xe000ed00
 80016f8:	e000ed14 	.word	0xe000ed14

080016fc <HAL_SYSTICK_Config>:
 80016fc:	3801      	subs	r0, #1
 80016fe:	f1b0 7f80 	cmp.w	r0, #16777216	; 0x1000000
 8001702:	d20a      	bcs.n	800171a <HAL_SYSTICK_Config+0x1e>
 8001704:	4b06      	ldr	r3, [pc, #24]	; (8001720 <HAL_SYSTICK_Config+0x24>)
 8001706:	4a07      	ldr	r2, [pc, #28]	; (8001724 <HAL_SYSTICK_Config+0x28>)
 8001708:	6058      	str	r0, [r3, #4]
 800170a:	21f0      	movs	r1, #240	; 0xf0
 800170c:	f882 1023 	strb.w	r1, [r2, #35]	; 0x23
 8001710:	2000      	movs	r0, #0
 8001712:	2207      	movs	r2, #7
 8001714:	6098      	str	r0, [r3, #8]
 8001716:	601a      	str	r2, [r3, #0]
 8001718:	4770      	bx	lr
 800171a:	2001      	movs	r0, #1
 800171c:	4770      	bx	lr
 800171e:	bf00      	nop
 8001720:	e000e010 	.word	0xe000e010
 8001724:	e000ed00 	.word	0xe000ed00

08001728 <HAL_CRC_Init>:
 8001728:	b510      	push	{r4, lr}
 800172a:	4604      	mov	r4, r0
 800172c:	b908      	cbnz	r0, 8001732 <HAL_CRC_Init+0xa>
 800172e:	2001      	movs	r0, #1
 8001730:	bd10      	pop	{r4, pc}
 8001732:	7f43      	ldrb	r3, [r0, #29]
 8001734:	f003 02ff 	and.w	r2, r3, #255	; 0xff
 8001738:	b913      	cbnz	r3, 8001740 <HAL_CRC_Init+0x18>
 800173a:	7702      	strb	r2, [r0, #28]
 800173c:	f7ff fe0c 	bl	8001358 <HAL_CRC_MspInit>
 8001740:	2302      	movs	r3, #2
 8001742:	7763      	strb	r3, [r4, #29]
 8001744:	7923      	ldrb	r3, [r4, #4]
 8001746:	b9e3      	cbnz	r3, 8001782 <HAL_CRC_Init+0x5a>
 8001748:	6823      	ldr	r3, [r4, #0]
 800174a:	4a13      	ldr	r2, [pc, #76]	; (8001798 <HAL_CRC_Init+0x70>)
 800174c:	615a      	str	r2, [r3, #20]
 800174e:	689a      	ldr	r2, [r3, #8]
 8001750:	f022 0218 	bic.w	r2, r2, #24
 8001754:	609a      	str	r2, [r3, #8]
 8001756:	7962      	ldrb	r2, [r4, #5]
 8001758:	6823      	ldr	r3, [r4, #0]
 800175a:	b9d2      	cbnz	r2, 8001792 <HAL_CRC_Init+0x6a>
 800175c:	f04f 32ff 	mov.w	r2, #4294967295
 8001760:	611a      	str	r2, [r3, #16]
 8001762:	689a      	ldr	r2, [r3, #8]
 8001764:	6961      	ldr	r1, [r4, #20]
 8001766:	f022 0260 	bic.w	r2, r2, #96	; 0x60
 800176a:	430a      	orrs	r2, r1
 800176c:	609a      	str	r2, [r3, #8]
 800176e:	689a      	ldr	r2, [r3, #8]
 8001770:	69a1      	ldr	r1, [r4, #24]
 8001772:	f022 0280 	bic.w	r2, r2, #128	; 0x80
 8001776:	430a      	orrs	r2, r1
 8001778:	609a      	str	r2, [r3, #8]
 800177a:	2301      	movs	r3, #1
 800177c:	7763      	strb	r3, [r4, #29]
 800177e:	2000      	movs	r0, #0
 8001780:	e7d6      	b.n	8001730 <HAL_CRC_Init+0x8>
 8001782:	e9d4 1202 	ldrd	r1, r2, [r4, #8]
 8001786:	4620      	mov	r0, r4
 8001788:	f000 f808 	bl	800179c <HAL_CRCEx_Polynomial_Set>
 800178c:	2800      	cmp	r0, #0
 800178e:	d0e2      	beq.n	8001756 <HAL_CRC_Init+0x2e>
 8001790:	e7cd      	b.n	800172e <HAL_CRC_Init+0x6>
 8001792:	6922      	ldr	r2, [r4, #16]
 8001794:	e7e4      	b.n	8001760 <HAL_CRC_Init+0x38>
 8001796:	bf00      	nop
 8001798:	04c11db7 	.word	0x04c11db7

0800179c <HAL_CRCEx_Polynomial_Set>:
 800179c:	b510      	push	{r4, lr}
 800179e:	231f      	movs	r3, #31
 80017a0:	3b01      	subs	r3, #1
 80017a2:	d306      	bcc.n	80017b2 <HAL_CRCEx_Polynomial_Set+0x16>
 80017a4:	fa21 f403 	lsr.w	r4, r1, r3
 80017a8:	07e4      	lsls	r4, r4, #31
 80017aa:	d5f9      	bpl.n	80017a0 <HAL_CRCEx_Polynomial_Set+0x4>
 80017ac:	2a08      	cmp	r2, #8
 80017ae:	d014      	beq.n	80017da <HAL_CRCEx_Polynomial_Set+0x3e>
 80017b0:	d802      	bhi.n	80017b8 <HAL_CRCEx_Polynomial_Set+0x1c>
 80017b2:	b13a      	cbz	r2, 80017c4 <HAL_CRCEx_Polynomial_Set+0x28>
 80017b4:	2001      	movs	r0, #1
 80017b6:	e00d      	b.n	80017d4 <HAL_CRCEx_Polynomial_Set+0x38>
 80017b8:	2a10      	cmp	r2, #16
 80017ba:	d00c      	beq.n	80017d6 <HAL_CRCEx_Polynomial_Set+0x3a>
 80017bc:	2a18      	cmp	r2, #24
 80017be:	d1f9      	bne.n	80017b4 <HAL_CRCEx_Polynomial_Set+0x18>
 80017c0:	2b06      	cmp	r3, #6
 80017c2:	d8f7      	bhi.n	80017b4 <HAL_CRCEx_Polynomial_Set+0x18>
 80017c4:	6800      	ldr	r0, [r0, #0]
 80017c6:	6141      	str	r1, [r0, #20]
 80017c8:	6883      	ldr	r3, [r0, #8]
 80017ca:	f023 0318 	bic.w	r3, r3, #24
 80017ce:	431a      	orrs	r2, r3
 80017d0:	6082      	str	r2, [r0, #8]
 80017d2:	2000      	movs	r0, #0
 80017d4:	bd10      	pop	{r4, pc}
 80017d6:	2b07      	cmp	r3, #7
 80017d8:	e7f3      	b.n	80017c2 <HAL_CRCEx_Polynomial_Set+0x26>
 80017da:	2b0f      	cmp	r3, #15
 80017dc:	e7f1      	b.n	80017c2 <HAL_CRCEx_Polynomial_Set+0x26>
	...

080017e0 <HAL_GPIO_Init>:
 80017e0:	e92d 4ff7 	stmdb	sp!, {r0, r1, r2, r4, r5, r6, r7, r8, r9, sl, fp, lr}
 80017e4:	f8df 81a4 	ldr.w	r8, [pc, #420]	; 800198c <HAL_GPIO_Init+0x1ac>
 80017e8:	4c66      	ldr	r4, [pc, #408]	; (8001984 <HAL_GPIO_Init+0x1a4>)
 80017ea:	f8df 91a4 	ldr.w	r9, [pc, #420]	; 8001990 <HAL_GPIO_Init+0x1b0>
 80017ee:	2300      	movs	r3, #0
 80017f0:	680a      	ldr	r2, [r1, #0]
 80017f2:	fa32 f503 	lsrs.w	r5, r2, r3
 80017f6:	d102      	bne.n	80017fe <HAL_GPIO_Init+0x1e>
 80017f8:	b003      	add	sp, #12
 80017fa:	e8bd 8ff0 	ldmia.w	sp!, {r4, r5, r6, r7, r8, r9, sl, fp, pc}
 80017fe:	f04f 0c01 	mov.w	ip, #1
 8001802:	fa0c fc03 	lsl.w	ip, ip, r3
 8001806:	ea1c 0202 	ands.w	r2, ip, r2
 800180a:	f000 80ab 	beq.w	8001964 <HAL_GPIO_Init+0x184>
 800180e:	684d      	ldr	r5, [r1, #4]
 8001810:	f025 0a10 	bic.w	sl, r5, #16
 8001814:	ea4f 0e43 	mov.w	lr, r3, lsl #1
 8001818:	2603      	movs	r6, #3
 800181a:	f10a 37ff 	add.w	r7, sl, #4294967295
 800181e:	fa06 f60e 	lsl.w	r6, r6, lr
 8001822:	2f01      	cmp	r7, #1
 8001824:	ea6f 0606 	mvn.w	r6, r6
 8001828:	d811      	bhi.n	800184e <HAL_GPIO_Init+0x6e>
 800182a:	6887      	ldr	r7, [r0, #8]
 800182c:	ea07 0b06 	and.w	fp, r7, r6
 8001830:	68cf      	ldr	r7, [r1, #12]
 8001832:	fa07 f70e 	lsl.w	r7, r7, lr
 8001836:	ea47 070b 	orr.w	r7, r7, fp
 800183a:	6087      	str	r7, [r0, #8]
 800183c:	6847      	ldr	r7, [r0, #4]
 800183e:	ea27 0c0c 	bic.w	ip, r7, ip
 8001842:	f3c5 1700 	ubfx	r7, r5, #4, #1
 8001846:	409f      	lsls	r7, r3
 8001848:	ea47 070c 	orr.w	r7, r7, ip
 800184c:	6047      	str	r7, [r0, #4]
 800184e:	68c7      	ldr	r7, [r0, #12]
 8001850:	ea07 0c06 	and.w	ip, r7, r6
 8001854:	688f      	ldr	r7, [r1, #8]
 8001856:	fa07 f70e 	lsl.w	r7, r7, lr
 800185a:	ea47 070c 	orr.w	r7, r7, ip
 800185e:	f1ba 0f02 	cmp.w	sl, #2
 8001862:	60c7      	str	r7, [r0, #12]
 8001864:	d116      	bne.n	8001894 <HAL_GPIO_Init+0xb4>
 8001866:	ea4f 0ad3 	mov.w	sl, r3, lsr #3
 800186a:	eb00 0a8a 	add.w	sl, r0, sl, lsl #2
 800186e:	f003 0b07 	and.w	fp, r3, #7
 8001872:	f8da 7020 	ldr.w	r7, [sl, #32]
 8001876:	ea4f 0b8b 	mov.w	fp, fp, lsl #2
 800187a:	f04f 0c0f 	mov.w	ip, #15
 800187e:	fa0c fc0b 	lsl.w	ip, ip, fp
 8001882:	ea27 0c0c 	bic.w	ip, r7, ip
 8001886:	690f      	ldr	r7, [r1, #16]
 8001888:	fa07 f70b 	lsl.w	r7, r7, fp
 800188c:	ea47 070c 	orr.w	r7, r7, ip
 8001890:	f8ca 7020 	str.w	r7, [sl, #32]
 8001894:	6807      	ldr	r7, [r0, #0]
 8001896:	403e      	ands	r6, r7
 8001898:	f005 0703 	and.w	r7, r5, #3
 800189c:	fa07 fe0e 	lsl.w	lr, r7, lr
 80018a0:	ea4e 0606 	orr.w	r6, lr, r6
 80018a4:	6006      	str	r6, [r0, #0]
 80018a6:	00ee      	lsls	r6, r5, #3
 80018a8:	d55c      	bpl.n	8001964 <HAL_GPIO_Init+0x184>
 80018aa:	f8d8 6060 	ldr.w	r6, [r8, #96]	; 0x60
 80018ae:	f046 0601 	orr.w	r6, r6, #1
 80018b2:	f8c8 6060 	str.w	r6, [r8, #96]	; 0x60
 80018b6:	f8d8 6060 	ldr.w	r6, [r8, #96]	; 0x60
 80018ba:	f023 0703 	bic.w	r7, r3, #3
 80018be:	f107 4780 	add.w	r7, r7, #1073741824	; 0x40000000
 80018c2:	f006 0601 	and.w	r6, r6, #1
 80018c6:	f507 3780 	add.w	r7, r7, #65536	; 0x10000
 80018ca:	9601      	str	r6, [sp, #4]
 80018cc:	f003 0c03 	and.w	ip, r3, #3
 80018d0:	9e01      	ldr	r6, [sp, #4]
 80018d2:	f8d7 a008 	ldr.w	sl, [r7, #8]
 80018d6:	f04f 0e0f 	mov.w	lr, #15
 80018da:	ea4f 0c8c 	mov.w	ip, ip, lsl #2
 80018de:	fa0e f60c 	lsl.w	r6, lr, ip
 80018e2:	f1b0 4f90 	cmp.w	r0, #1207959552	; 0x48000000
 80018e6:	ea2a 0e06 	bic.w	lr, sl, r6
 80018ea:	d03d      	beq.n	8001968 <HAL_GPIO_Init+0x188>
 80018ec:	4e26      	ldr	r6, [pc, #152]	; (8001988 <HAL_GPIO_Init+0x1a8>)
 80018ee:	42b0      	cmp	r0, r6
 80018f0:	d03c      	beq.n	800196c <HAL_GPIO_Init+0x18c>
 80018f2:	f506 6680 	add.w	r6, r6, #1024	; 0x400
 80018f6:	42b0      	cmp	r0, r6
 80018f8:	d03a      	beq.n	8001970 <HAL_GPIO_Init+0x190>
 80018fa:	f506 6680 	add.w	r6, r6, #1024	; 0x400
 80018fe:	42b0      	cmp	r0, r6
 8001900:	d038      	beq.n	8001974 <HAL_GPIO_Init+0x194>
 8001902:	f506 6680 	add.w	r6, r6, #1024	; 0x400
 8001906:	42b0      	cmp	r0, r6
 8001908:	d036      	beq.n	8001978 <HAL_GPIO_Init+0x198>
 800190a:	f506 6680 	add.w	r6, r6, #1024	; 0x400
 800190e:	42b0      	cmp	r0, r6
 8001910:	d034      	beq.n	800197c <HAL_GPIO_Init+0x19c>
 8001912:	4548      	cmp	r0, r9
 8001914:	d034      	beq.n	8001980 <HAL_GPIO_Init+0x1a0>
 8001916:	f506 6600 	add.w	r6, r6, #2048	; 0x800
 800191a:	42b0      	cmp	r0, r6
 800191c:	bf0c      	ite	eq
 800191e:	2607      	moveq	r6, #7
 8001920:	2608      	movne	r6, #8
 8001922:	fa06 f60c 	lsl.w	r6, r6, ip
 8001926:	ea46 060e 	orr.w	r6, r6, lr
 800192a:	60be      	str	r6, [r7, #8]
 800192c:	6826      	ldr	r6, [r4, #0]
 800192e:	43d7      	mvns	r7, r2
 8001930:	f415 3f80 	tst.w	r5, #65536	; 0x10000
 8001934:	bf0c      	ite	eq
 8001936:	403e      	andeq	r6, r7
 8001938:	4316      	orrne	r6, r2
 800193a:	6026      	str	r6, [r4, #0]
 800193c:	6866      	ldr	r6, [r4, #4]
 800193e:	f415 3f00 	tst.w	r5, #131072	; 0x20000
 8001942:	bf0c      	ite	eq
 8001944:	403e      	andeq	r6, r7
 8001946:	4316      	orrne	r6, r2
 8001948:	6066      	str	r6, [r4, #4]
 800194a:	68a6      	ldr	r6, [r4, #8]
 800194c:	f415 1f80 	tst.w	r5, #1048576	; 0x100000
 8001950:	bf0c      	ite	eq
 8001952:	403e      	andeq	r6, r7
 8001954:	4316      	orrne	r6, r2
 8001956:	60a6      	str	r6, [r4, #8]
 8001958:	68e6      	ldr	r6, [r4, #12]
 800195a:	02ad      	lsls	r5, r5, #10
 800195c:	bf54      	ite	pl
 800195e:	403e      	andpl	r6, r7
 8001960:	4316      	orrmi	r6, r2
 8001962:	60e6      	str	r6, [r4, #12]
 8001964:	3301      	adds	r3, #1
 8001966:	e743      	b.n	80017f0 <HAL_GPIO_Init+0x10>
 8001968:	2600      	movs	r6, #0
 800196a:	e7da      	b.n	8001922 <HAL_GPIO_Init+0x142>
 800196c:	2601      	movs	r6, #1
 800196e:	e7d8      	b.n	8001922 <HAL_GPIO_Init+0x142>
 8001970:	2602      	movs	r6, #2
 8001972:	e7d6      	b.n	8001922 <HAL_GPIO_Init+0x142>
 8001974:	2603      	movs	r6, #3
 8001976:	e7d4      	b.n	8001922 <HAL_GPIO_Init+0x142>
 8001978:	2604      	movs	r6, #4
 800197a:	e7d2      	b.n	8001922 <HAL_GPIO_Init+0x142>
 800197c:	2605      	movs	r6, #5
 800197e:	e7d0      	b.n	8001922 <HAL_GPIO_Init+0x142>
 8001980:	2606      	movs	r6, #6
 8001982:	e7ce      	b.n	8001922 <HAL_GPIO_Init+0x142>
 8001984:	40010400 	.word	0x40010400
 8001988:	48000400 	.word	0x48000400
 800198c:	40021000 	.word	0x40021000
 8001990:	48001800 	.word	0x48001800

08001994 <HAL_GPIO_WritePin>:
 8001994:	b10a      	cbz	r2, 800199a <HAL_GPIO_WritePin+0x6>
 8001996:	6181      	str	r1, [r0, #24]
 8001998:	4770      	bx	lr
 800199a:	6281      	str	r1, [r0, #40]	; 0x28
 800199c:	4770      	bx	lr

0800199e <HAL_GPIO_TogglePin>:
 800199e:	6943      	ldr	r3, [r0, #20]
 80019a0:	ea01 0203 	and.w	r2, r1, r3
 80019a4:	ea21 0103 	bic.w	r1, r1, r3
 80019a8:	ea41 4102 	orr.w	r1, r1, r2, lsl #16
 80019ac:	6181      	str	r1, [r0, #24]
 80019ae:	4770      	bx	lr

080019b0 <HAL_PWREx_GetVoltageRange>:
 80019b0:	4b07      	ldr	r3, [pc, #28]	; (80019d0 <HAL_PWREx_GetVoltageRange+0x20>)
 80019b2:	6818      	ldr	r0, [r3, #0]
 80019b4:	f400 60c0 	and.w	r0, r0, #1536	; 0x600
 80019b8:	f5b0 6f80 	cmp.w	r0, #1024	; 0x400
 80019bc:	d006      	beq.n	80019cc <HAL_PWREx_GetVoltageRange+0x1c>
 80019be:	f8d3 0080 	ldr.w	r0, [r3, #128]	; 0x80
 80019c2:	f410 7080 	ands.w	r0, r0, #256	; 0x100
 80019c6:	bf18      	it	ne
 80019c8:	f44f 7000 	movne.w	r0, #512	; 0x200
 80019cc:	4770      	bx	lr
 80019ce:	bf00      	nop
 80019d0:	40007000 	.word	0x40007000

080019d4 <HAL_PWREx_ControlVoltageScaling>:
 80019d4:	4b2a      	ldr	r3, [pc, #168]	; (8001a80 <HAL_PWREx_ControlVoltageScaling+0xac>)
 80019d6:	681a      	ldr	r2, [r3, #0]
 80019d8:	bb38      	cbnz	r0, 8001a2a <HAL_PWREx_ControlVoltageScaling+0x56>
 80019da:	f402 62c0 	and.w	r2, r2, #1536	; 0x600
 80019de:	f5b2 6f80 	cmp.w	r2, #1024	; 0x400
 80019e2:	f8d3 2080 	ldr.w	r2, [r3, #128]	; 0x80
 80019e6:	f422 7280 	bic.w	r2, r2, #256	; 0x100
 80019ea:	f8c3 2080 	str.w	r2, [r3, #128]	; 0x80
 80019ee:	d11b      	bne.n	8001a28 <HAL_PWREx_ControlVoltageScaling+0x54>
 80019f0:	681a      	ldr	r2, [r3, #0]
 80019f2:	f422 62c0 	bic.w	r2, r2, #1536	; 0x600
 80019f6:	f442 7200 	orr.w	r2, r2, #512	; 0x200
 80019fa:	601a      	str	r2, [r3, #0]
 80019fc:	4a21      	ldr	r2, [pc, #132]	; (8001a84 <HAL_PWREx_ControlVoltageScaling+0xb0>)
 80019fe:	6811      	ldr	r1, [r2, #0]
 8001a00:	2232      	movs	r2, #50	; 0x32
 8001a02:	434a      	muls	r2, r1
 8001a04:	4920      	ldr	r1, [pc, #128]	; (8001a88 <HAL_PWREx_ControlVoltageScaling+0xb4>)
 8001a06:	fbb2 f2f1 	udiv	r2, r2, r1
 8001a0a:	4619      	mov	r1, r3
 8001a0c:	3201      	adds	r2, #1
 8001a0e:	6958      	ldr	r0, [r3, #20]
 8001a10:	0540      	lsls	r0, r0, #21
 8001a12:	d500      	bpl.n	8001a16 <HAL_PWREx_ControlVoltageScaling+0x42>
 8001a14:	b922      	cbnz	r2, 8001a20 <HAL_PWREx_ControlVoltageScaling+0x4c>
 8001a16:	694b      	ldr	r3, [r1, #20]
 8001a18:	055b      	lsls	r3, r3, #21
 8001a1a:	d403      	bmi.n	8001a24 <HAL_PWREx_ControlVoltageScaling+0x50>
 8001a1c:	2000      	movs	r0, #0
 8001a1e:	4770      	bx	lr
 8001a20:	3a01      	subs	r2, #1
 8001a22:	e7f4      	b.n	8001a0e <HAL_PWREx_ControlVoltageScaling+0x3a>
 8001a24:	2003      	movs	r0, #3
 8001a26:	4770      	bx	lr
 8001a28:	4770      	bx	lr
 8001a2a:	f5b0 7f00 	cmp.w	r0, #512	; 0x200
 8001a2e:	d120      	bne.n	8001a72 <HAL_PWREx_ControlVoltageScaling+0x9e>
 8001a30:	f402 62c0 	and.w	r2, r2, #1536	; 0x600
 8001a34:	f5b2 6f80 	cmp.w	r2, #1024	; 0x400
 8001a38:	f8d3 2080 	ldr.w	r2, [r3, #128]	; 0x80
 8001a3c:	f442 7280 	orr.w	r2, r2, #256	; 0x100
 8001a40:	f8c3 2080 	str.w	r2, [r3, #128]	; 0x80
 8001a44:	d1ea      	bne.n	8001a1c <HAL_PWREx_ControlVoltageScaling+0x48>
 8001a46:	681a      	ldr	r2, [r3, #0]
 8001a48:	f422 62c0 	bic.w	r2, r2, #1536	; 0x600
 8001a4c:	f442 7200 	orr.w	r2, r2, #512	; 0x200
 8001a50:	601a      	str	r2, [r3, #0]
 8001a52:	4a0c      	ldr	r2, [pc, #48]	; (8001a84 <HAL_PWREx_ControlVoltageScaling+0xb0>)
 8001a54:	6811      	ldr	r1, [r2, #0]
 8001a56:	2232      	movs	r2, #50	; 0x32
 8001a58:	434a      	muls	r2, r1
 8001a5a:	490b      	ldr	r1, [pc, #44]	; (8001a88 <HAL_PWREx_ControlVoltageScaling+0xb4>)
 8001a5c:	fbb2 f2f1 	udiv	r2, r2, r1
 8001a60:	4619      	mov	r1, r3
 8001a62:	3201      	adds	r2, #1
 8001a64:	6958      	ldr	r0, [r3, #20]
 8001a66:	0540      	lsls	r0, r0, #21
 8001a68:	d5d5      	bpl.n	8001a16 <HAL_PWREx_ControlVoltageScaling+0x42>
 8001a6a:	2a00      	cmp	r2, #0
 8001a6c:	d0d3      	beq.n	8001a16 <HAL_PWREx_ControlVoltageScaling+0x42>
 8001a6e:	3a01      	subs	r2, #1
 8001a70:	e7f8      	b.n	8001a64 <HAL_PWREx_ControlVoltageScaling+0x90>
 8001a72:	f422 62c0 	bic.w	r2, r2, #1536	; 0x600
 8001a76:	f442 6280 	orr.w	r2, r2, #1024	; 0x400
 8001a7a:	601a      	str	r2, [r3, #0]
 8001a7c:	e7ce      	b.n	8001a1c <HAL_PWREx_ControlVoltageScaling+0x48>
 8001a7e:	bf00      	nop
 8001a80:	40007000 	.word	0x40007000
 8001a84:	20000000 	.word	0x20000000
 8001a88:	000f4240 	.word	0x000f4240

08001a8c <HAL_PWREx_EnableVddIO2>:
 8001a8c:	4a02      	ldr	r2, [pc, #8]	; (8001a98 <HAL_PWREx_EnableVddIO2+0xc>)
 8001a8e:	6853      	ldr	r3, [r2, #4]
 8001a90:	f443 7300 	orr.w	r3, r3, #512	; 0x200
 8001a94:	6053      	str	r3, [r2, #4]
 8001a96:	4770      	bx	lr
 8001a98:	40007000 	.word	0x40007000

08001a9c <RCC_SetFlashLatencyFromMSIRange>:
 8001a9c:	b537      	push	{r0, r1, r2, r4, r5, lr}
 8001a9e:	4d1c      	ldr	r5, [pc, #112]	; (8001b10 <RCC_SetFlashLatencyFromMSIRange+0x74>)
 8001aa0:	6dab      	ldr	r3, [r5, #88]	; 0x58
 8001aa2:	00da      	lsls	r2, r3, #3
 8001aa4:	4604      	mov	r4, r0
 8001aa6:	d518      	bpl.n	8001ada <RCC_SetFlashLatencyFromMSIRange+0x3e>
 8001aa8:	f7ff ff82 	bl	80019b0 <HAL_PWREx_GetVoltageRange>
 8001aac:	f5b0 7f00 	cmp.w	r0, #512	; 0x200
 8001ab0:	d123      	bne.n	8001afa <RCC_SetFlashLatencyFromMSIRange+0x5e>
 8001ab2:	2c80      	cmp	r4, #128	; 0x80
 8001ab4:	d928      	bls.n	8001b08 <RCC_SetFlashLatencyFromMSIRange+0x6c>
 8001ab6:	2ca0      	cmp	r4, #160	; 0xa0
 8001ab8:	bf8c      	ite	hi
 8001aba:	2402      	movhi	r4, #2
 8001abc:	2401      	movls	r4, #1
 8001abe:	4915      	ldr	r1, [pc, #84]	; (8001b14 <RCC_SetFlashLatencyFromMSIRange+0x78>)
 8001ac0:	680a      	ldr	r2, [r1, #0]
 8001ac2:	f022 020f 	bic.w	r2, r2, #15
 8001ac6:	4322      	orrs	r2, r4
 8001ac8:	600a      	str	r2, [r1, #0]
 8001aca:	6808      	ldr	r0, [r1, #0]
 8001acc:	f000 000f 	and.w	r0, r0, #15
 8001ad0:	1b00      	subs	r0, r0, r4
 8001ad2:	bf18      	it	ne
 8001ad4:	2001      	movne	r0, #1
 8001ad6:	b003      	add	sp, #12
 8001ad8:	bd30      	pop	{r4, r5, pc}
 8001ada:	6dab      	ldr	r3, [r5, #88]	; 0x58
 8001adc:	f043 5380 	orr.w	r3, r3, #268435456	; 0x10000000
 8001ae0:	65ab      	str	r3, [r5, #88]	; 0x58
 8001ae2:	6dab      	ldr	r3, [r5, #88]	; 0x58
 8001ae4:	f003 5380 	and.w	r3, r3, #268435456	; 0x10000000
 8001ae8:	9301      	str	r3, [sp, #4]
 8001aea:	9b01      	ldr	r3, [sp, #4]
 8001aec:	f7ff ff60 	bl	80019b0 <HAL_PWREx_GetVoltageRange>
 8001af0:	6dab      	ldr	r3, [r5, #88]	; 0x58
 8001af2:	f023 5380 	bic.w	r3, r3, #268435456	; 0x10000000
 8001af6:	65ab      	str	r3, [r5, #88]	; 0x58
 8001af8:	e7d8      	b.n	8001aac <RCC_SetFlashLatencyFromMSIRange+0x10>
 8001afa:	2c7f      	cmp	r4, #127	; 0x7f
 8001afc:	d806      	bhi.n	8001b0c <RCC_SetFlashLatencyFromMSIRange+0x70>
 8001afe:	f1a4 0370 	sub.w	r3, r4, #112	; 0x70
 8001b02:	425c      	negs	r4, r3
 8001b04:	415c      	adcs	r4, r3
 8001b06:	e7da      	b.n	8001abe <RCC_SetFlashLatencyFromMSIRange+0x22>
 8001b08:	2400      	movs	r4, #0
 8001b0a:	e7d8      	b.n	8001abe <RCC_SetFlashLatencyFromMSIRange+0x22>
 8001b0c:	2402      	movs	r4, #2
 8001b0e:	e7d6      	b.n	8001abe <RCC_SetFlashLatencyFromMSIRange+0x22>
 8001b10:	40021000 	.word	0x40021000
 8001b14:	40022000 	.word	0x40022000

08001b18 <HAL_RCC_GetSysClockFreq>:
 8001b18:	4b22      	ldr	r3, [pc, #136]	; (8001ba4 <HAL_RCC_GetSysClockFreq+0x8c>)
 8001b1a:	689a      	ldr	r2, [r3, #8]
 8001b1c:	68d9      	ldr	r1, [r3, #12]
 8001b1e:	f012 020c 	ands.w	r2, r2, #12
 8001b22:	d005      	beq.n	8001b30 <HAL_RCC_GetSysClockFreq+0x18>
 8001b24:	2a0c      	cmp	r2, #12
 8001b26:	d115      	bne.n	8001b54 <HAL_RCC_GetSysClockFreq+0x3c>
 8001b28:	f001 0103 	and.w	r1, r1, #3
 8001b2c:	2901      	cmp	r1, #1
 8001b2e:	d118      	bne.n	8001b62 <HAL_RCC_GetSysClockFreq+0x4a>
 8001b30:	6819      	ldr	r1, [r3, #0]
 8001b32:	481d      	ldr	r0, [pc, #116]	; (8001ba8 <HAL_RCC_GetSysClockFreq+0x90>)
 8001b34:	0709      	lsls	r1, r1, #28
 8001b36:	bf55      	itete	pl
 8001b38:	f8d3 1094 	ldrpl.w	r1, [r3, #148]	; 0x94
 8001b3c:	6819      	ldrmi	r1, [r3, #0]
 8001b3e:	f3c1 2103 	ubfxpl	r1, r1, #8, #4
 8001b42:	f3c1 1103 	ubfxmi	r1, r1, #4, #4
 8001b46:	f850 0021 	ldr.w	r0, [r0, r1, lsl #2]
 8001b4a:	b34a      	cbz	r2, 8001ba0 <HAL_RCC_GetSysClockFreq+0x88>
 8001b4c:	2a0c      	cmp	r2, #12
 8001b4e:	d009      	beq.n	8001b64 <HAL_RCC_GetSysClockFreq+0x4c>
 8001b50:	2000      	movs	r0, #0
 8001b52:	4770      	bx	lr
 8001b54:	2a04      	cmp	r2, #4
 8001b56:	d022      	beq.n	8001b9e <HAL_RCC_GetSysClockFreq+0x86>
 8001b58:	2a08      	cmp	r2, #8
 8001b5a:	4814      	ldr	r0, [pc, #80]	; (8001bac <HAL_RCC_GetSysClockFreq+0x94>)
 8001b5c:	bf18      	it	ne
 8001b5e:	2000      	movne	r0, #0
 8001b60:	4770      	bx	lr
 8001b62:	2000      	movs	r0, #0
 8001b64:	68da      	ldr	r2, [r3, #12]
 8001b66:	f002 0203 	and.w	r2, r2, #3
 8001b6a:	2a02      	cmp	r2, #2
 8001b6c:	d015      	beq.n	8001b9a <HAL_RCC_GetSysClockFreq+0x82>
 8001b6e:	490f      	ldr	r1, [pc, #60]	; (8001bac <HAL_RCC_GetSysClockFreq+0x94>)
 8001b70:	2a03      	cmp	r2, #3
 8001b72:	bf08      	it	eq
 8001b74:	4608      	moveq	r0, r1
 8001b76:	68da      	ldr	r2, [r3, #12]
 8001b78:	68d9      	ldr	r1, [r3, #12]
 8001b7a:	68db      	ldr	r3, [r3, #12]
 8001b7c:	f3c3 6341 	ubfx	r3, r3, #25, #2
 8001b80:	f3c1 2106 	ubfx	r1, r1, #8, #7
 8001b84:	f3c2 1203 	ubfx	r2, r2, #4, #4
 8001b88:	3301      	adds	r3, #1
 8001b8a:	4348      	muls	r0, r1
 8001b8c:	3201      	adds	r2, #1
 8001b8e:	005b      	lsls	r3, r3, #1
 8001b90:	fbb0 f0f2 	udiv	r0, r0, r2
 8001b94:	fbb0 f0f3 	udiv	r0, r0, r3
 8001b98:	4770      	bx	lr
 8001b9a:	4805      	ldr	r0, [pc, #20]	; (8001bb0 <HAL_RCC_GetSysClockFreq+0x98>)
 8001b9c:	e7eb      	b.n	8001b76 <HAL_RCC_GetSysClockFreq+0x5e>
 8001b9e:	4804      	ldr	r0, [pc, #16]	; (8001bb0 <HAL_RCC_GetSysClockFreq+0x98>)
 8001ba0:	4770      	bx	lr
 8001ba2:	bf00      	nop
 8001ba4:	40021000 	.word	0x40021000
 8001ba8:	0800810c 	.word	0x0800810c
 8001bac:	007a1200 	.word	0x007a1200
 8001bb0:	00f42400 	.word	0x00f42400

08001bb4 <HAL_RCC_OscConfig>:
 8001bb4:	e92d 43f7 	stmdb	sp!, {r0, r1, r2, r4, r5, r6, r7, r8, r9, lr}
 8001bb8:	4605      	mov	r5, r0
 8001bba:	b908      	cbnz	r0, 8001bc0 <HAL_RCC_OscConfig+0xc>
 8001bbc:	2001      	movs	r0, #1
 8001bbe:	e047      	b.n	8001c50 <HAL_RCC_OscConfig+0x9c>
 8001bc0:	4c9f      	ldr	r4, [pc, #636]	; (8001e40 <HAL_RCC_OscConfig+0x28c>)
 8001bc2:	6803      	ldr	r3, [r0, #0]
 8001bc4:	68a6      	ldr	r6, [r4, #8]
 8001bc6:	68e7      	ldr	r7, [r4, #12]
 8001bc8:	06db      	lsls	r3, r3, #27
 8001bca:	f006 060c 	and.w	r6, r6, #12
 8001bce:	f007 0703 	and.w	r7, r7, #3
 8001bd2:	d575      	bpl.n	8001cc0 <HAL_RCC_OscConfig+0x10c>
 8001bd4:	b11e      	cbz	r6, 8001bde <HAL_RCC_OscConfig+0x2a>
 8001bd6:	2e0c      	cmp	r6, #12
 8001bd8:	d154      	bne.n	8001c84 <HAL_RCC_OscConfig+0xd0>
 8001bda:	2f01      	cmp	r7, #1
 8001bdc:	d152      	bne.n	8001c84 <HAL_RCC_OscConfig+0xd0>
 8001bde:	6823      	ldr	r3, [r4, #0]
 8001be0:	0798      	lsls	r0, r3, #30
 8001be2:	d502      	bpl.n	8001bea <HAL_RCC_OscConfig+0x36>
 8001be4:	69ab      	ldr	r3, [r5, #24]
 8001be6:	2b00      	cmp	r3, #0
 8001be8:	d0e8      	beq.n	8001bbc <HAL_RCC_OscConfig+0x8>
 8001bea:	6823      	ldr	r3, [r4, #0]
 8001bec:	6a28      	ldr	r0, [r5, #32]
 8001bee:	0719      	lsls	r1, r3, #28
 8001bf0:	bf56      	itet	pl
 8001bf2:	f8d4 3094 	ldrpl.w	r3, [r4, #148]	; 0x94
 8001bf6:	6823      	ldrmi	r3, [r4, #0]
 8001bf8:	091b      	lsrpl	r3, r3, #4
 8001bfa:	f003 03f0 	and.w	r3, r3, #240	; 0xf0
 8001bfe:	4298      	cmp	r0, r3
 8001c00:	d929      	bls.n	8001c56 <HAL_RCC_OscConfig+0xa2>
 8001c02:	f7ff ff4b 	bl	8001a9c <RCC_SetFlashLatencyFromMSIRange>
 8001c06:	2800      	cmp	r0, #0
 8001c08:	d1d8      	bne.n	8001bbc <HAL_RCC_OscConfig+0x8>
 8001c0a:	6823      	ldr	r3, [r4, #0]
 8001c0c:	f043 0308 	orr.w	r3, r3, #8
 8001c10:	6023      	str	r3, [r4, #0]
 8001c12:	6823      	ldr	r3, [r4, #0]
 8001c14:	6a2a      	ldr	r2, [r5, #32]
 8001c16:	f023 03f0 	bic.w	r3, r3, #240	; 0xf0
 8001c1a:	4313      	orrs	r3, r2
 8001c1c:	6023      	str	r3, [r4, #0]
 8001c1e:	6863      	ldr	r3, [r4, #4]
 8001c20:	69ea      	ldr	r2, [r5, #28]
 8001c22:	f423 437f 	bic.w	r3, r3, #65280	; 0xff00
 8001c26:	ea43 2302 	orr.w	r3, r3, r2, lsl #8
 8001c2a:	6063      	str	r3, [r4, #4]
 8001c2c:	f7ff ff74 	bl	8001b18 <HAL_RCC_GetSysClockFreq>
 8001c30:	68a3      	ldr	r3, [r4, #8]
 8001c32:	4a84      	ldr	r2, [pc, #528]	; (8001e44 <HAL_RCC_OscConfig+0x290>)
 8001c34:	f3c3 1303 	ubfx	r3, r3, #4, #4
 8001c38:	5cd3      	ldrb	r3, [r2, r3]
 8001c3a:	f003 031f 	and.w	r3, r3, #31
 8001c3e:	40d8      	lsrs	r0, r3
 8001c40:	4b81      	ldr	r3, [pc, #516]	; (8001e48 <HAL_RCC_OscConfig+0x294>)
 8001c42:	6018      	str	r0, [r3, #0]
 8001c44:	4b81      	ldr	r3, [pc, #516]	; (8001e4c <HAL_RCC_OscConfig+0x298>)
 8001c46:	6818      	ldr	r0, [r3, #0]
 8001c48:	f7ff fcb8 	bl	80015bc <HAL_InitTick>
 8001c4c:	2800      	cmp	r0, #0
 8001c4e:	d037      	beq.n	8001cc0 <HAL_RCC_OscConfig+0x10c>
 8001c50:	b003      	add	sp, #12
 8001c52:	e8bd 83f0 	ldmia.w	sp!, {r4, r5, r6, r7, r8, r9, pc}
 8001c56:	6823      	ldr	r3, [r4, #0]
 8001c58:	f043 0308 	orr.w	r3, r3, #8
 8001c5c:	6023      	str	r3, [r4, #0]
 8001c5e:	6823      	ldr	r3, [r4, #0]
 8001c60:	f023 03f0 	bic.w	r3, r3, #240	; 0xf0
 8001c64:	4303      	orrs	r3, r0
 8001c66:	6023      	str	r3, [r4, #0]
 8001c68:	6863      	ldr	r3, [r4, #4]
 8001c6a:	69ea      	ldr	r2, [r5, #28]
 8001c6c:	f423 437f 	bic.w	r3, r3, #65280	; 0xff00
 8001c70:	ea43 2302 	orr.w	r3, r3, r2, lsl #8
 8001c74:	6063      	str	r3, [r4, #4]
 8001c76:	2e00      	cmp	r6, #0
 8001c78:	d1d8      	bne.n	8001c2c <HAL_RCC_OscConfig+0x78>
 8001c7a:	f7ff ff0f 	bl	8001a9c <RCC_SetFlashLatencyFromMSIRange>
 8001c7e:	2800      	cmp	r0, #0
 8001c80:	d0d4      	beq.n	8001c2c <HAL_RCC_OscConfig+0x78>
 8001c82:	e79b      	b.n	8001bbc <HAL_RCC_OscConfig+0x8>
 8001c84:	69ab      	ldr	r3, [r5, #24]
 8001c86:	2b00      	cmp	r3, #0
 8001c88:	d03a      	beq.n	8001d00 <HAL_RCC_OscConfig+0x14c>
 8001c8a:	6823      	ldr	r3, [r4, #0]
 8001c8c:	f043 0301 	orr.w	r3, r3, #1
 8001c90:	6023      	str	r3, [r4, #0]
 8001c92:	f7ff fcd5 	bl	8001640 <HAL_GetTick>
 8001c96:	4680      	mov	r8, r0
 8001c98:	6823      	ldr	r3, [r4, #0]
 8001c9a:	079a      	lsls	r2, r3, #30
 8001c9c:	d528      	bpl.n	8001cf0 <HAL_RCC_OscConfig+0x13c>
 8001c9e:	6823      	ldr	r3, [r4, #0]
 8001ca0:	f043 0308 	orr.w	r3, r3, #8
 8001ca4:	6023      	str	r3, [r4, #0]
 8001ca6:	6823      	ldr	r3, [r4, #0]
 8001ca8:	6a2a      	ldr	r2, [r5, #32]
 8001caa:	f023 03f0 	bic.w	r3, r3, #240	; 0xf0
 8001cae:	4313      	orrs	r3, r2
 8001cb0:	6023      	str	r3, [r4, #0]
 8001cb2:	6863      	ldr	r3, [r4, #4]
 8001cb4:	69ea      	ldr	r2, [r5, #28]
 8001cb6:	f423 437f 	bic.w	r3, r3, #65280	; 0xff00
 8001cba:	ea43 2302 	orr.w	r3, r3, r2, lsl #8
 8001cbe:	6063      	str	r3, [r4, #4]
 8001cc0:	682b      	ldr	r3, [r5, #0]
 8001cc2:	07d8      	lsls	r0, r3, #31
 8001cc4:	d42d      	bmi.n	8001d22 <HAL_RCC_OscConfig+0x16e>
 8001cc6:	682b      	ldr	r3, [r5, #0]
 8001cc8:	0799      	lsls	r1, r3, #30
 8001cca:	d46b      	bmi.n	8001da4 <HAL_RCC_OscConfig+0x1f0>
 8001ccc:	682b      	ldr	r3, [r5, #0]
 8001cce:	0718      	lsls	r0, r3, #28
 8001cd0:	f100 80a0 	bmi.w	8001e14 <HAL_RCC_OscConfig+0x260>
 8001cd4:	682b      	ldr	r3, [r5, #0]
 8001cd6:	0759      	lsls	r1, r3, #29
 8001cd8:	f100 80ce 	bmi.w	8001e78 <HAL_RCC_OscConfig+0x2c4>
 8001cdc:	682b      	ldr	r3, [r5, #0]
 8001cde:	069f      	lsls	r7, r3, #26
 8001ce0:	f100 8137 	bmi.w	8001f52 <HAL_RCC_OscConfig+0x39e>
 8001ce4:	6aab      	ldr	r3, [r5, #40]	; 0x28
 8001ce6:	2b00      	cmp	r3, #0
 8001ce8:	f040 815d 	bne.w	8001fa6 <HAL_RCC_OscConfig+0x3f2>
 8001cec:	2000      	movs	r0, #0
 8001cee:	e7af      	b.n	8001c50 <HAL_RCC_OscConfig+0x9c>
 8001cf0:	f7ff fca6 	bl	8001640 <HAL_GetTick>
 8001cf4:	eba0 0008 	sub.w	r0, r0, r8
 8001cf8:	2802      	cmp	r0, #2
 8001cfa:	d9cd      	bls.n	8001c98 <HAL_RCC_OscConfig+0xe4>
 8001cfc:	2003      	movs	r0, #3
 8001cfe:	e7a7      	b.n	8001c50 <HAL_RCC_OscConfig+0x9c>
 8001d00:	6823      	ldr	r3, [r4, #0]
 8001d02:	f023 0301 	bic.w	r3, r3, #1
 8001d06:	6023      	str	r3, [r4, #0]
 8001d08:	f7ff fc9a 	bl	8001640 <HAL_GetTick>
 8001d0c:	4680      	mov	r8, r0
 8001d0e:	6823      	ldr	r3, [r4, #0]
 8001d10:	079b      	lsls	r3, r3, #30
 8001d12:	d5d5      	bpl.n	8001cc0 <HAL_RCC_OscConfig+0x10c>
 8001d14:	f7ff fc94 	bl	8001640 <HAL_GetTick>
 8001d18:	eba0 0008 	sub.w	r0, r0, r8
 8001d1c:	2802      	cmp	r0, #2
 8001d1e:	d9f6      	bls.n	8001d0e <HAL_RCC_OscConfig+0x15a>
 8001d20:	e7ec      	b.n	8001cfc <HAL_RCC_OscConfig+0x148>
 8001d22:	2e08      	cmp	r6, #8
 8001d24:	d003      	beq.n	8001d2e <HAL_RCC_OscConfig+0x17a>
 8001d26:	2e0c      	cmp	r6, #12
 8001d28:	d108      	bne.n	8001d3c <HAL_RCC_OscConfig+0x188>
 8001d2a:	2f03      	cmp	r7, #3
 8001d2c:	d106      	bne.n	8001d3c <HAL_RCC_OscConfig+0x188>
 8001d2e:	6823      	ldr	r3, [r4, #0]
 8001d30:	039a      	lsls	r2, r3, #14
 8001d32:	d5c8      	bpl.n	8001cc6 <HAL_RCC_OscConfig+0x112>
 8001d34:	686b      	ldr	r3, [r5, #4]
 8001d36:	2b00      	cmp	r3, #0
 8001d38:	d1c5      	bne.n	8001cc6 <HAL_RCC_OscConfig+0x112>
 8001d3a:	e73f      	b.n	8001bbc <HAL_RCC_OscConfig+0x8>
 8001d3c:	686b      	ldr	r3, [r5, #4]
 8001d3e:	f5b3 3f80 	cmp.w	r3, #65536	; 0x10000
 8001d42:	d110      	bne.n	8001d66 <HAL_RCC_OscConfig+0x1b2>
 8001d44:	6823      	ldr	r3, [r4, #0]
 8001d46:	f443 3380 	orr.w	r3, r3, #65536	; 0x10000
 8001d4a:	6023      	str	r3, [r4, #0]
 8001d4c:	f7ff fc78 	bl	8001640 <HAL_GetTick>
 8001d50:	4680      	mov	r8, r0
 8001d52:	6823      	ldr	r3, [r4, #0]
 8001d54:	039b      	lsls	r3, r3, #14
 8001d56:	d4b6      	bmi.n	8001cc6 <HAL_RCC_OscConfig+0x112>
 8001d58:	f7ff fc72 	bl	8001640 <HAL_GetTick>
 8001d5c:	eba0 0008 	sub.w	r0, r0, r8
 8001d60:	2864      	cmp	r0, #100	; 0x64
 8001d62:	d9f6      	bls.n	8001d52 <HAL_RCC_OscConfig+0x19e>
 8001d64:	e7ca      	b.n	8001cfc <HAL_RCC_OscConfig+0x148>
 8001d66:	f5b3 2fa0 	cmp.w	r3, #327680	; 0x50000
 8001d6a:	d104      	bne.n	8001d76 <HAL_RCC_OscConfig+0x1c2>
 8001d6c:	6823      	ldr	r3, [r4, #0]
 8001d6e:	f443 2380 	orr.w	r3, r3, #262144	; 0x40000
 8001d72:	6023      	str	r3, [r4, #0]
 8001d74:	e7e6      	b.n	8001d44 <HAL_RCC_OscConfig+0x190>
 8001d76:	6822      	ldr	r2, [r4, #0]
 8001d78:	f422 3280 	bic.w	r2, r2, #65536	; 0x10000
 8001d7c:	6022      	str	r2, [r4, #0]
 8001d7e:	6822      	ldr	r2, [r4, #0]
 8001d80:	f422 2280 	bic.w	r2, r2, #262144	; 0x40000
 8001d84:	6022      	str	r2, [r4, #0]
 8001d86:	2b00      	cmp	r3, #0
 8001d88:	d1e0      	bne.n	8001d4c <HAL_RCC_OscConfig+0x198>
 8001d8a:	f7ff fc59 	bl	8001640 <HAL_GetTick>
 8001d8e:	4680      	mov	r8, r0
 8001d90:	6823      	ldr	r3, [r4, #0]
 8001d92:	0398      	lsls	r0, r3, #14
 8001d94:	d597      	bpl.n	8001cc6 <HAL_RCC_OscConfig+0x112>
 8001d96:	f7ff fc53 	bl	8001640 <HAL_GetTick>
 8001d9a:	eba0 0008 	sub.w	r0, r0, r8
 8001d9e:	2864      	cmp	r0, #100	; 0x64
 8001da0:	d9f6      	bls.n	8001d90 <HAL_RCC_OscConfig+0x1dc>
 8001da2:	e7ab      	b.n	8001cfc <HAL_RCC_OscConfig+0x148>
 8001da4:	2e04      	cmp	r6, #4
 8001da6:	d003      	beq.n	8001db0 <HAL_RCC_OscConfig+0x1fc>
 8001da8:	2e0c      	cmp	r6, #12
 8001daa:	d110      	bne.n	8001dce <HAL_RCC_OscConfig+0x21a>
 8001dac:	2f02      	cmp	r7, #2
 8001dae:	d10e      	bne.n	8001dce <HAL_RCC_OscConfig+0x21a>
 8001db0:	6823      	ldr	r3, [r4, #0]
 8001db2:	0559      	lsls	r1, r3, #21
 8001db4:	d503      	bpl.n	8001dbe <HAL_RCC_OscConfig+0x20a>
 8001db6:	68eb      	ldr	r3, [r5, #12]
 8001db8:	2b00      	cmp	r3, #0
 8001dba:	f43f aeff 	beq.w	8001bbc <HAL_RCC_OscConfig+0x8>
 8001dbe:	6863      	ldr	r3, [r4, #4]
 8001dc0:	692a      	ldr	r2, [r5, #16]
 8001dc2:	f023 43fe 	bic.w	r3, r3, #2130706432	; 0x7f000000
 8001dc6:	ea43 6302 	orr.w	r3, r3, r2, lsl #24
 8001dca:	6063      	str	r3, [r4, #4]
 8001dcc:	e77e      	b.n	8001ccc <HAL_RCC_OscConfig+0x118>
 8001dce:	68eb      	ldr	r3, [r5, #12]
 8001dd0:	b17b      	cbz	r3, 8001df2 <HAL_RCC_OscConfig+0x23e>
 8001dd2:	6823      	ldr	r3, [r4, #0]
 8001dd4:	f443 7380 	orr.w	r3, r3, #256	; 0x100
 8001dd8:	6023      	str	r3, [r4, #0]
 8001dda:	f7ff fc31 	bl	8001640 <HAL_GetTick>
 8001dde:	4607      	mov	r7, r0
 8001de0:	6823      	ldr	r3, [r4, #0]
 8001de2:	055a      	lsls	r2, r3, #21
 8001de4:	d4eb      	bmi.n	8001dbe <HAL_RCC_OscConfig+0x20a>
 8001de6:	f7ff fc2b 	bl	8001640 <HAL_GetTick>
 8001dea:	1bc0      	subs	r0, r0, r7
 8001dec:	2802      	cmp	r0, #2
 8001dee:	d9f7      	bls.n	8001de0 <HAL_RCC_OscConfig+0x22c>
 8001df0:	e784      	b.n	8001cfc <HAL_RCC_OscConfig+0x148>
 8001df2:	6823      	ldr	r3, [r4, #0]
 8001df4:	f423 7380 	bic.w	r3, r3, #256	; 0x100
 8001df8:	6023      	str	r3, [r4, #0]
 8001dfa:	f7ff fc21 	bl	8001640 <HAL_GetTick>
 8001dfe:	4607      	mov	r7, r0
 8001e00:	6823      	ldr	r3, [r4, #0]
 8001e02:	055b      	lsls	r3, r3, #21
 8001e04:	f57f af62 	bpl.w	8001ccc <HAL_RCC_OscConfig+0x118>
 8001e08:	f7ff fc1a 	bl	8001640 <HAL_GetTick>
 8001e0c:	1bc0      	subs	r0, r0, r7
 8001e0e:	2802      	cmp	r0, #2
 8001e10:	d9f6      	bls.n	8001e00 <HAL_RCC_OscConfig+0x24c>
 8001e12:	e773      	b.n	8001cfc <HAL_RCC_OscConfig+0x148>
 8001e14:	696b      	ldr	r3, [r5, #20]
 8001e16:	b1db      	cbz	r3, 8001e50 <HAL_RCC_OscConfig+0x29c>
 8001e18:	f8d4 3094 	ldr.w	r3, [r4, #148]	; 0x94
 8001e1c:	f043 0301 	orr.w	r3, r3, #1
 8001e20:	f8c4 3094 	str.w	r3, [r4, #148]	; 0x94
 8001e24:	f7ff fc0c 	bl	8001640 <HAL_GetTick>
 8001e28:	4607      	mov	r7, r0
 8001e2a:	f8d4 3094 	ldr.w	r3, [r4, #148]	; 0x94
 8001e2e:	079a      	lsls	r2, r3, #30
 8001e30:	f53f af50 	bmi.w	8001cd4 <HAL_RCC_OscConfig+0x120>
 8001e34:	f7ff fc04 	bl	8001640 <HAL_GetTick>
 8001e38:	1bc0      	subs	r0, r0, r7
 8001e3a:	2802      	cmp	r0, #2
 8001e3c:	d9f5      	bls.n	8001e2a <HAL_RCC_OscConfig+0x276>
 8001e3e:	e75d      	b.n	8001cfc <HAL_RCC_OscConfig+0x148>
 8001e40:	40021000 	.word	0x40021000
 8001e44:	080080f4 	.word	0x080080f4
 8001e48:	20000000 	.word	0x20000000
 8001e4c:	20000008 	.word	0x20000008
 8001e50:	f8d4 3094 	ldr.w	r3, [r4, #148]	; 0x94
 8001e54:	f023 0301 	bic.w	r3, r3, #1
 8001e58:	f8c4 3094 	str.w	r3, [r4, #148]	; 0x94
 8001e5c:	f7ff fbf0 	bl	8001640 <HAL_GetTick>
 8001e60:	4607      	mov	r7, r0
 8001e62:	f8d4 3094 	ldr.w	r3, [r4, #148]	; 0x94
 8001e66:	079b      	lsls	r3, r3, #30
 8001e68:	f57f af34 	bpl.w	8001cd4 <HAL_RCC_OscConfig+0x120>
 8001e6c:	f7ff fbe8 	bl	8001640 <HAL_GetTick>
 8001e70:	1bc0      	subs	r0, r0, r7
 8001e72:	2802      	cmp	r0, #2
 8001e74:	d9f5      	bls.n	8001e62 <HAL_RCC_OscConfig+0x2ae>
 8001e76:	e741      	b.n	8001cfc <HAL_RCC_OscConfig+0x148>
 8001e78:	6da3      	ldr	r3, [r4, #88]	; 0x58
 8001e7a:	00df      	lsls	r7, r3, #3
 8001e7c:	d429      	bmi.n	8001ed2 <HAL_RCC_OscConfig+0x31e>
 8001e7e:	6da3      	ldr	r3, [r4, #88]	; 0x58
 8001e80:	f043 5380 	orr.w	r3, r3, #268435456	; 0x10000000
 8001e84:	65a3      	str	r3, [r4, #88]	; 0x58
 8001e86:	6da3      	ldr	r3, [r4, #88]	; 0x58
 8001e88:	f003 5380 	and.w	r3, r3, #268435456	; 0x10000000
 8001e8c:	9301      	str	r3, [sp, #4]
 8001e8e:	9b01      	ldr	r3, [sp, #4]
 8001e90:	f04f 0801 	mov.w	r8, #1
 8001e94:	4f9c      	ldr	r7, [pc, #624]	; (8002108 <HAL_RCC_OscConfig+0x554>)
 8001e96:	683b      	ldr	r3, [r7, #0]
 8001e98:	05d8      	lsls	r0, r3, #23
 8001e9a:	d51d      	bpl.n	8001ed8 <HAL_RCC_OscConfig+0x324>
 8001e9c:	68ab      	ldr	r3, [r5, #8]
 8001e9e:	2b01      	cmp	r3, #1
 8001ea0:	d12b      	bne.n	8001efa <HAL_RCC_OscConfig+0x346>
 8001ea2:	f8d4 3090 	ldr.w	r3, [r4, #144]	; 0x90
 8001ea6:	f043 0301 	orr.w	r3, r3, #1
 8001eaa:	f8c4 3090 	str.w	r3, [r4, #144]	; 0x90
 8001eae:	f7ff fbc7 	bl	8001640 <HAL_GetTick>
 8001eb2:	f241 3988 	movw	r9, #5000	; 0x1388
 8001eb6:	4607      	mov	r7, r0
 8001eb8:	f8d4 3090 	ldr.w	r3, [r4, #144]	; 0x90
 8001ebc:	079a      	lsls	r2, r3, #30
 8001ebe:	d542      	bpl.n	8001f46 <HAL_RCC_OscConfig+0x392>
 8001ec0:	f1b8 0f00 	cmp.w	r8, #0
 8001ec4:	f43f af0a 	beq.w	8001cdc <HAL_RCC_OscConfig+0x128>
 8001ec8:	6da3      	ldr	r3, [r4, #88]	; 0x58
 8001eca:	f023 5380 	bic.w	r3, r3, #268435456	; 0x10000000
 8001ece:	65a3      	str	r3, [r4, #88]	; 0x58
 8001ed0:	e704      	b.n	8001cdc <HAL_RCC_OscConfig+0x128>
 8001ed2:	f04f 0800 	mov.w	r8, #0
 8001ed6:	e7dd      	b.n	8001e94 <HAL_RCC_OscConfig+0x2e0>
 8001ed8:	683b      	ldr	r3, [r7, #0]
 8001eda:	f443 7380 	orr.w	r3, r3, #256	; 0x100
 8001ede:	603b      	str	r3, [r7, #0]
 8001ee0:	f7ff fbae 	bl	8001640 <HAL_GetTick>
 8001ee4:	4681      	mov	r9, r0
 8001ee6:	683b      	ldr	r3, [r7, #0]
 8001ee8:	05d9      	lsls	r1, r3, #23
 8001eea:	d4d7      	bmi.n	8001e9c <HAL_RCC_OscConfig+0x2e8>
 8001eec:	f7ff fba8 	bl	8001640 <HAL_GetTick>
 8001ef0:	eba0 0009 	sub.w	r0, r0, r9
 8001ef4:	2802      	cmp	r0, #2
 8001ef6:	d9f6      	bls.n	8001ee6 <HAL_RCC_OscConfig+0x332>
 8001ef8:	e700      	b.n	8001cfc <HAL_RCC_OscConfig+0x148>
 8001efa:	2b05      	cmp	r3, #5
 8001efc:	d106      	bne.n	8001f0c <HAL_RCC_OscConfig+0x358>
 8001efe:	f8d4 3090 	ldr.w	r3, [r4, #144]	; 0x90
 8001f02:	f043 0304 	orr.w	r3, r3, #4
 8001f06:	f8c4 3090 	str.w	r3, [r4, #144]	; 0x90
 8001f0a:	e7ca      	b.n	8001ea2 <HAL_RCC_OscConfig+0x2ee>
 8001f0c:	f8d4 2090 	ldr.w	r2, [r4, #144]	; 0x90
 8001f10:	f022 0201 	bic.w	r2, r2, #1
 8001f14:	f8c4 2090 	str.w	r2, [r4, #144]	; 0x90
 8001f18:	f8d4 2090 	ldr.w	r2, [r4, #144]	; 0x90
 8001f1c:	f022 0204 	bic.w	r2, r2, #4
 8001f20:	f8c4 2090 	str.w	r2, [r4, #144]	; 0x90
 8001f24:	2b00      	cmp	r3, #0
 8001f26:	d1c2      	bne.n	8001eae <HAL_RCC_OscConfig+0x2fa>
 8001f28:	f7ff fb8a 	bl	8001640 <HAL_GetTick>
 8001f2c:	f241 3988 	movw	r9, #5000	; 0x1388
 8001f30:	4607      	mov	r7, r0
 8001f32:	f8d4 3090 	ldr.w	r3, [r4, #144]	; 0x90
 8001f36:	079b      	lsls	r3, r3, #30
 8001f38:	d5c2      	bpl.n	8001ec0 <HAL_RCC_OscConfig+0x30c>
 8001f3a:	f7ff fb81 	bl	8001640 <HAL_GetTick>
 8001f3e:	1bc0      	subs	r0, r0, r7
 8001f40:	4548      	cmp	r0, r9
 8001f42:	d9f6      	bls.n	8001f32 <HAL_RCC_OscConfig+0x37e>
 8001f44:	e6da      	b.n	8001cfc <HAL_RCC_OscConfig+0x148>
 8001f46:	f7ff fb7b 	bl	8001640 <HAL_GetTick>
 8001f4a:	1bc0      	subs	r0, r0, r7
 8001f4c:	4548      	cmp	r0, r9
 8001f4e:	d9b3      	bls.n	8001eb8 <HAL_RCC_OscConfig+0x304>
 8001f50:	e6d4      	b.n	8001cfc <HAL_RCC_OscConfig+0x148>
 8001f52:	6a6b      	ldr	r3, [r5, #36]	; 0x24
 8001f54:	b19b      	cbz	r3, 8001f7e <HAL_RCC_OscConfig+0x3ca>
 8001f56:	f8d4 3098 	ldr.w	r3, [r4, #152]	; 0x98
 8001f5a:	f043 0301 	orr.w	r3, r3, #1
 8001f5e:	f8c4 3098 	str.w	r3, [r4, #152]	; 0x98
 8001f62:	f7ff fb6d 	bl	8001640 <HAL_GetTick>
 8001f66:	4607      	mov	r7, r0
 8001f68:	f8d4 3098 	ldr.w	r3, [r4, #152]	; 0x98
 8001f6c:	0798      	lsls	r0, r3, #30
 8001f6e:	f53f aeb9 	bmi.w	8001ce4 <HAL_RCC_OscConfig+0x130>
 8001f72:	f7ff fb65 	bl	8001640 <HAL_GetTick>
 8001f76:	1bc0      	subs	r0, r0, r7
 8001f78:	2802      	cmp	r0, #2
 8001f7a:	d9f5      	bls.n	8001f68 <HAL_RCC_OscConfig+0x3b4>
 8001f7c:	e6be      	b.n	8001cfc <HAL_RCC_OscConfig+0x148>
 8001f7e:	f8d4 3098 	ldr.w	r3, [r4, #152]	; 0x98
 8001f82:	f023 0301 	bic.w	r3, r3, #1
 8001f86:	f8c4 3098 	str.w	r3, [r4, #152]	; 0x98
 8001f8a:	f7ff fb59 	bl	8001640 <HAL_GetTick>
 8001f8e:	4607      	mov	r7, r0
 8001f90:	f8d4 3098 	ldr.w	r3, [r4, #152]	; 0x98
 8001f94:	0799      	lsls	r1, r3, #30
 8001f96:	f57f aea5 	bpl.w	8001ce4 <HAL_RCC_OscConfig+0x130>
 8001f9a:	f7ff fb51 	bl	8001640 <HAL_GetTick>
 8001f9e:	1bc0      	subs	r0, r0, r7
 8001fa0:	2802      	cmp	r0, #2
 8001fa2:	d9f5      	bls.n	8001f90 <HAL_RCC_OscConfig+0x3dc>
 8001fa4:	e6aa      	b.n	8001cfc <HAL_RCC_OscConfig+0x148>
 8001fa6:	2b02      	cmp	r3, #2
 8001fa8:	f040 808c 	bne.w	80020c4 <HAL_RCC_OscConfig+0x510>
 8001fac:	68e3      	ldr	r3, [r4, #12]
 8001fae:	6aea      	ldr	r2, [r5, #44]	; 0x2c
 8001fb0:	f003 0103 	and.w	r1, r3, #3
 8001fb4:	4291      	cmp	r1, r2
 8001fb6:	d122      	bne.n	8001ffe <HAL_RCC_OscConfig+0x44a>
 8001fb8:	6b29      	ldr	r1, [r5, #48]	; 0x30
 8001fba:	f003 02f0 	and.w	r2, r3, #240	; 0xf0
 8001fbe:	3901      	subs	r1, #1
 8001fc0:	ebb2 1f01 	cmp.w	r2, r1, lsl #4
 8001fc4:	d11b      	bne.n	8001ffe <HAL_RCC_OscConfig+0x44a>
 8001fc6:	6b69      	ldr	r1, [r5, #52]	; 0x34
 8001fc8:	f403 42fe 	and.w	r2, r3, #32512	; 0x7f00
 8001fcc:	ebb2 2f01 	cmp.w	r2, r1, lsl #8
 8001fd0:	d115      	bne.n	8001ffe <HAL_RCC_OscConfig+0x44a>
 8001fd2:	6ba9      	ldr	r1, [r5, #56]	; 0x38
 8001fd4:	f003 4278 	and.w	r2, r3, #4160749568	; 0xf8000000
 8001fd8:	ebb2 6fc1 	cmp.w	r2, r1, lsl #27
 8001fdc:	d10f      	bne.n	8001ffe <HAL_RCC_OscConfig+0x44a>
 8001fde:	6bea      	ldr	r2, [r5, #60]	; 0x3c
 8001fe0:	0852      	lsrs	r2, r2, #1
 8001fe2:	f403 01c0 	and.w	r1, r3, #6291456	; 0x600000
 8001fe6:	3a01      	subs	r2, #1
 8001fe8:	ebb1 5f42 	cmp.w	r1, r2, lsl #21
 8001fec:	d107      	bne.n	8001ffe <HAL_RCC_OscConfig+0x44a>
 8001fee:	6c2a      	ldr	r2, [r5, #64]	; 0x40
 8001ff0:	0852      	lsrs	r2, r2, #1
 8001ff2:	f003 63c0 	and.w	r3, r3, #100663296	; 0x6000000
 8001ff6:	3a01      	subs	r2, #1
 8001ff8:	ebb3 6f42 	cmp.w	r3, r2, lsl #25
 8001ffc:	d049      	beq.n	8002092 <HAL_RCC_OscConfig+0x4de>
 8001ffe:	2e0c      	cmp	r6, #12
 8002000:	f43f addc 	beq.w	8001bbc <HAL_RCC_OscConfig+0x8>
 8002004:	6823      	ldr	r3, [r4, #0]
 8002006:	015a      	lsls	r2, r3, #5
 8002008:	f53f add8 	bmi.w	8001bbc <HAL_RCC_OscConfig+0x8>
 800200c:	6823      	ldr	r3, [r4, #0]
 800200e:	00db      	lsls	r3, r3, #3
 8002010:	f53f add4 	bmi.w	8001bbc <HAL_RCC_OscConfig+0x8>
 8002014:	6823      	ldr	r3, [r4, #0]
 8002016:	f023 7380 	bic.w	r3, r3, #16777216	; 0x1000000
 800201a:	6023      	str	r3, [r4, #0]
 800201c:	f7ff fb10 	bl	8001640 <HAL_GetTick>
 8002020:	4606      	mov	r6, r0
 8002022:	6823      	ldr	r3, [r4, #0]
 8002024:	019f      	lsls	r7, r3, #6
 8002026:	d42e      	bmi.n	8002086 <HAL_RCC_OscConfig+0x4d2>
 8002028:	68e2      	ldr	r2, [r4, #12]
 800202a:	4b38      	ldr	r3, [pc, #224]	; (800210c <HAL_RCC_OscConfig+0x558>)
 800202c:	4013      	ands	r3, r2
 800202e:	6aea      	ldr	r2, [r5, #44]	; 0x2c
 8002030:	4313      	orrs	r3, r2
 8002032:	6b6a      	ldr	r2, [r5, #52]	; 0x34
 8002034:	ea43 2302 	orr.w	r3, r3, r2, lsl #8
 8002038:	6baa      	ldr	r2, [r5, #56]	; 0x38
 800203a:	ea43 63c2 	orr.w	r3, r3, r2, lsl #27
 800203e:	6b2a      	ldr	r2, [r5, #48]	; 0x30
 8002040:	3a01      	subs	r2, #1
 8002042:	ea43 1302 	orr.w	r3, r3, r2, lsl #4
 8002046:	6bea      	ldr	r2, [r5, #60]	; 0x3c
 8002048:	0852      	lsrs	r2, r2, #1
 800204a:	3a01      	subs	r2, #1
 800204c:	ea43 5342 	orr.w	r3, r3, r2, lsl #21
 8002050:	6c2a      	ldr	r2, [r5, #64]	; 0x40
 8002052:	0852      	lsrs	r2, r2, #1
 8002054:	3a01      	subs	r2, #1
 8002056:	ea43 6342 	orr.w	r3, r3, r2, lsl #25
 800205a:	60e3      	str	r3, [r4, #12]
 800205c:	6823      	ldr	r3, [r4, #0]
 800205e:	f043 7380 	orr.w	r3, r3, #16777216	; 0x1000000
 8002062:	6023      	str	r3, [r4, #0]
 8002064:	68e3      	ldr	r3, [r4, #12]
 8002066:	f043 7380 	orr.w	r3, r3, #16777216	; 0x1000000
 800206a:	60e3      	str	r3, [r4, #12]
 800206c:	f7ff fae8 	bl	8001640 <HAL_GetTick>
 8002070:	4605      	mov	r5, r0
 8002072:	6823      	ldr	r3, [r4, #0]
 8002074:	0198      	lsls	r0, r3, #6
 8002076:	f53f ae39 	bmi.w	8001cec <HAL_RCC_OscConfig+0x138>
 800207a:	f7ff fae1 	bl	8001640 <HAL_GetTick>
 800207e:	1b40      	subs	r0, r0, r5
 8002080:	2802      	cmp	r0, #2
 8002082:	d9f6      	bls.n	8002072 <HAL_RCC_OscConfig+0x4be>
 8002084:	e63a      	b.n	8001cfc <HAL_RCC_OscConfig+0x148>
 8002086:	f7ff fadb 	bl	8001640 <HAL_GetTick>
 800208a:	1b80      	subs	r0, r0, r6
 800208c:	2802      	cmp	r0, #2
 800208e:	d9c8      	bls.n	8002022 <HAL_RCC_OscConfig+0x46e>
 8002090:	e634      	b.n	8001cfc <HAL_RCC_OscConfig+0x148>
 8002092:	6823      	ldr	r3, [r4, #0]
 8002094:	0199      	lsls	r1, r3, #6
 8002096:	f53f ae29 	bmi.w	8001cec <HAL_RCC_OscConfig+0x138>
 800209a:	6823      	ldr	r3, [r4, #0]
 800209c:	f043 7380 	orr.w	r3, r3, #16777216	; 0x1000000
 80020a0:	6023      	str	r3, [r4, #0]
 80020a2:	68e3      	ldr	r3, [r4, #12]
 80020a4:	f043 7380 	orr.w	r3, r3, #16777216	; 0x1000000
 80020a8:	60e3      	str	r3, [r4, #12]
 80020aa:	f7ff fac9 	bl	8001640 <HAL_GetTick>
 80020ae:	4605      	mov	r5, r0
 80020b0:	6823      	ldr	r3, [r4, #0]
 80020b2:	019a      	lsls	r2, r3, #6
 80020b4:	f53f ae1a 	bmi.w	8001cec <HAL_RCC_OscConfig+0x138>
 80020b8:	f7ff fac2 	bl	8001640 <HAL_GetTick>
 80020bc:	1b40      	subs	r0, r0, r5
 80020be:	2802      	cmp	r0, #2
 80020c0:	d9f6      	bls.n	80020b0 <HAL_RCC_OscConfig+0x4fc>
 80020c2:	e61b      	b.n	8001cfc <HAL_RCC_OscConfig+0x148>
 80020c4:	2e0c      	cmp	r6, #12
 80020c6:	f43f ad79 	beq.w	8001bbc <HAL_RCC_OscConfig+0x8>
 80020ca:	6823      	ldr	r3, [r4, #0]
 80020cc:	f023 7380 	bic.w	r3, r3, #16777216	; 0x1000000
 80020d0:	6023      	str	r3, [r4, #0]
 80020d2:	6823      	ldr	r3, [r4, #0]
 80020d4:	f013 5f20 	tst.w	r3, #671088640	; 0x28000000
 80020d8:	bf02      	ittt	eq
 80020da:	68e3      	ldreq	r3, [r4, #12]
 80020dc:	f023 0303 	biceq.w	r3, r3, #3
 80020e0:	60e3      	streq	r3, [r4, #12]
 80020e2:	68e3      	ldr	r3, [r4, #12]
 80020e4:	f023 7388 	bic.w	r3, r3, #17825792	; 0x1100000
 80020e8:	f423 3380 	bic.w	r3, r3, #65536	; 0x10000
 80020ec:	60e3      	str	r3, [r4, #12]
 80020ee:	f7ff faa7 	bl	8001640 <HAL_GetTick>
 80020f2:	4605      	mov	r5, r0
 80020f4:	6823      	ldr	r3, [r4, #0]
 80020f6:	019b      	lsls	r3, r3, #6
 80020f8:	f57f adf8 	bpl.w	8001cec <HAL_RCC_OscConfig+0x138>
 80020fc:	f7ff faa0 	bl	8001640 <HAL_GetTick>
 8002100:	1b40      	subs	r0, r0, r5
 8002102:	2802      	cmp	r0, #2
 8002104:	d9f6      	bls.n	80020f4 <HAL_RCC_OscConfig+0x540>
 8002106:	e5f9      	b.n	8001cfc <HAL_RCC_OscConfig+0x148>
 8002108:	40007000 	.word	0x40007000
 800210c:	019d800c 	.word	0x019d800c

08002110 <HAL_RCC_ClockConfig>:
 8002110:	e92d 43f8 	stmdb	sp!, {r3, r4, r5, r6, r7, r8, r9, lr}
 8002114:	460e      	mov	r6, r1
 8002116:	4605      	mov	r5, r0
 8002118:	b910      	cbnz	r0, 8002120 <HAL_RCC_ClockConfig+0x10>
 800211a:	2001      	movs	r0, #1
 800211c:	e8bd 83f8 	ldmia.w	sp!, {r3, r4, r5, r6, r7, r8, r9, pc}
 8002120:	4a6f      	ldr	r2, [pc, #444]	; (80022e0 <HAL_RCC_ClockConfig+0x1d0>)
 8002122:	6813      	ldr	r3, [r2, #0]
 8002124:	f003 030f 	and.w	r3, r3, #15
 8002128:	428b      	cmp	r3, r1
 800212a:	d335      	bcc.n	8002198 <HAL_RCC_ClockConfig+0x88>
 800212c:	6829      	ldr	r1, [r5, #0]
 800212e:	f011 0701 	ands.w	r7, r1, #1
 8002132:	d13c      	bne.n	80021ae <HAL_RCC_ClockConfig+0x9e>
 8002134:	682a      	ldr	r2, [r5, #0]
 8002136:	0791      	lsls	r1, r2, #30
 8002138:	f140 80b7 	bpl.w	80022aa <HAL_RCC_ClockConfig+0x19a>
 800213c:	4969      	ldr	r1, [pc, #420]	; (80022e4 <HAL_RCC_ClockConfig+0x1d4>)
 800213e:	68a8      	ldr	r0, [r5, #8]
 8002140:	688b      	ldr	r3, [r1, #8]
 8002142:	f023 03f0 	bic.w	r3, r3, #240	; 0xf0
 8002146:	4303      	orrs	r3, r0
 8002148:	608b      	str	r3, [r1, #8]
 800214a:	4965      	ldr	r1, [pc, #404]	; (80022e0 <HAL_RCC_ClockConfig+0x1d0>)
 800214c:	680b      	ldr	r3, [r1, #0]
 800214e:	f003 030f 	and.w	r3, r3, #15
 8002152:	42b3      	cmp	r3, r6
 8002154:	f200 80b1 	bhi.w	80022ba <HAL_RCC_ClockConfig+0x1aa>
 8002158:	f012 0f04 	tst.w	r2, #4
 800215c:	4c61      	ldr	r4, [pc, #388]	; (80022e4 <HAL_RCC_ClockConfig+0x1d4>)
 800215e:	f040 80b8 	bne.w	80022d2 <HAL_RCC_ClockConfig+0x1c2>
 8002162:	0713      	lsls	r3, r2, #28
 8002164:	d506      	bpl.n	8002174 <HAL_RCC_ClockConfig+0x64>
 8002166:	68a3      	ldr	r3, [r4, #8]
 8002168:	692a      	ldr	r2, [r5, #16]
 800216a:	f423 5360 	bic.w	r3, r3, #14336	; 0x3800
 800216e:	ea43 03c2 	orr.w	r3, r3, r2, lsl #3
 8002172:	60a3      	str	r3, [r4, #8]
 8002174:	f7ff fcd0 	bl	8001b18 <HAL_RCC_GetSysClockFreq>
 8002178:	68a3      	ldr	r3, [r4, #8]
 800217a:	4a5b      	ldr	r2, [pc, #364]	; (80022e8 <HAL_RCC_ClockConfig+0x1d8>)
 800217c:	f3c3 1303 	ubfx	r3, r3, #4, #4
 8002180:	5cd3      	ldrb	r3, [r2, r3]
 8002182:	f003 031f 	and.w	r3, r3, #31
 8002186:	40d8      	lsrs	r0, r3
 8002188:	4b58      	ldr	r3, [pc, #352]	; (80022ec <HAL_RCC_ClockConfig+0x1dc>)
 800218a:	6018      	str	r0, [r3, #0]
 800218c:	4b58      	ldr	r3, [pc, #352]	; (80022f0 <HAL_RCC_ClockConfig+0x1e0>)
 800218e:	6818      	ldr	r0, [r3, #0]
 8002190:	e8bd 43f8 	ldmia.w	sp!, {r3, r4, r5, r6, r7, r8, r9, lr}
 8002194:	f7ff ba12 	b.w	80015bc <HAL_InitTick>
 8002198:	6813      	ldr	r3, [r2, #0]
 800219a:	f023 030f 	bic.w	r3, r3, #15
 800219e:	430b      	orrs	r3, r1
 80021a0:	6013      	str	r3, [r2, #0]
 80021a2:	6813      	ldr	r3, [r2, #0]
 80021a4:	f003 030f 	and.w	r3, r3, #15
 80021a8:	428b      	cmp	r3, r1
 80021aa:	d1b6      	bne.n	800211a <HAL_RCC_ClockConfig+0xa>
 80021ac:	e7be      	b.n	800212c <HAL_RCC_ClockConfig+0x1c>
 80021ae:	686b      	ldr	r3, [r5, #4]
 80021b0:	4c4c      	ldr	r4, [pc, #304]	; (80022e4 <HAL_RCC_ClockConfig+0x1d4>)
 80021b2:	2b03      	cmp	r3, #3
 80021b4:	d163      	bne.n	800227e <HAL_RCC_ClockConfig+0x16e>
 80021b6:	6823      	ldr	r3, [r4, #0]
 80021b8:	019b      	lsls	r3, r3, #6
 80021ba:	d5ae      	bpl.n	800211a <HAL_RCC_ClockConfig+0xa>
 80021bc:	68e3      	ldr	r3, [r4, #12]
 80021be:	f003 0303 	and.w	r3, r3, #3
 80021c2:	2b01      	cmp	r3, #1
 80021c4:	d145      	bne.n	8002252 <HAL_RCC_ClockConfig+0x142>
 80021c6:	6823      	ldr	r3, [r4, #0]
 80021c8:	4a4a      	ldr	r2, [pc, #296]	; (80022f4 <HAL_RCC_ClockConfig+0x1e4>)
 80021ca:	071f      	lsls	r7, r3, #28
 80021cc:	bf55      	itete	pl
 80021ce:	f8d4 3094 	ldrpl.w	r3, [r4, #148]	; 0x94
 80021d2:	6823      	ldrmi	r3, [r4, #0]
 80021d4:	f3c3 2303 	ubfxpl	r3, r3, #8, #4
 80021d8:	f3c3 1303 	ubfxmi	r3, r3, #4, #4
 80021dc:	f852 3023 	ldr.w	r3, [r2, r3, lsl #2]
 80021e0:	68e2      	ldr	r2, [r4, #12]
 80021e2:	f002 0203 	and.w	r2, r2, #3
 80021e6:	2a02      	cmp	r2, #2
 80021e8:	d035      	beq.n	8002256 <HAL_RCC_ClockConfig+0x146>
 80021ea:	4843      	ldr	r0, [pc, #268]	; (80022f8 <HAL_RCC_ClockConfig+0x1e8>)
 80021ec:	2a03      	cmp	r2, #3
 80021ee:	bf08      	it	eq
 80021f0:	4603      	moveq	r3, r0
 80021f2:	68e0      	ldr	r0, [r4, #12]
 80021f4:	68e2      	ldr	r2, [r4, #12]
 80021f6:	f3c2 2206 	ubfx	r2, r2, #8, #7
 80021fa:	4353      	muls	r3, r2
 80021fc:	68e2      	ldr	r2, [r4, #12]
 80021fe:	f3c2 6241 	ubfx	r2, r2, #25, #2
 8002202:	f3c0 1003 	ubfx	r0, r0, #4, #4
 8002206:	3201      	adds	r2, #1
 8002208:	0052      	lsls	r2, r2, #1
 800220a:	3001      	adds	r0, #1
 800220c:	fbb3 f3f0 	udiv	r3, r3, r0
 8002210:	fbb3 f3f2 	udiv	r3, r3, r2
 8002214:	4a39      	ldr	r2, [pc, #228]	; (80022fc <HAL_RCC_ClockConfig+0x1ec>)
 8002216:	4293      	cmp	r3, r2
 8002218:	d81f      	bhi.n	800225a <HAL_RCC_ClockConfig+0x14a>
 800221a:	2700      	movs	r7, #0
 800221c:	68a3      	ldr	r3, [r4, #8]
 800221e:	686a      	ldr	r2, [r5, #4]
 8002220:	f023 0303 	bic.w	r3, r3, #3
 8002224:	4313      	orrs	r3, r2
 8002226:	60a3      	str	r3, [r4, #8]
 8002228:	f7ff fa0a 	bl	8001640 <HAL_GetTick>
 800222c:	f241 3988 	movw	r9, #5000	; 0x1388
 8002230:	4680      	mov	r8, r0
 8002232:	68a3      	ldr	r3, [r4, #8]
 8002234:	686a      	ldr	r2, [r5, #4]
 8002236:	f003 030c 	and.w	r3, r3, #12
 800223a:	ebb3 0f82 	cmp.w	r3, r2, lsl #2
 800223e:	f43f af79 	beq.w	8002134 <HAL_RCC_ClockConfig+0x24>
 8002242:	f7ff f9fd 	bl	8001640 <HAL_GetTick>
 8002246:	eba0 0008 	sub.w	r0, r0, r8
 800224a:	4548      	cmp	r0, r9
 800224c:	d9f1      	bls.n	8002232 <HAL_RCC_ClockConfig+0x122>
 800224e:	2003      	movs	r0, #3
 8002250:	e764      	b.n	800211c <HAL_RCC_ClockConfig+0xc>
 8002252:	2300      	movs	r3, #0
 8002254:	e7c4      	b.n	80021e0 <HAL_RCC_ClockConfig+0xd0>
 8002256:	4b2a      	ldr	r3, [pc, #168]	; (8002300 <HAL_RCC_ClockConfig+0x1f0>)
 8002258:	e7cb      	b.n	80021f2 <HAL_RCC_ClockConfig+0xe2>
 800225a:	68a3      	ldr	r3, [r4, #8]
 800225c:	f013 0ff0 	tst.w	r3, #240	; 0xf0
 8002260:	d107      	bne.n	8002272 <HAL_RCC_ClockConfig+0x162>
 8002262:	68a3      	ldr	r3, [r4, #8]
 8002264:	f023 03f0 	bic.w	r3, r3, #240	; 0xf0
 8002268:	f043 0380 	orr.w	r3, r3, #128	; 0x80
 800226c:	60a3      	str	r3, [r4, #8]
 800226e:	2780      	movs	r7, #128	; 0x80
 8002270:	e7d4      	b.n	800221c <HAL_RCC_ClockConfig+0x10c>
 8002272:	0788      	lsls	r0, r1, #30
 8002274:	d5d1      	bpl.n	800221a <HAL_RCC_ClockConfig+0x10a>
 8002276:	68ab      	ldr	r3, [r5, #8]
 8002278:	2b00      	cmp	r3, #0
 800227a:	d1ce      	bne.n	800221a <HAL_RCC_ClockConfig+0x10a>
 800227c:	e7f1      	b.n	8002262 <HAL_RCC_ClockConfig+0x152>
 800227e:	2b02      	cmp	r3, #2
 8002280:	d10a      	bne.n	8002298 <HAL_RCC_ClockConfig+0x188>
 8002282:	6823      	ldr	r3, [r4, #0]
 8002284:	f413 3f00 	tst.w	r3, #131072	; 0x20000
 8002288:	f43f af47 	beq.w	800211a <HAL_RCC_ClockConfig+0xa>
 800228c:	f7ff fc44 	bl	8001b18 <HAL_RCC_GetSysClockFreq>
 8002290:	4b1a      	ldr	r3, [pc, #104]	; (80022fc <HAL_RCC_ClockConfig+0x1ec>)
 8002292:	4298      	cmp	r0, r3
 8002294:	d9c1      	bls.n	800221a <HAL_RCC_ClockConfig+0x10a>
 8002296:	e7e4      	b.n	8002262 <HAL_RCC_ClockConfig+0x152>
 8002298:	b91b      	cbnz	r3, 80022a2 <HAL_RCC_ClockConfig+0x192>
 800229a:	6823      	ldr	r3, [r4, #0]
 800229c:	f013 0f02 	tst.w	r3, #2
 80022a0:	e7f2      	b.n	8002288 <HAL_RCC_ClockConfig+0x178>
 80022a2:	6823      	ldr	r3, [r4, #0]
 80022a4:	f413 6f80 	tst.w	r3, #1024	; 0x400
 80022a8:	e7ee      	b.n	8002288 <HAL_RCC_ClockConfig+0x178>
 80022aa:	2f80      	cmp	r7, #128	; 0x80
 80022ac:	f47f af4d 	bne.w	800214a <HAL_RCC_ClockConfig+0x3a>
 80022b0:	490c      	ldr	r1, [pc, #48]	; (80022e4 <HAL_RCC_ClockConfig+0x1d4>)
 80022b2:	688b      	ldr	r3, [r1, #8]
 80022b4:	f023 03f0 	bic.w	r3, r3, #240	; 0xf0
 80022b8:	e746      	b.n	8002148 <HAL_RCC_ClockConfig+0x38>
 80022ba:	680b      	ldr	r3, [r1, #0]
 80022bc:	f023 030f 	bic.w	r3, r3, #15
 80022c0:	4333      	orrs	r3, r6
 80022c2:	600b      	str	r3, [r1, #0]
 80022c4:	680b      	ldr	r3, [r1, #0]
 80022c6:	f003 030f 	and.w	r3, r3, #15
 80022ca:	42b3      	cmp	r3, r6
 80022cc:	f47f af25 	bne.w	800211a <HAL_RCC_ClockConfig+0xa>
 80022d0:	e742      	b.n	8002158 <HAL_RCC_ClockConfig+0x48>
 80022d2:	68a3      	ldr	r3, [r4, #8]
 80022d4:	68e9      	ldr	r1, [r5, #12]
 80022d6:	f423 63e0 	bic.w	r3, r3, #1792	; 0x700
 80022da:	430b      	orrs	r3, r1
 80022dc:	60a3      	str	r3, [r4, #8]
 80022de:	e740      	b.n	8002162 <HAL_RCC_ClockConfig+0x52>
 80022e0:	40022000 	.word	0x40022000
 80022e4:	40021000 	.word	0x40021000
 80022e8:	080080f4 	.word	0x080080f4
 80022ec:	20000000 	.word	0x20000000
 80022f0:	20000008 	.word	0x20000008
 80022f4:	0800810c 	.word	0x0800810c
 80022f8:	007a1200 	.word	0x007a1200
 80022fc:	04c4b400 	.word	0x04c4b400
 8002300:	00f42400 	.word	0x00f42400

08002304 <HAL_RCC_GetPCLK1Freq>:
 8002304:	4b05      	ldr	r3, [pc, #20]	; (800231c <HAL_RCC_GetPCLK1Freq+0x18>)
 8002306:	4a06      	ldr	r2, [pc, #24]	; (8002320 <HAL_RCC_GetPCLK1Freq+0x1c>)
 8002308:	689b      	ldr	r3, [r3, #8]
 800230a:	f3c3 2302 	ubfx	r3, r3, #8, #3
 800230e:	5cd3      	ldrb	r3, [r2, r3]
 8002310:	4a04      	ldr	r2, [pc, #16]	; (8002324 <HAL_RCC_GetPCLK1Freq+0x20>)
 8002312:	6810      	ldr	r0, [r2, #0]
 8002314:	f003 031f 	and.w	r3, r3, #31
 8002318:	40d8      	lsrs	r0, r3
 800231a:	4770      	bx	lr
 800231c:	40021000 	.word	0x40021000
 8002320:	08008104 	.word	0x08008104
 8002324:	20000000 	.word	0x20000000

08002328 <HAL_RCC_GetPCLK2Freq>:
 8002328:	4b05      	ldr	r3, [pc, #20]	; (8002340 <HAL_RCC_GetPCLK2Freq+0x18>)
 800232a:	4a06      	ldr	r2, [pc, #24]	; (8002344 <HAL_RCC_GetPCLK2Freq+0x1c>)
 800232c:	689b      	ldr	r3, [r3, #8]
 800232e:	f3c3 23c2 	ubfx	r3, r3, #11, #3
 8002332:	5cd3      	ldrb	r3, [r2, r3]
 8002334:	4a04      	ldr	r2, [pc, #16]	; (8002348 <HAL_RCC_GetPCLK2Freq+0x20>)
 8002336:	6810      	ldr	r0, [r2, #0]
 8002338:	f003 031f 	and.w	r3, r3, #31
 800233c:	40d8      	lsrs	r0, r3
 800233e:	4770      	bx	lr
 8002340:	40021000 	.word	0x40021000
 8002344:	08008104 	.word	0x08008104
 8002348:	20000000 	.word	0x20000000

0800234c <RCCEx_PLLSAI1_Config>:
 800234c:	4a3d      	ldr	r2, [pc, #244]	; (8002444 <RCCEx_PLLSAI1_Config+0xf8>)
 800234e:	b5f8      	push	{r3, r4, r5, r6, r7, lr}
 8002350:	460f      	mov	r7, r1
 8002352:	68d1      	ldr	r1, [r2, #12]
 8002354:	6803      	ldr	r3, [r0, #0]
 8002356:	f011 0f03 	tst.w	r1, #3
 800235a:	4605      	mov	r5, r0
 800235c:	4614      	mov	r4, r2
 800235e:	d023      	beq.n	80023a8 <RCCEx_PLLSAI1_Config+0x5c>
 8002360:	68d2      	ldr	r2, [r2, #12]
 8002362:	f002 0203 	and.w	r2, r2, #3
 8002366:	429a      	cmp	r2, r3
 8002368:	d16a      	bne.n	8002440 <RCCEx_PLLSAI1_Config+0xf4>
 800236a:	2a00      	cmp	r2, #0
 800236c:	d068      	beq.n	8002440 <RCCEx_PLLSAI1_Config+0xf4>
 800236e:	6823      	ldr	r3, [r4, #0]
 8002370:	f023 6380 	bic.w	r3, r3, #67108864	; 0x4000000
 8002374:	6023      	str	r3, [r4, #0]
 8002376:	f7ff f963 	bl	8001640 <HAL_GetTick>
 800237a:	4606      	mov	r6, r0
 800237c:	6823      	ldr	r3, [r4, #0]
 800237e:	011a      	lsls	r2, r3, #4
 8002380:	d42d      	bmi.n	80023de <RCCEx_PLLSAI1_Config+0x92>
 8002382:	68ab      	ldr	r3, [r5, #8]
 8002384:	021e      	lsls	r6, r3, #8
 8002386:	686b      	ldr	r3, [r5, #4]
 8002388:	3b01      	subs	r3, #1
 800238a:	0118      	lsls	r0, r3, #4
 800238c:	b377      	cbz	r7, 80023ec <RCCEx_PLLSAI1_Config+0xa0>
 800238e:	2f01      	cmp	r7, #1
 8002390:	d145      	bne.n	800241e <RCCEx_PLLSAI1_Config+0xd2>
 8002392:	692b      	ldr	r3, [r5, #16]
 8002394:	6927      	ldr	r7, [r4, #16]
 8002396:	085b      	lsrs	r3, r3, #1
 8002398:	1e59      	subs	r1, r3, #1
 800239a:	4b2b      	ldr	r3, [pc, #172]	; (8002448 <RCCEx_PLLSAI1_Config+0xfc>)
 800239c:	403b      	ands	r3, r7
 800239e:	4333      	orrs	r3, r6
 80023a0:	4303      	orrs	r3, r0
 80023a2:	ea43 5341 	orr.w	r3, r3, r1, lsl #21
 80023a6:	e029      	b.n	80023fc <RCCEx_PLLSAI1_Config+0xb0>
 80023a8:	2b02      	cmp	r3, #2
 80023aa:	d00d      	beq.n	80023c8 <RCCEx_PLLSAI1_Config+0x7c>
 80023ac:	2b03      	cmp	r3, #3
 80023ae:	d00f      	beq.n	80023d0 <RCCEx_PLLSAI1_Config+0x84>
 80023b0:	2b01      	cmp	r3, #1
 80023b2:	d145      	bne.n	8002440 <RCCEx_PLLSAI1_Config+0xf4>
 80023b4:	6812      	ldr	r2, [r2, #0]
 80023b6:	f012 0f02 	tst.w	r2, #2
 80023ba:	d041      	beq.n	8002440 <RCCEx_PLLSAI1_Config+0xf4>
 80023bc:	68e0      	ldr	r0, [r4, #12]
 80023be:	f020 0003 	bic.w	r0, r0, #3
 80023c2:	4318      	orrs	r0, r3
 80023c4:	60e0      	str	r0, [r4, #12]
 80023c6:	e7d2      	b.n	800236e <RCCEx_PLLSAI1_Config+0x22>
 80023c8:	6812      	ldr	r2, [r2, #0]
 80023ca:	f412 6f80 	tst.w	r2, #1024	; 0x400
 80023ce:	e7f4      	b.n	80023ba <RCCEx_PLLSAI1_Config+0x6e>
 80023d0:	6811      	ldr	r1, [r2, #0]
 80023d2:	0389      	lsls	r1, r1, #14
 80023d4:	d4f2      	bmi.n	80023bc <RCCEx_PLLSAI1_Config+0x70>
 80023d6:	6812      	ldr	r2, [r2, #0]
 80023d8:	f412 2f80 	tst.w	r2, #262144	; 0x40000
 80023dc:	e7ed      	b.n	80023ba <RCCEx_PLLSAI1_Config+0x6e>
 80023de:	f7ff f92f 	bl	8001640 <HAL_GetTick>
 80023e2:	1b80      	subs	r0, r0, r6
 80023e4:	2802      	cmp	r0, #2
 80023e6:	d9c9      	bls.n	800237c <RCCEx_PLLSAI1_Config+0x30>
 80023e8:	2003      	movs	r0, #3
 80023ea:	bdf8      	pop	{r3, r4, r5, r6, r7, pc}
 80023ec:	68e9      	ldr	r1, [r5, #12]
 80023ee:	6922      	ldr	r2, [r4, #16]
 80023f0:	ea46 63c1 	orr.w	r3, r6, r1, lsl #27
 80023f4:	4915      	ldr	r1, [pc, #84]	; (800244c <RCCEx_PLLSAI1_Config+0x100>)
 80023f6:	4011      	ands	r1, r2
 80023f8:	430b      	orrs	r3, r1
 80023fa:	4303      	orrs	r3, r0
 80023fc:	6123      	str	r3, [r4, #16]
 80023fe:	6823      	ldr	r3, [r4, #0]
 8002400:	f043 6380 	orr.w	r3, r3, #67108864	; 0x4000000
 8002404:	6023      	str	r3, [r4, #0]
 8002406:	f7ff f91b 	bl	8001640 <HAL_GetTick>
 800240a:	4606      	mov	r6, r0
 800240c:	6823      	ldr	r3, [r4, #0]
 800240e:	011b      	lsls	r3, r3, #4
 8002410:	d510      	bpl.n	8002434 <RCCEx_PLLSAI1_Config+0xe8>
 8002412:	6923      	ldr	r3, [r4, #16]
 8002414:	69aa      	ldr	r2, [r5, #24]
 8002416:	4313      	orrs	r3, r2
 8002418:	6123      	str	r3, [r4, #16]
 800241a:	2000      	movs	r0, #0
 800241c:	e7e5      	b.n	80023ea <RCCEx_PLLSAI1_Config+0x9e>
 800241e:	696b      	ldr	r3, [r5, #20]
 8002420:	6921      	ldr	r1, [r4, #16]
 8002422:	085b      	lsrs	r3, r3, #1
 8002424:	1e5a      	subs	r2, r3, #1
 8002426:	4b0a      	ldr	r3, [pc, #40]	; (8002450 <RCCEx_PLLSAI1_Config+0x104>)
 8002428:	400b      	ands	r3, r1
 800242a:	4333      	orrs	r3, r6
 800242c:	4303      	orrs	r3, r0
 800242e:	ea43 6342 	orr.w	r3, r3, r2, lsl #25
 8002432:	e7e3      	b.n	80023fc <RCCEx_PLLSAI1_Config+0xb0>
 8002434:	f7ff f904 	bl	8001640 <HAL_GetTick>
 8002438:	1b80      	subs	r0, r0, r6
 800243a:	2802      	cmp	r0, #2
 800243c:	d9e6      	bls.n	800240c <RCCEx_PLLSAI1_Config+0xc0>
 800243e:	e7d3      	b.n	80023e8 <RCCEx_PLLSAI1_Config+0x9c>
 8002440:	2001      	movs	r0, #1
 8002442:	e7d2      	b.n	80023ea <RCCEx_PLLSAI1_Config+0x9e>
 8002444:	40021000 	.word	0x40021000
 8002448:	ff9f800f 	.word	0xff9f800f
 800244c:	07ff800f 	.word	0x07ff800f
 8002450:	f9ff800f 	.word	0xf9ff800f

08002454 <RCCEx_PLLSAI2_Config.constprop.0>:
 8002454:	4a30      	ldr	r2, [pc, #192]	; (8002518 <RCCEx_PLLSAI2_Config.constprop.0+0xc4>)
 8002456:	6803      	ldr	r3, [r0, #0]
 8002458:	68d1      	ldr	r1, [r2, #12]
 800245a:	f011 0f03 	tst.w	r1, #3
 800245e:	b570      	push	{r4, r5, r6, lr}
 8002460:	4605      	mov	r5, r0
 8002462:	4614      	mov	r4, r2
 8002464:	d026      	beq.n	80024b4 <RCCEx_PLLSAI2_Config.constprop.0+0x60>
 8002466:	68d2      	ldr	r2, [r2, #12]
 8002468:	f002 0203 	and.w	r2, r2, #3
 800246c:	429a      	cmp	r2, r3
 800246e:	d151      	bne.n	8002514 <RCCEx_PLLSAI2_Config.constprop.0+0xc0>
 8002470:	2a00      	cmp	r2, #0
 8002472:	d04f      	beq.n	8002514 <RCCEx_PLLSAI2_Config.constprop.0+0xc0>
 8002474:	6823      	ldr	r3, [r4, #0]
 8002476:	f023 5380 	bic.w	r3, r3, #268435456	; 0x10000000
 800247a:	6023      	str	r3, [r4, #0]
 800247c:	f7ff f8e0 	bl	8001640 <HAL_GetTick>
 8002480:	4606      	mov	r6, r0
 8002482:	6823      	ldr	r3, [r4, #0]
 8002484:	009a      	lsls	r2, r3, #2
 8002486:	d430      	bmi.n	80024ea <RCCEx_PLLSAI2_Config.constprop.0+0x96>
 8002488:	e9d5 2302 	ldrd	r2, r3, [r5, #8]
 800248c:	06db      	lsls	r3, r3, #27
 800248e:	6961      	ldr	r1, [r4, #20]
 8002490:	ea43 2302 	orr.w	r3, r3, r2, lsl #8
 8002494:	4a21      	ldr	r2, [pc, #132]	; (800251c <RCCEx_PLLSAI2_Config.constprop.0+0xc8>)
 8002496:	400a      	ands	r2, r1
 8002498:	4313      	orrs	r3, r2
 800249a:	686a      	ldr	r2, [r5, #4]
 800249c:	3a01      	subs	r2, #1
 800249e:	ea43 1302 	orr.w	r3, r3, r2, lsl #4
 80024a2:	6163      	str	r3, [r4, #20]
 80024a4:	6823      	ldr	r3, [r4, #0]
 80024a6:	f043 5380 	orr.w	r3, r3, #268435456	; 0x10000000
 80024aa:	6023      	str	r3, [r4, #0]
 80024ac:	f7ff f8c8 	bl	8001640 <HAL_GetTick>
 80024b0:	4606      	mov	r6, r0
 80024b2:	e026      	b.n	8002502 <RCCEx_PLLSAI2_Config.constprop.0+0xae>
 80024b4:	2b02      	cmp	r3, #2
 80024b6:	d00d      	beq.n	80024d4 <RCCEx_PLLSAI2_Config.constprop.0+0x80>
 80024b8:	2b03      	cmp	r3, #3
 80024ba:	d00f      	beq.n	80024dc <RCCEx_PLLSAI2_Config.constprop.0+0x88>
 80024bc:	2b01      	cmp	r3, #1
 80024be:	d129      	bne.n	8002514 <RCCEx_PLLSAI2_Config.constprop.0+0xc0>
 80024c0:	6812      	ldr	r2, [r2, #0]
 80024c2:	f012 0f02 	tst.w	r2, #2
 80024c6:	d025      	beq.n	8002514 <RCCEx_PLLSAI2_Config.constprop.0+0xc0>
 80024c8:	68e0      	ldr	r0, [r4, #12]
 80024ca:	f020 0003 	bic.w	r0, r0, #3
 80024ce:	4318      	orrs	r0, r3
 80024d0:	60e0      	str	r0, [r4, #12]
 80024d2:	e7cf      	b.n	8002474 <RCCEx_PLLSAI2_Config.constprop.0+0x20>
 80024d4:	6812      	ldr	r2, [r2, #0]
 80024d6:	f412 6f80 	tst.w	r2, #1024	; 0x400
 80024da:	e7f4      	b.n	80024c6 <RCCEx_PLLSAI2_Config.constprop.0+0x72>
 80024dc:	6811      	ldr	r1, [r2, #0]
 80024de:	0389      	lsls	r1, r1, #14
 80024e0:	d4f2      	bmi.n	80024c8 <RCCEx_PLLSAI2_Config.constprop.0+0x74>
 80024e2:	6812      	ldr	r2, [r2, #0]
 80024e4:	f412 2f80 	tst.w	r2, #262144	; 0x40000
 80024e8:	e7ed      	b.n	80024c6 <RCCEx_PLLSAI2_Config.constprop.0+0x72>
 80024ea:	f7ff f8a9 	bl	8001640 <HAL_GetTick>
 80024ee:	1b80      	subs	r0, r0, r6
 80024f0:	2802      	cmp	r0, #2
 80024f2:	d9c6      	bls.n	8002482 <RCCEx_PLLSAI2_Config.constprop.0+0x2e>
 80024f4:	2003      	movs	r0, #3
 80024f6:	bd70      	pop	{r4, r5, r6, pc}
 80024f8:	f7ff f8a2 	bl	8001640 <HAL_GetTick>
 80024fc:	1b80      	subs	r0, r0, r6
 80024fe:	2802      	cmp	r0, #2
 8002500:	d8f8      	bhi.n	80024f4 <RCCEx_PLLSAI2_Config.constprop.0+0xa0>
 8002502:	6823      	ldr	r3, [r4, #0]
 8002504:	009b      	lsls	r3, r3, #2
 8002506:	d5f7      	bpl.n	80024f8 <RCCEx_PLLSAI2_Config.constprop.0+0xa4>
 8002508:	6963      	ldr	r3, [r4, #20]
 800250a:	69aa      	ldr	r2, [r5, #24]
 800250c:	4313      	orrs	r3, r2
 800250e:	6163      	str	r3, [r4, #20]
 8002510:	2000      	movs	r0, #0
 8002512:	e7f0      	b.n	80024f6 <RCCEx_PLLSAI2_Config.constprop.0+0xa2>
 8002514:	2001      	movs	r0, #1
 8002516:	e7ee      	b.n	80024f6 <RCCEx_PLLSAI2_Config.constprop.0+0xa2>
 8002518:	40021000 	.word	0x40021000
 800251c:	07ff800f 	.word	0x07ff800f

08002520 <HAL_RCCEx_PeriphCLKConfig>:
 8002520:	e92d 47f3 	stmdb	sp!, {r0, r1, r4, r5, r6, r7, r8, r9, sl, lr}
 8002524:	6806      	ldr	r6, [r0, #0]
 8002526:	f416 6600 	ands.w	r6, r6, #2048	; 0x800
 800252a:	4604      	mov	r4, r0
 800252c:	d007      	beq.n	800253e <HAL_RCCEx_PeriphCLKConfig+0x1e>
 800252e:	6ec1      	ldr	r1, [r0, #108]	; 0x6c
 8002530:	2940      	cmp	r1, #64	; 0x40
 8002532:	d022      	beq.n	800257a <HAL_RCCEx_PeriphCLKConfig+0x5a>
 8002534:	d812      	bhi.n	800255c <HAL_RCCEx_PeriphCLKConfig+0x3c>
 8002536:	b331      	cbz	r1, 8002586 <HAL_RCCEx_PeriphCLKConfig+0x66>
 8002538:	2920      	cmp	r1, #32
 800253a:	d02b      	beq.n	8002594 <HAL_RCCEx_PeriphCLKConfig+0x74>
 800253c:	2601      	movs	r6, #1
 800253e:	6823      	ldr	r3, [r4, #0]
 8002540:	04db      	lsls	r3, r3, #19
 8002542:	d509      	bpl.n	8002558 <HAL_RCCEx_PeriphCLKConfig+0x38>
 8002544:	6f21      	ldr	r1, [r4, #112]	; 0x70
 8002546:	f5b1 7f00 	cmp.w	r1, #512	; 0x200
 800254a:	d02f      	beq.n	80025ac <HAL_RCCEx_PeriphCLKConfig+0x8c>
 800254c:	d826      	bhi.n	800259c <HAL_RCCEx_PeriphCLKConfig+0x7c>
 800254e:	b399      	cbz	r1, 80025b8 <HAL_RCCEx_PeriphCLKConfig+0x98>
 8002550:	f5b1 7f80 	cmp.w	r1, #256	; 0x100
 8002554:	d073      	beq.n	800263e <HAL_RCCEx_PeriphCLKConfig+0x11e>
 8002556:	2601      	movs	r6, #1
 8002558:	4635      	mov	r5, r6
 800255a:	e03c      	b.n	80025d6 <HAL_RCCEx_PeriphCLKConfig+0xb6>
 800255c:	2960      	cmp	r1, #96	; 0x60
 800255e:	d001      	beq.n	8002564 <HAL_RCCEx_PeriphCLKConfig+0x44>
 8002560:	2980      	cmp	r1, #128	; 0x80
 8002562:	d1eb      	bne.n	800253c <HAL_RCCEx_PeriphCLKConfig+0x1c>
 8002564:	4a3b      	ldr	r2, [pc, #236]	; (8002654 <HAL_RCCEx_PeriphCLKConfig+0x134>)
 8002566:	6ee1      	ldr	r1, [r4, #108]	; 0x6c
 8002568:	f8d2 309c 	ldr.w	r3, [r2, #156]	; 0x9c
 800256c:	f023 03e0 	bic.w	r3, r3, #224	; 0xe0
 8002570:	430b      	orrs	r3, r1
 8002572:	f8c2 309c 	str.w	r3, [r2, #156]	; 0x9c
 8002576:	2600      	movs	r6, #0
 8002578:	e7e1      	b.n	800253e <HAL_RCCEx_PeriphCLKConfig+0x1e>
 800257a:	4a36      	ldr	r2, [pc, #216]	; (8002654 <HAL_RCCEx_PeriphCLKConfig+0x134>)
 800257c:	68d3      	ldr	r3, [r2, #12]
 800257e:	f443 3380 	orr.w	r3, r3, #65536	; 0x10000
 8002582:	60d3      	str	r3, [r2, #12]
 8002584:	e7ee      	b.n	8002564 <HAL_RCCEx_PeriphCLKConfig+0x44>
 8002586:	3004      	adds	r0, #4
 8002588:	f7ff fee0 	bl	800234c <RCCEx_PLLSAI1_Config>
 800258c:	4606      	mov	r6, r0
 800258e:	2800      	cmp	r0, #0
 8002590:	d1d5      	bne.n	800253e <HAL_RCCEx_PeriphCLKConfig+0x1e>
 8002592:	e7e7      	b.n	8002564 <HAL_RCCEx_PeriphCLKConfig+0x44>
 8002594:	3020      	adds	r0, #32
 8002596:	f7ff ff5d 	bl	8002454 <RCCEx_PLLSAI2_Config.constprop.0>
 800259a:	e7f7      	b.n	800258c <HAL_RCCEx_PeriphCLKConfig+0x6c>
 800259c:	f5b1 7f40 	cmp.w	r1, #768	; 0x300
 80025a0:	d002      	beq.n	80025a8 <HAL_RCCEx_PeriphCLKConfig+0x88>
 80025a2:	f5b1 6f80 	cmp.w	r1, #1024	; 0x400
 80025a6:	d1d6      	bne.n	8002556 <HAL_RCCEx_PeriphCLKConfig+0x36>
 80025a8:	4635      	mov	r5, r6
 80025aa:	e009      	b.n	80025c0 <HAL_RCCEx_PeriphCLKConfig+0xa0>
 80025ac:	4a29      	ldr	r2, [pc, #164]	; (8002654 <HAL_RCCEx_PeriphCLKConfig+0x134>)
 80025ae:	68d3      	ldr	r3, [r2, #12]
 80025b0:	f443 3380 	orr.w	r3, r3, #65536	; 0x10000
 80025b4:	60d3      	str	r3, [r2, #12]
 80025b6:	e7f7      	b.n	80025a8 <HAL_RCCEx_PeriphCLKConfig+0x88>
 80025b8:	1d20      	adds	r0, r4, #4
 80025ba:	f7ff fec7 	bl	800234c <RCCEx_PLLSAI1_Config>
 80025be:	4605      	mov	r5, r0
 80025c0:	2d00      	cmp	r5, #0
 80025c2:	d141      	bne.n	8002648 <HAL_RCCEx_PeriphCLKConfig+0x128>
 80025c4:	4a23      	ldr	r2, [pc, #140]	; (8002654 <HAL_RCCEx_PeriphCLKConfig+0x134>)
 80025c6:	6f21      	ldr	r1, [r4, #112]	; 0x70
 80025c8:	f8d2 309c 	ldr.w	r3, [r2, #156]	; 0x9c
 80025cc:	f423 63e0 	bic.w	r3, r3, #1792	; 0x700
 80025d0:	430b      	orrs	r3, r1
 80025d2:	f8c2 309c 	str.w	r3, [r2, #156]	; 0x9c
 80025d6:	6823      	ldr	r3, [r4, #0]
 80025d8:	039f      	lsls	r7, r3, #14
 80025da:	f140 817d 	bpl.w	80028d8 <HAL_RCCEx_PeriphCLKConfig+0x3b8>
 80025de:	4f1d      	ldr	r7, [pc, #116]	; (8002654 <HAL_RCCEx_PeriphCLKConfig+0x134>)
 80025e0:	6dbb      	ldr	r3, [r7, #88]	; 0x58
 80025e2:	00d8      	lsls	r0, r3, #3
 80025e4:	d432      	bmi.n	800264c <HAL_RCCEx_PeriphCLKConfig+0x12c>
 80025e6:	6dbb      	ldr	r3, [r7, #88]	; 0x58
 80025e8:	f043 5380 	orr.w	r3, r3, #268435456	; 0x10000000
 80025ec:	65bb      	str	r3, [r7, #88]	; 0x58
 80025ee:	6dbb      	ldr	r3, [r7, #88]	; 0x58
 80025f0:	f003 5380 	and.w	r3, r3, #268435456	; 0x10000000
 80025f4:	9301      	str	r3, [sp, #4]
 80025f6:	9b01      	ldr	r3, [sp, #4]
 80025f8:	f04f 0801 	mov.w	r8, #1
 80025fc:	f8df 9058 	ldr.w	r9, [pc, #88]	; 8002658 <HAL_RCCEx_PeriphCLKConfig+0x138>
 8002600:	f8d9 3000 	ldr.w	r3, [r9]
 8002604:	f443 7380 	orr.w	r3, r3, #256	; 0x100
 8002608:	f8c9 3000 	str.w	r3, [r9]
 800260c:	f7ff f818 	bl	8001640 <HAL_GetTick>
 8002610:	4682      	mov	sl, r0
 8002612:	f8d9 3000 	ldr.w	r3, [r9]
 8002616:	05d9      	lsls	r1, r3, #23
 8002618:	d520      	bpl.n	800265c <HAL_RCCEx_PeriphCLKConfig+0x13c>
 800261a:	bb35      	cbnz	r5, 800266a <HAL_RCCEx_PeriphCLKConfig+0x14a>
 800261c:	f8d7 3090 	ldr.w	r3, [r7, #144]	; 0x90
 8002620:	f413 7340 	ands.w	r3, r3, #768	; 0x300
 8002624:	f040 812e 	bne.w	8002884 <HAL_RCCEx_PeriphCLKConfig+0x364>
 8002628:	f8d7 3090 	ldr.w	r3, [r7, #144]	; 0x90
 800262c:	f8d4 2090 	ldr.w	r2, [r4, #144]	; 0x90
 8002630:	f423 7340 	bic.w	r3, r3, #768	; 0x300
 8002634:	4313      	orrs	r3, r2
 8002636:	f8c7 3090 	str.w	r3, [r7, #144]	; 0x90
 800263a:	4635      	mov	r5, r6
 800263c:	e015      	b.n	800266a <HAL_RCCEx_PeriphCLKConfig+0x14a>
 800263e:	f104 0020 	add.w	r0, r4, #32
 8002642:	f7ff ff07 	bl	8002454 <RCCEx_PLLSAI2_Config.constprop.0>
 8002646:	e7ba      	b.n	80025be <HAL_RCCEx_PeriphCLKConfig+0x9e>
 8002648:	462e      	mov	r6, r5
 800264a:	e7c4      	b.n	80025d6 <HAL_RCCEx_PeriphCLKConfig+0xb6>
 800264c:	f04f 0800 	mov.w	r8, #0
 8002650:	e7d4      	b.n	80025fc <HAL_RCCEx_PeriphCLKConfig+0xdc>
 8002652:	bf00      	nop
 8002654:	40021000 	.word	0x40021000
 8002658:	40007000 	.word	0x40007000
 800265c:	f7fe fff0 	bl	8001640 <HAL_GetTick>
 8002660:	eba0 000a 	sub.w	r0, r0, sl
 8002664:	2802      	cmp	r0, #2
 8002666:	d9d4      	bls.n	8002612 <HAL_RCCEx_PeriphCLKConfig+0xf2>
 8002668:	2503      	movs	r5, #3
 800266a:	f1b8 0f00 	cmp.w	r8, #0
 800266e:	d003      	beq.n	8002678 <HAL_RCCEx_PeriphCLKConfig+0x158>
 8002670:	6dbb      	ldr	r3, [r7, #88]	; 0x58
 8002672:	f023 5380 	bic.w	r3, r3, #268435456	; 0x10000000
 8002676:	65bb      	str	r3, [r7, #88]	; 0x58
 8002678:	6823      	ldr	r3, [r4, #0]
 800267a:	07d8      	lsls	r0, r3, #31
 800267c:	d508      	bpl.n	8002690 <HAL_RCCEx_PeriphCLKConfig+0x170>
 800267e:	49b2      	ldr	r1, [pc, #712]	; (8002948 <HAL_RCCEx_PeriphCLKConfig+0x428>)
 8002680:	6be0      	ldr	r0, [r4, #60]	; 0x3c
 8002682:	f8d1 2088 	ldr.w	r2, [r1, #136]	; 0x88
 8002686:	f022 0203 	bic.w	r2, r2, #3
 800268a:	4302      	orrs	r2, r0
 800268c:	f8c1 2088 	str.w	r2, [r1, #136]	; 0x88
 8002690:	0799      	lsls	r1, r3, #30
 8002692:	d508      	bpl.n	80026a6 <HAL_RCCEx_PeriphCLKConfig+0x186>
 8002694:	49ac      	ldr	r1, [pc, #688]	; (8002948 <HAL_RCCEx_PeriphCLKConfig+0x428>)
 8002696:	6c20      	ldr	r0, [r4, #64]	; 0x40
 8002698:	f8d1 2088 	ldr.w	r2, [r1, #136]	; 0x88
 800269c:	f022 020c 	bic.w	r2, r2, #12
 80026a0:	4302      	orrs	r2, r0
 80026a2:	f8c1 2088 	str.w	r2, [r1, #136]	; 0x88
 80026a6:	075a      	lsls	r2, r3, #29
 80026a8:	d508      	bpl.n	80026bc <HAL_RCCEx_PeriphCLKConfig+0x19c>
 80026aa:	49a7      	ldr	r1, [pc, #668]	; (8002948 <HAL_RCCEx_PeriphCLKConfig+0x428>)
 80026ac:	6c60      	ldr	r0, [r4, #68]	; 0x44
 80026ae:	f8d1 2088 	ldr.w	r2, [r1, #136]	; 0x88
 80026b2:	f022 0230 	bic.w	r2, r2, #48	; 0x30
 80026b6:	4302      	orrs	r2, r0
 80026b8:	f8c1 2088 	str.w	r2, [r1, #136]	; 0x88
 80026bc:	071f      	lsls	r7, r3, #28
 80026be:	d508      	bpl.n	80026d2 <HAL_RCCEx_PeriphCLKConfig+0x1b2>
 80026c0:	49a1      	ldr	r1, [pc, #644]	; (8002948 <HAL_RCCEx_PeriphCLKConfig+0x428>)
 80026c2:	6ca0      	ldr	r0, [r4, #72]	; 0x48
 80026c4:	f8d1 2088 	ldr.w	r2, [r1, #136]	; 0x88
 80026c8:	f022 02c0 	bic.w	r2, r2, #192	; 0xc0
 80026cc:	4302      	orrs	r2, r0
 80026ce:	f8c1 2088 	str.w	r2, [r1, #136]	; 0x88
 80026d2:	06de      	lsls	r6, r3, #27
 80026d4:	d508      	bpl.n	80026e8 <HAL_RCCEx_PeriphCLKConfig+0x1c8>
 80026d6:	499c      	ldr	r1, [pc, #624]	; (8002948 <HAL_RCCEx_PeriphCLKConfig+0x428>)
 80026d8:	6ce0      	ldr	r0, [r4, #76]	; 0x4c
 80026da:	f8d1 2088 	ldr.w	r2, [r1, #136]	; 0x88
 80026de:	f422 7240 	bic.w	r2, r2, #768	; 0x300
 80026e2:	4302      	orrs	r2, r0
 80026e4:	f8c1 2088 	str.w	r2, [r1, #136]	; 0x88
 80026e8:	0698      	lsls	r0, r3, #26
 80026ea:	d508      	bpl.n	80026fe <HAL_RCCEx_PeriphCLKConfig+0x1de>
 80026ec:	4996      	ldr	r1, [pc, #600]	; (8002948 <HAL_RCCEx_PeriphCLKConfig+0x428>)
 80026ee:	6d20      	ldr	r0, [r4, #80]	; 0x50
 80026f0:	f8d1 2088 	ldr.w	r2, [r1, #136]	; 0x88
 80026f4:	f422 6240 	bic.w	r2, r2, #3072	; 0xc00
 80026f8:	4302      	orrs	r2, r0
 80026fa:	f8c1 2088 	str.w	r2, [r1, #136]	; 0x88
 80026fe:	0599      	lsls	r1, r3, #22
 8002700:	d508      	bpl.n	8002714 <HAL_RCCEx_PeriphCLKConfig+0x1f4>
 8002702:	4991      	ldr	r1, [pc, #580]	; (8002948 <HAL_RCCEx_PeriphCLKConfig+0x428>)
 8002704:	6e60      	ldr	r0, [r4, #100]	; 0x64
 8002706:	f8d1 2088 	ldr.w	r2, [r1, #136]	; 0x88
 800270a:	f422 2240 	bic.w	r2, r2, #786432	; 0xc0000
 800270e:	4302      	orrs	r2, r0
 8002710:	f8c1 2088 	str.w	r2, [r1, #136]	; 0x88
 8002714:	055a      	lsls	r2, r3, #21
 8002716:	d508      	bpl.n	800272a <HAL_RCCEx_PeriphCLKConfig+0x20a>
 8002718:	498b      	ldr	r1, [pc, #556]	; (8002948 <HAL_RCCEx_PeriphCLKConfig+0x428>)
 800271a:	6ea0      	ldr	r0, [r4, #104]	; 0x68
 800271c:	f8d1 2088 	ldr.w	r2, [r1, #136]	; 0x88
 8002720:	f422 1240 	bic.w	r2, r2, #3145728	; 0x300000
 8002724:	4302      	orrs	r2, r0
 8002726:	f8c1 2088 	str.w	r2, [r1, #136]	; 0x88
 800272a:	065f      	lsls	r7, r3, #25
 800272c:	d508      	bpl.n	8002740 <HAL_RCCEx_PeriphCLKConfig+0x220>
 800272e:	4986      	ldr	r1, [pc, #536]	; (8002948 <HAL_RCCEx_PeriphCLKConfig+0x428>)
 8002730:	6d60      	ldr	r0, [r4, #84]	; 0x54
 8002732:	f8d1 2088 	ldr.w	r2, [r1, #136]	; 0x88
 8002736:	f422 5240 	bic.w	r2, r2, #12288	; 0x3000
 800273a:	4302      	orrs	r2, r0
 800273c:	f8c1 2088 	str.w	r2, [r1, #136]	; 0x88
 8002740:	061e      	lsls	r6, r3, #24
 8002742:	d508      	bpl.n	8002756 <HAL_RCCEx_PeriphCLKConfig+0x236>
 8002744:	4980      	ldr	r1, [pc, #512]	; (8002948 <HAL_RCCEx_PeriphCLKConfig+0x428>)
 8002746:	6da0      	ldr	r0, [r4, #88]	; 0x58
 8002748:	f8d1 2088 	ldr.w	r2, [r1, #136]	; 0x88
 800274c:	f422 4240 	bic.w	r2, r2, #49152	; 0xc000
 8002750:	4302      	orrs	r2, r0
 8002752:	f8c1 2088 	str.w	r2, [r1, #136]	; 0x88
 8002756:	05d8      	lsls	r0, r3, #23
 8002758:	d508      	bpl.n	800276c <HAL_RCCEx_PeriphCLKConfig+0x24c>
 800275a:	497b      	ldr	r1, [pc, #492]	; (8002948 <HAL_RCCEx_PeriphCLKConfig+0x428>)
 800275c:	6de0      	ldr	r0, [r4, #92]	; 0x5c
 800275e:	f8d1 2088 	ldr.w	r2, [r1, #136]	; 0x88
 8002762:	f422 3240 	bic.w	r2, r2, #196608	; 0x30000
 8002766:	4302      	orrs	r2, r0
 8002768:	f8c1 2088 	str.w	r2, [r1, #136]	; 0x88
 800276c:	02d9      	lsls	r1, r3, #11
 800276e:	d508      	bpl.n	8002782 <HAL_RCCEx_PeriphCLKConfig+0x262>
 8002770:	4975      	ldr	r1, [pc, #468]	; (8002948 <HAL_RCCEx_PeriphCLKConfig+0x428>)
 8002772:	6e20      	ldr	r0, [r4, #96]	; 0x60
 8002774:	f8d1 209c 	ldr.w	r2, [r1, #156]	; 0x9c
 8002778:	f022 0203 	bic.w	r2, r2, #3
 800277c:	4302      	orrs	r2, r0
 800277e:	f8c1 209c 	str.w	r2, [r1, #156]	; 0x9c
 8002782:	049a      	lsls	r2, r3, #18
 8002784:	d510      	bpl.n	80027a8 <HAL_RCCEx_PeriphCLKConfig+0x288>
 8002786:	4a70      	ldr	r2, [pc, #448]	; (8002948 <HAL_RCCEx_PeriphCLKConfig+0x428>)
 8002788:	6f61      	ldr	r1, [r4, #116]	; 0x74
 800278a:	f8d2 3088 	ldr.w	r3, [r2, #136]	; 0x88
 800278e:	f023 6340 	bic.w	r3, r3, #201326592	; 0xc000000
 8002792:	430b      	orrs	r3, r1
 8002794:	f1b1 6f00 	cmp.w	r1, #134217728	; 0x8000000
 8002798:	f8c2 3088 	str.w	r3, [r2, #136]	; 0x88
 800279c:	f040 809e 	bne.w	80028dc <HAL_RCCEx_PeriphCLKConfig+0x3bc>
 80027a0:	68d3      	ldr	r3, [r2, #12]
 80027a2:	f443 1380 	orr.w	r3, r3, #1048576	; 0x100000
 80027a6:	60d3      	str	r3, [r2, #12]
 80027a8:	6823      	ldr	r3, [r4, #0]
 80027aa:	031b      	lsls	r3, r3, #12
 80027ac:	d50f      	bpl.n	80027ce <HAL_RCCEx_PeriphCLKConfig+0x2ae>
 80027ae:	6fa1      	ldr	r1, [r4, #120]	; 0x78
 80027b0:	4b65      	ldr	r3, [pc, #404]	; (8002948 <HAL_RCCEx_PeriphCLKConfig+0x428>)
 80027b2:	f5b1 4f80 	cmp.w	r1, #16384	; 0x4000
 80027b6:	f8d3 209c 	ldr.w	r2, [r3, #156]	; 0x9c
 80027ba:	f040 809b 	bne.w	80028f4 <HAL_RCCEx_PeriphCLKConfig+0x3d4>
 80027be:	f442 4280 	orr.w	r2, r2, #16384	; 0x4000
 80027c2:	f8c3 209c 	str.w	r2, [r3, #156]	; 0x9c
 80027c6:	68da      	ldr	r2, [r3, #12]
 80027c8:	f442 3280 	orr.w	r2, r2, #65536	; 0x10000
 80027cc:	60da      	str	r2, [r3, #12]
 80027ce:	6823      	ldr	r3, [r4, #0]
 80027d0:	035f      	lsls	r7, r3, #13
 80027d2:	d510      	bpl.n	80027f6 <HAL_RCCEx_PeriphCLKConfig+0x2d6>
 80027d4:	4a5c      	ldr	r2, [pc, #368]	; (8002948 <HAL_RCCEx_PeriphCLKConfig+0x428>)
 80027d6:	6fe1      	ldr	r1, [r4, #124]	; 0x7c
 80027d8:	f8d2 3088 	ldr.w	r3, [r2, #136]	; 0x88
 80027dc:	f023 6340 	bic.w	r3, r3, #201326592	; 0xc000000
 80027e0:	430b      	orrs	r3, r1
 80027e2:	f1b1 6f00 	cmp.w	r1, #134217728	; 0x8000000
 80027e6:	f8c2 3088 	str.w	r3, [r2, #136]	; 0x88
 80027ea:	f040 80a1 	bne.w	8002930 <HAL_RCCEx_PeriphCLKConfig+0x410>
 80027ee:	68d3      	ldr	r3, [r2, #12]
 80027f0:	f443 1380 	orr.w	r3, r3, #1048576	; 0x100000
 80027f4:	60d3      	str	r3, [r2, #12]
 80027f6:	6823      	ldr	r3, [r4, #0]
 80027f8:	045e      	lsls	r6, r3, #17
 80027fa:	d513      	bpl.n	8002824 <HAL_RCCEx_PeriphCLKConfig+0x304>
 80027fc:	4952      	ldr	r1, [pc, #328]	; (8002948 <HAL_RCCEx_PeriphCLKConfig+0x428>)
 80027fe:	f8d4 2080 	ldr.w	r2, [r4, #128]	; 0x80
 8002802:	f8d1 3088 	ldr.w	r3, [r1, #136]	; 0x88
 8002806:	f023 5340 	bic.w	r3, r3, #805306368	; 0x30000000
 800280a:	4313      	orrs	r3, r2
 800280c:	f1b2 5f80 	cmp.w	r2, #268435456	; 0x10000000
 8002810:	f8c1 3088 	str.w	r3, [r1, #136]	; 0x88
 8002814:	d106      	bne.n	8002824 <HAL_RCCEx_PeriphCLKConfig+0x304>
 8002816:	2102      	movs	r1, #2
 8002818:	1d20      	adds	r0, r4, #4
 800281a:	f7ff fd97 	bl	800234c <RCCEx_PLLSAI1_Config>
 800281e:	2800      	cmp	r0, #0
 8002820:	bf18      	it	ne
 8002822:	4605      	movne	r5, r0
 8002824:	6822      	ldr	r2, [r4, #0]
 8002826:	03d0      	lsls	r0, r2, #15
 8002828:	d509      	bpl.n	800283e <HAL_RCCEx_PeriphCLKConfig+0x31e>
 800282a:	4947      	ldr	r1, [pc, #284]	; (8002948 <HAL_RCCEx_PeriphCLKConfig+0x428>)
 800282c:	f8d4 0084 	ldr.w	r0, [r4, #132]	; 0x84
 8002830:	f8d1 309c 	ldr.w	r3, [r1, #156]	; 0x9c
 8002834:	f023 0304 	bic.w	r3, r3, #4
 8002838:	4303      	orrs	r3, r0
 800283a:	f8c1 309c 	str.w	r3, [r1, #156]	; 0x9c
 800283e:	0291      	lsls	r1, r2, #10
 8002840:	d509      	bpl.n	8002856 <HAL_RCCEx_PeriphCLKConfig+0x336>
 8002842:	4941      	ldr	r1, [pc, #260]	; (8002948 <HAL_RCCEx_PeriphCLKConfig+0x428>)
 8002844:	f8d4 0088 	ldr.w	r0, [r4, #136]	; 0x88
 8002848:	f8d1 309c 	ldr.w	r3, [r1, #156]	; 0x9c
 800284c:	f023 0318 	bic.w	r3, r3, #24
 8002850:	4303      	orrs	r3, r0
 8002852:	f8c1 309c 	str.w	r3, [r1, #156]	; 0x9c
 8002856:	01d3      	lsls	r3, r2, #7
 8002858:	d510      	bpl.n	800287c <HAL_RCCEx_PeriphCLKConfig+0x35c>
 800285a:	4a3b      	ldr	r2, [pc, #236]	; (8002948 <HAL_RCCEx_PeriphCLKConfig+0x428>)
 800285c:	f8d4 108c 	ldr.w	r1, [r4, #140]	; 0x8c
 8002860:	f8d2 309c 	ldr.w	r3, [r2, #156]	; 0x9c
 8002864:	f423 1340 	bic.w	r3, r3, #3145728	; 0x300000
 8002868:	430b      	orrs	r3, r1
 800286a:	f8c2 309c 	str.w	r3, [r2, #156]	; 0x9c
 800286e:	f5b1 1f00 	cmp.w	r1, #2097152	; 0x200000
 8002872:	bf02      	ittt	eq
 8002874:	68d3      	ldreq	r3, [r2, #12]
 8002876:	f443 1380 	orreq.w	r3, r3, #1048576	; 0x100000
 800287a:	60d3      	streq	r3, [r2, #12]
 800287c:	4628      	mov	r0, r5
 800287e:	b002      	add	sp, #8
 8002880:	e8bd 87f0 	ldmia.w	sp!, {r4, r5, r6, r7, r8, r9, sl, pc}
 8002884:	f8d4 2090 	ldr.w	r2, [r4, #144]	; 0x90
 8002888:	429a      	cmp	r2, r3
 800288a:	f43f aecd 	beq.w	8002628 <HAL_RCCEx_PeriphCLKConfig+0x108>
 800288e:	f8d7 2090 	ldr.w	r2, [r7, #144]	; 0x90
 8002892:	f8d7 3090 	ldr.w	r3, [r7, #144]	; 0x90
 8002896:	f443 3380 	orr.w	r3, r3, #65536	; 0x10000
 800289a:	f8c7 3090 	str.w	r3, [r7, #144]	; 0x90
 800289e:	f8d7 3090 	ldr.w	r3, [r7, #144]	; 0x90
 80028a2:	f422 7140 	bic.w	r1, r2, #768	; 0x300
 80028a6:	f423 3380 	bic.w	r3, r3, #65536	; 0x10000
 80028aa:	07d2      	lsls	r2, r2, #31
 80028ac:	f8c7 3090 	str.w	r3, [r7, #144]	; 0x90
 80028b0:	f8c7 1090 	str.w	r1, [r7, #144]	; 0x90
 80028b4:	f57f aeb8 	bpl.w	8002628 <HAL_RCCEx_PeriphCLKConfig+0x108>
 80028b8:	f7fe fec2 	bl	8001640 <HAL_GetTick>
 80028bc:	f241 3988 	movw	r9, #5000	; 0x1388
 80028c0:	4605      	mov	r5, r0
 80028c2:	f8d7 3090 	ldr.w	r3, [r7, #144]	; 0x90
 80028c6:	079b      	lsls	r3, r3, #30
 80028c8:	f53f aeae 	bmi.w	8002628 <HAL_RCCEx_PeriphCLKConfig+0x108>
 80028cc:	f7fe feb8 	bl	8001640 <HAL_GetTick>
 80028d0:	1b40      	subs	r0, r0, r5
 80028d2:	4548      	cmp	r0, r9
 80028d4:	d9f5      	bls.n	80028c2 <HAL_RCCEx_PeriphCLKConfig+0x3a2>
 80028d6:	e6c7      	b.n	8002668 <HAL_RCCEx_PeriphCLKConfig+0x148>
 80028d8:	4635      	mov	r5, r6
 80028da:	e6cd      	b.n	8002678 <HAL_RCCEx_PeriphCLKConfig+0x158>
 80028dc:	f1b1 6f80 	cmp.w	r1, #67108864	; 0x4000000
 80028e0:	f47f af62 	bne.w	80027a8 <HAL_RCCEx_PeriphCLKConfig+0x288>
 80028e4:	2101      	movs	r1, #1
 80028e6:	1d20      	adds	r0, r4, #4
 80028e8:	f7ff fd30 	bl	800234c <RCCEx_PLLSAI1_Config>
 80028ec:	2800      	cmp	r0, #0
 80028ee:	bf18      	it	ne
 80028f0:	4605      	movne	r5, r0
 80028f2:	e759      	b.n	80027a8 <HAL_RCCEx_PeriphCLKConfig+0x288>
 80028f4:	f422 4280 	bic.w	r2, r2, #16384	; 0x4000
 80028f8:	f8c3 209c 	str.w	r2, [r3, #156]	; 0x9c
 80028fc:	f8d3 2088 	ldr.w	r2, [r3, #136]	; 0x88
 8002900:	f022 6240 	bic.w	r2, r2, #201326592	; 0xc000000
 8002904:	430a      	orrs	r2, r1
 8002906:	f1b1 6f00 	cmp.w	r1, #134217728	; 0x8000000
 800290a:	f8c3 2088 	str.w	r2, [r3, #136]	; 0x88
 800290e:	d103      	bne.n	8002918 <HAL_RCCEx_PeriphCLKConfig+0x3f8>
 8002910:	68da      	ldr	r2, [r3, #12]
 8002912:	f442 1280 	orr.w	r2, r2, #1048576	; 0x100000
 8002916:	e759      	b.n	80027cc <HAL_RCCEx_PeriphCLKConfig+0x2ac>
 8002918:	f1b1 6f80 	cmp.w	r1, #67108864	; 0x4000000
 800291c:	f47f af57 	bne.w	80027ce <HAL_RCCEx_PeriphCLKConfig+0x2ae>
 8002920:	2101      	movs	r1, #1
 8002922:	1d20      	adds	r0, r4, #4
 8002924:	f7ff fd12 	bl	800234c <RCCEx_PLLSAI1_Config>
 8002928:	2800      	cmp	r0, #0
 800292a:	bf18      	it	ne
 800292c:	4605      	movne	r5, r0
 800292e:	e74e      	b.n	80027ce <HAL_RCCEx_PeriphCLKConfig+0x2ae>
 8002930:	f1b1 6f80 	cmp.w	r1, #67108864	; 0x4000000
 8002934:	f47f af5f 	bne.w	80027f6 <HAL_RCCEx_PeriphCLKConfig+0x2d6>
 8002938:	2101      	movs	r1, #1
 800293a:	1d20      	adds	r0, r4, #4
 800293c:	f7ff fd06 	bl	800234c <RCCEx_PLLSAI1_Config>
 8002940:	2800      	cmp	r0, #0
 8002942:	bf18      	it	ne
 8002944:	4605      	movne	r5, r0
 8002946:	e756      	b.n	80027f6 <HAL_RCCEx_PeriphCLKConfig+0x2d6>
 8002948:	40021000 	.word	0x40021000

0800294c <HAL_TIM_Base_Start>:
 800294c:	f890 303d 	ldrb.w	r3, [r0, #61]	; 0x3d
 8002950:	2b01      	cmp	r3, #1
 8002952:	d12b      	bne.n	80029ac <HAL_TIM_Base_Start+0x60>
 8002954:	2302      	movs	r3, #2
 8002956:	4a16      	ldr	r2, [pc, #88]	; (80029b0 <HAL_TIM_Base_Start+0x64>)
 8002958:	f880 303d 	strb.w	r3, [r0, #61]	; 0x3d
 800295c:	6803      	ldr	r3, [r0, #0]
 800295e:	4293      	cmp	r3, r2
 8002960:	d016      	beq.n	8002990 <HAL_TIM_Base_Start+0x44>
 8002962:	f1b3 4f80 	cmp.w	r3, #1073741824	; 0x40000000
 8002966:	d013      	beq.n	8002990 <HAL_TIM_Base_Start+0x44>
 8002968:	f5a2 3294 	sub.w	r2, r2, #75776	; 0x12800
 800296c:	4293      	cmp	r3, r2
 800296e:	d00f      	beq.n	8002990 <HAL_TIM_Base_Start+0x44>
 8002970:	f502 6280 	add.w	r2, r2, #1024	; 0x400
 8002974:	4293      	cmp	r3, r2
 8002976:	d00b      	beq.n	8002990 <HAL_TIM_Base_Start+0x44>
 8002978:	f502 6280 	add.w	r2, r2, #1024	; 0x400
 800297c:	4293      	cmp	r3, r2
 800297e:	d007      	beq.n	8002990 <HAL_TIM_Base_Start+0x44>
 8002980:	f502 3294 	add.w	r2, r2, #75776	; 0x12800
 8002984:	4293      	cmp	r3, r2
 8002986:	d003      	beq.n	8002990 <HAL_TIM_Base_Start+0x44>
 8002988:	f502 6240 	add.w	r2, r2, #3072	; 0xc00
 800298c:	4293      	cmp	r3, r2
 800298e:	d107      	bne.n	80029a0 <HAL_TIM_Base_Start+0x54>
 8002990:	6899      	ldr	r1, [r3, #8]
 8002992:	4a08      	ldr	r2, [pc, #32]	; (80029b4 <HAL_TIM_Base_Start+0x68>)
 8002994:	400a      	ands	r2, r1
 8002996:	2a06      	cmp	r2, #6
 8002998:	d006      	beq.n	80029a8 <HAL_TIM_Base_Start+0x5c>
 800299a:	f5b2 3f80 	cmp.w	r2, #65536	; 0x10000
 800299e:	d003      	beq.n	80029a8 <HAL_TIM_Base_Start+0x5c>
 80029a0:	681a      	ldr	r2, [r3, #0]
 80029a2:	f042 0201 	orr.w	r2, r2, #1
 80029a6:	601a      	str	r2, [r3, #0]
 80029a8:	2000      	movs	r0, #0
 80029aa:	4770      	bx	lr
 80029ac:	2001      	movs	r0, #1
 80029ae:	4770      	bx	lr
 80029b0:	40012c00 	.word	0x40012c00
 80029b4:	00010007 	.word	0x00010007

080029b8 <TIM_Base_SetConfig>:
 80029b8:	4a30      	ldr	r2, [pc, #192]	; (8002a7c <TIM_Base_SetConfig+0xc4>)
 80029ba:	6803      	ldr	r3, [r0, #0]
 80029bc:	4290      	cmp	r0, r2
 80029be:	d012      	beq.n	80029e6 <TIM_Base_SetConfig+0x2e>
 80029c0:	f1b0 4f80 	cmp.w	r0, #1073741824	; 0x40000000
 80029c4:	d00f      	beq.n	80029e6 <TIM_Base_SetConfig+0x2e>
 80029c6:	f5a2 3294 	sub.w	r2, r2, #75776	; 0x12800
 80029ca:	4290      	cmp	r0, r2
 80029cc:	d00b      	beq.n	80029e6 <TIM_Base_SetConfig+0x2e>
 80029ce:	f502 6280 	add.w	r2, r2, #1024	; 0x400
 80029d2:	4290      	cmp	r0, r2
 80029d4:	d007      	beq.n	80029e6 <TIM_Base_SetConfig+0x2e>
 80029d6:	f502 6280 	add.w	r2, r2, #1024	; 0x400
 80029da:	4290      	cmp	r0, r2
 80029dc:	d003      	beq.n	80029e6 <TIM_Base_SetConfig+0x2e>
 80029de:	f502 3294 	add.w	r2, r2, #75776	; 0x12800
 80029e2:	4290      	cmp	r0, r2
 80029e4:	d119      	bne.n	8002a1a <TIM_Base_SetConfig+0x62>
 80029e6:	684a      	ldr	r2, [r1, #4]
 80029e8:	f023 0370 	bic.w	r3, r3, #112	; 0x70
 80029ec:	4313      	orrs	r3, r2
 80029ee:	4a23      	ldr	r2, [pc, #140]	; (8002a7c <TIM_Base_SetConfig+0xc4>)
 80029f0:	4290      	cmp	r0, r2
 80029f2:	d01d      	beq.n	8002a30 <TIM_Base_SetConfig+0x78>
 80029f4:	f1b0 4f80 	cmp.w	r0, #1073741824	; 0x40000000
 80029f8:	d01a      	beq.n	8002a30 <TIM_Base_SetConfig+0x78>
 80029fa:	f5a2 3294 	sub.w	r2, r2, #75776	; 0x12800
 80029fe:	4290      	cmp	r0, r2
 8002a00:	d016      	beq.n	8002a30 <TIM_Base_SetConfig+0x78>
 8002a02:	f502 6280 	add.w	r2, r2, #1024	; 0x400
 8002a06:	4290      	cmp	r0, r2
 8002a08:	d012      	beq.n	8002a30 <TIM_Base_SetConfig+0x78>
 8002a0a:	f502 6280 	add.w	r2, r2, #1024	; 0x400
 8002a0e:	4290      	cmp	r0, r2
 8002a10:	d00e      	beq.n	8002a30 <TIM_Base_SetConfig+0x78>
 8002a12:	f502 3294 	add.w	r2, r2, #75776	; 0x12800
 8002a16:	4290      	cmp	r0, r2
 8002a18:	d00a      	beq.n	8002a30 <TIM_Base_SetConfig+0x78>
 8002a1a:	4a19      	ldr	r2, [pc, #100]	; (8002a80 <TIM_Base_SetConfig+0xc8>)
 8002a1c:	4290      	cmp	r0, r2
 8002a1e:	d007      	beq.n	8002a30 <TIM_Base_SetConfig+0x78>
 8002a20:	f502 6280 	add.w	r2, r2, #1024	; 0x400
 8002a24:	4290      	cmp	r0, r2
 8002a26:	d003      	beq.n	8002a30 <TIM_Base_SetConfig+0x78>
 8002a28:	f502 6280 	add.w	r2, r2, #1024	; 0x400
 8002a2c:	4290      	cmp	r0, r2
 8002a2e:	d103      	bne.n	8002a38 <TIM_Base_SetConfig+0x80>
 8002a30:	68ca      	ldr	r2, [r1, #12]
 8002a32:	f423 7340 	bic.w	r3, r3, #768	; 0x300
 8002a36:	4313      	orrs	r3, r2
 8002a38:	694a      	ldr	r2, [r1, #20]
 8002a3a:	f023 0380 	bic.w	r3, r3, #128	; 0x80
 8002a3e:	4313      	orrs	r3, r2
 8002a40:	6003      	str	r3, [r0, #0]
 8002a42:	688b      	ldr	r3, [r1, #8]
 8002a44:	62c3      	str	r3, [r0, #44]	; 0x2c
 8002a46:	680b      	ldr	r3, [r1, #0]
 8002a48:	6283      	str	r3, [r0, #40]	; 0x28
 8002a4a:	4b0c      	ldr	r3, [pc, #48]	; (8002a7c <TIM_Base_SetConfig+0xc4>)
 8002a4c:	4298      	cmp	r0, r3
 8002a4e:	d00f      	beq.n	8002a70 <TIM_Base_SetConfig+0xb8>
 8002a50:	f503 6300 	add.w	r3, r3, #2048	; 0x800
 8002a54:	4298      	cmp	r0, r3
 8002a56:	d00b      	beq.n	8002a70 <TIM_Base_SetConfig+0xb8>
 8002a58:	f503 6340 	add.w	r3, r3, #3072	; 0xc00
 8002a5c:	4298      	cmp	r0, r3
 8002a5e:	d007      	beq.n	8002a70 <TIM_Base_SetConfig+0xb8>
 8002a60:	f503 6380 	add.w	r3, r3, #1024	; 0x400
 8002a64:	4298      	cmp	r0, r3
 8002a66:	d003      	beq.n	8002a70 <TIM_Base_SetConfig+0xb8>
 8002a68:	f503 6380 	add.w	r3, r3, #1024	; 0x400
 8002a6c:	4298      	cmp	r0, r3
 8002a6e:	d101      	bne.n	8002a74 <TIM_Base_SetConfig+0xbc>
 8002a70:	690b      	ldr	r3, [r1, #16]
 8002a72:	6303      	str	r3, [r0, #48]	; 0x30
 8002a74:	2301      	movs	r3, #1
 8002a76:	6143      	str	r3, [r0, #20]
 8002a78:	4770      	bx	lr
 8002a7a:	bf00      	nop
 8002a7c:	40012c00 	.word	0x40012c00
 8002a80:	40014000 	.word	0x40014000

08002a84 <HAL_TIM_Base_Init>:
 8002a84:	b510      	push	{r4, lr}
 8002a86:	4604      	mov	r4, r0
 8002a88:	b350      	cbz	r0, 8002ae0 <HAL_TIM_Base_Init+0x5c>
 8002a8a:	f890 303d 	ldrb.w	r3, [r0, #61]	; 0x3d
 8002a8e:	f003 02ff 	and.w	r2, r3, #255	; 0xff
 8002a92:	b91b      	cbnz	r3, 8002a9c <HAL_TIM_Base_Init+0x18>
 8002a94:	f880 203c 	strb.w	r2, [r0, #60]	; 0x3c
 8002a98:	f7fe fc72 	bl	8001380 <HAL_TIM_Base_MspInit>
 8002a9c:	2302      	movs	r3, #2
 8002a9e:	6820      	ldr	r0, [r4, #0]
 8002aa0:	f884 303d 	strb.w	r3, [r4, #61]	; 0x3d
 8002aa4:	1d21      	adds	r1, r4, #4
 8002aa6:	f7ff ff87 	bl	80029b8 <TIM_Base_SetConfig>
 8002aaa:	2301      	movs	r3, #1
 8002aac:	f884 3048 	strb.w	r3, [r4, #72]	; 0x48
 8002ab0:	2000      	movs	r0, #0
 8002ab2:	f884 303e 	strb.w	r3, [r4, #62]	; 0x3e
 8002ab6:	f884 303f 	strb.w	r3, [r4, #63]	; 0x3f
 8002aba:	f884 3040 	strb.w	r3, [r4, #64]	; 0x40
 8002abe:	f884 3041 	strb.w	r3, [r4, #65]	; 0x41
 8002ac2:	f884 3042 	strb.w	r3, [r4, #66]	; 0x42
 8002ac6:	f884 3043 	strb.w	r3, [r4, #67]	; 0x43
 8002aca:	f884 3044 	strb.w	r3, [r4, #68]	; 0x44
 8002ace:	f884 3045 	strb.w	r3, [r4, #69]	; 0x45
 8002ad2:	f884 3046 	strb.w	r3, [r4, #70]	; 0x46
 8002ad6:	f884 3047 	strb.w	r3, [r4, #71]	; 0x47
 8002ada:	f884 303d 	strb.w	r3, [r4, #61]	; 0x3d
 8002ade:	bd10      	pop	{r4, pc}
 8002ae0:	2001      	movs	r0, #1
 8002ae2:	e7fc      	b.n	8002ade <HAL_TIM_Base_Init+0x5a>

08002ae4 <UART_SetConfig>:
 8002ae4:	b5f8      	push	{r3, r4, r5, r6, r7, lr}
 8002ae6:	4604      	mov	r4, r0
 8002ae8:	6803      	ldr	r3, [r0, #0]
 8002aea:	6921      	ldr	r1, [r4, #16]
 8002aec:	68a2      	ldr	r2, [r4, #8]
 8002aee:	681d      	ldr	r5, [r3, #0]
 8002af0:	69c0      	ldr	r0, [r0, #28]
 8002af2:	430a      	orrs	r2, r1
 8002af4:	6961      	ldr	r1, [r4, #20]
 8002af6:	430a      	orrs	r2, r1
 8002af8:	49a1      	ldr	r1, [pc, #644]	; (8002d80 <UART_SetConfig+0x29c>)
 8002afa:	4302      	orrs	r2, r0
 8002afc:	4029      	ands	r1, r5
 8002afe:	430a      	orrs	r2, r1
 8002b00:	601a      	str	r2, [r3, #0]
 8002b02:	685a      	ldr	r2, [r3, #4]
 8002b04:	68e1      	ldr	r1, [r4, #12]
 8002b06:	f422 5240 	bic.w	r2, r2, #12288	; 0x3000
 8002b0a:	430a      	orrs	r2, r1
 8002b0c:	605a      	str	r2, [r3, #4]
 8002b0e:	4a9d      	ldr	r2, [pc, #628]	; (8002d84 <UART_SetConfig+0x2a0>)
 8002b10:	69a1      	ldr	r1, [r4, #24]
 8002b12:	4293      	cmp	r3, r2
 8002b14:	bf1c      	itt	ne
 8002b16:	6a22      	ldrne	r2, [r4, #32]
 8002b18:	4311      	orrne	r1, r2
 8002b1a:	689a      	ldr	r2, [r3, #8]
 8002b1c:	f022 426e 	bic.w	r2, r2, #3992977408	; 0xee000000
 8002b20:	f422 6230 	bic.w	r2, r2, #2816	; 0xb00
 8002b24:	430a      	orrs	r2, r1
 8002b26:	609a      	str	r2, [r3, #8]
 8002b28:	6ada      	ldr	r2, [r3, #44]	; 0x2c
 8002b2a:	6a61      	ldr	r1, [r4, #36]	; 0x24
 8002b2c:	f022 020f 	bic.w	r2, r2, #15
 8002b30:	430a      	orrs	r2, r1
 8002b32:	62da      	str	r2, [r3, #44]	; 0x2c
 8002b34:	4a94      	ldr	r2, [pc, #592]	; (8002d88 <UART_SetConfig+0x2a4>)
 8002b36:	4293      	cmp	r3, r2
 8002b38:	d11b      	bne.n	8002b72 <UART_SetConfig+0x8e>
 8002b3a:	4b94      	ldr	r3, [pc, #592]	; (8002d8c <UART_SetConfig+0x2a8>)
 8002b3c:	f8d3 3088 	ldr.w	r3, [r3, #136]	; 0x88
 8002b40:	f003 0303 	and.w	r3, r3, #3
 8002b44:	3b01      	subs	r3, #1
 8002b46:	2b02      	cmp	r3, #2
 8002b48:	f200 80e5 	bhi.w	8002d16 <UART_SetConfig+0x232>
 8002b4c:	4a90      	ldr	r2, [pc, #576]	; (8002d90 <UART_SetConfig+0x2ac>)
 8002b4e:	5cd3      	ldrb	r3, [r2, r3]
 8002b50:	f5b0 4f00 	cmp.w	r0, #32768	; 0x8000
 8002b54:	f040 80ab 	bne.w	8002cae <UART_SetConfig+0x1ca>
 8002b58:	2b08      	cmp	r3, #8
 8002b5a:	d826      	bhi.n	8002baa <UART_SetConfig+0xc6>
 8002b5c:	e8df f013 	tbh	[pc, r3, lsl #1]
 8002b60:	00de00ef 	.word	0x00de00ef
 8002b64:	002500a5 	.word	0x002500a5
 8002b68:	002500e4 	.word	0x002500e4
 8002b6c:	00250025 	.word	0x00250025
 8002b70:	00f3      	.short	0x00f3
 8002b72:	4a88      	ldr	r2, [pc, #544]	; (8002d94 <UART_SetConfig+0x2b0>)
 8002b74:	4293      	cmp	r3, r2
 8002b76:	d106      	bne.n	8002b86 <UART_SetConfig+0xa2>
 8002b78:	4b84      	ldr	r3, [pc, #528]	; (8002d8c <UART_SetConfig+0x2a8>)
 8002b7a:	4a87      	ldr	r2, [pc, #540]	; (8002d98 <UART_SetConfig+0x2b4>)
 8002b7c:	f8d3 3088 	ldr.w	r3, [r3, #136]	; 0x88
 8002b80:	f003 030c 	and.w	r3, r3, #12
 8002b84:	e7e3      	b.n	8002b4e <UART_SetConfig+0x6a>
 8002b86:	4a85      	ldr	r2, [pc, #532]	; (8002d9c <UART_SetConfig+0x2b8>)
 8002b88:	4293      	cmp	r3, r2
 8002b8a:	d119      	bne.n	8002bc0 <UART_SetConfig+0xdc>
 8002b8c:	4b7f      	ldr	r3, [pc, #508]	; (8002d8c <UART_SetConfig+0x2a8>)
 8002b8e:	f8d3 3088 	ldr.w	r3, [r3, #136]	; 0x88
 8002b92:	f003 0330 	and.w	r3, r3, #48	; 0x30
 8002b96:	2b20      	cmp	r3, #32
 8002b98:	f000 80c9 	beq.w	8002d2e <UART_SetConfig+0x24a>
 8002b9c:	d807      	bhi.n	8002bae <UART_SetConfig+0xca>
 8002b9e:	2b00      	cmp	r3, #0
 8002ba0:	f000 80ca 	beq.w	8002d38 <UART_SetConfig+0x254>
 8002ba4:	2b10      	cmp	r3, #16
 8002ba6:	f000 80bc 	beq.w	8002d22 <UART_SetConfig+0x23e>
 8002baa:	2001      	movs	r0, #1
 8002bac:	e04e      	b.n	8002c4c <UART_SetConfig+0x168>
 8002bae:	2b30      	cmp	r3, #48	; 0x30
 8002bb0:	d1fb      	bne.n	8002baa <UART_SetConfig+0xc6>
 8002bb2:	f5b0 4f00 	cmp.w	r0, #32768	; 0x8000
 8002bb6:	f000 80c6 	beq.w	8002d46 <UART_SetConfig+0x262>
 8002bba:	f44f 4000 	mov.w	r0, #32768	; 0x8000
 8002bbe:	e093      	b.n	8002ce8 <UART_SetConfig+0x204>
 8002bc0:	4a77      	ldr	r2, [pc, #476]	; (8002da0 <UART_SetConfig+0x2bc>)
 8002bc2:	4293      	cmp	r3, r2
 8002bc4:	d10f      	bne.n	8002be6 <UART_SetConfig+0x102>
 8002bc6:	4b71      	ldr	r3, [pc, #452]	; (8002d8c <UART_SetConfig+0x2a8>)
 8002bc8:	f8d3 3088 	ldr.w	r3, [r3, #136]	; 0x88
 8002bcc:	f003 03c0 	and.w	r3, r3, #192	; 0xc0
 8002bd0:	2b80      	cmp	r3, #128	; 0x80
 8002bd2:	f000 80ac 	beq.w	8002d2e <UART_SetConfig+0x24a>
 8002bd6:	d804      	bhi.n	8002be2 <UART_SetConfig+0xfe>
 8002bd8:	2b00      	cmp	r3, #0
 8002bda:	f000 80ad 	beq.w	8002d38 <UART_SetConfig+0x254>
 8002bde:	2b40      	cmp	r3, #64	; 0x40
 8002be0:	e7e1      	b.n	8002ba6 <UART_SetConfig+0xc2>
 8002be2:	2bc0      	cmp	r3, #192	; 0xc0
 8002be4:	e7e4      	b.n	8002bb0 <UART_SetConfig+0xcc>
 8002be6:	4a6f      	ldr	r2, [pc, #444]	; (8002da4 <UART_SetConfig+0x2c0>)
 8002be8:	4293      	cmp	r3, r2
 8002bea:	d112      	bne.n	8002c12 <UART_SetConfig+0x12e>
 8002bec:	4b67      	ldr	r3, [pc, #412]	; (8002d8c <UART_SetConfig+0x2a8>)
 8002bee:	f8d3 3088 	ldr.w	r3, [r3, #136]	; 0x88
 8002bf2:	f403 7340 	and.w	r3, r3, #768	; 0x300
 8002bf6:	f5b3 7f00 	cmp.w	r3, #512	; 0x200
 8002bfa:	f000 8098 	beq.w	8002d2e <UART_SetConfig+0x24a>
 8002bfe:	d805      	bhi.n	8002c0c <UART_SetConfig+0x128>
 8002c00:	2b00      	cmp	r3, #0
 8002c02:	f000 8099 	beq.w	8002d38 <UART_SetConfig+0x254>
 8002c06:	f5b3 7f80 	cmp.w	r3, #256	; 0x100
 8002c0a:	e7cc      	b.n	8002ba6 <UART_SetConfig+0xc2>
 8002c0c:	f5b3 7f40 	cmp.w	r3, #768	; 0x300
 8002c10:	e7ce      	b.n	8002bb0 <UART_SetConfig+0xcc>
 8002c12:	4a5c      	ldr	r2, [pc, #368]	; (8002d84 <UART_SetConfig+0x2a0>)
 8002c14:	4293      	cmp	r3, r2
 8002c16:	d1c8      	bne.n	8002baa <UART_SetConfig+0xc6>
 8002c18:	4b5c      	ldr	r3, [pc, #368]	; (8002d8c <UART_SetConfig+0x2a8>)
 8002c1a:	f8d3 3088 	ldr.w	r3, [r3, #136]	; 0x88
 8002c1e:	f403 6340 	and.w	r3, r3, #3072	; 0xc00
 8002c22:	f5b3 6f00 	cmp.w	r3, #2048	; 0x800
 8002c26:	d018      	beq.n	8002c5a <UART_SetConfig+0x176>
 8002c28:	d806      	bhi.n	8002c38 <UART_SetConfig+0x154>
 8002c2a:	b15b      	cbz	r3, 8002c44 <UART_SetConfig+0x160>
 8002c2c:	f5b3 6f80 	cmp.w	r3, #1024	; 0x400
 8002c30:	d1bb      	bne.n	8002baa <UART_SetConfig+0xc6>
 8002c32:	f7fe ff71 	bl	8001b18 <HAL_RCC_GetSysClockFreq>
 8002c36:	e007      	b.n	8002c48 <UART_SetConfig+0x164>
 8002c38:	f5b3 6f40 	cmp.w	r3, #3072	; 0xc00
 8002c3c:	d1b5      	bne.n	8002baa <UART_SetConfig+0xc6>
 8002c3e:	f44f 4000 	mov.w	r0, #32768	; 0x8000
 8002c42:	e00b      	b.n	8002c5c <UART_SetConfig+0x178>
 8002c44:	f7ff fb5e 	bl	8002304 <HAL_RCC_GetPCLK1Freq>
 8002c48:	b940      	cbnz	r0, 8002c5c <UART_SetConfig+0x178>
 8002c4a:	2000      	movs	r0, #0
 8002c4c:	f04f 1301 	mov.w	r3, #65537	; 0x10001
 8002c50:	66a3      	str	r3, [r4, #104]	; 0x68
 8002c52:	2300      	movs	r3, #0
 8002c54:	e9c4 331c 	strd	r3, r3, [r4, #112]	; 0x70
 8002c58:	bdf8      	pop	{r3, r4, r5, r6, r7, pc}
 8002c5a:	4853      	ldr	r0, [pc, #332]	; (8002da8 <UART_SetConfig+0x2c4>)
 8002c5c:	6865      	ldr	r5, [r4, #4]
 8002c5e:	4b53      	ldr	r3, [pc, #332]	; (8002dac <UART_SetConfig+0x2c8>)
 8002c60:	6a62      	ldr	r2, [r4, #36]	; 0x24
 8002c62:	eb05 0145 	add.w	r1, r5, r5, lsl #1
 8002c66:	f833 2012 	ldrh.w	r2, [r3, r2, lsl #1]
 8002c6a:	fbb0 f3f2 	udiv	r3, r0, r2
 8002c6e:	4299      	cmp	r1, r3
 8002c70:	d89b      	bhi.n	8002baa <UART_SetConfig+0xc6>
 8002c72:	ebb3 3f05 	cmp.w	r3, r5, lsl #12
 8002c76:	d898      	bhi.n	8002baa <UART_SetConfig+0xc6>
 8002c78:	2300      	movs	r3, #0
 8002c7a:	2100      	movs	r1, #0
 8002c7c:	f7fd ffac 	bl	8000bd8 <__aeabi_uldivmod>
 8002c80:	020f      	lsls	r7, r1, #8
 8002c82:	ea47 6710 	orr.w	r7, r7, r0, lsr #24
 8002c86:	0206      	lsls	r6, r0, #8
 8002c88:	0868      	lsrs	r0, r5, #1
 8002c8a:	1830      	adds	r0, r6, r0
 8002c8c:	462a      	mov	r2, r5
 8002c8e:	f04f 0300 	mov.w	r3, #0
 8002c92:	f147 0100 	adc.w	r1, r7, #0
 8002c96:	f7fd ff9f 	bl	8000bd8 <__aeabi_uldivmod>
 8002c9a:	4b45      	ldr	r3, [pc, #276]	; (8002db0 <UART_SetConfig+0x2cc>)
 8002c9c:	f5a0 7240 	sub.w	r2, r0, #768	; 0x300
 8002ca0:	429a      	cmp	r2, r3
 8002ca2:	d882      	bhi.n	8002baa <UART_SetConfig+0xc6>
 8002ca4:	6823      	ldr	r3, [r4, #0]
 8002ca6:	60d8      	str	r0, [r3, #12]
 8002ca8:	e7cf      	b.n	8002c4a <UART_SetConfig+0x166>
 8002caa:	483f      	ldr	r0, [pc, #252]	; (8002da8 <UART_SetConfig+0x2c4>)
 8002cac:	e04b      	b.n	8002d46 <UART_SetConfig+0x262>
 8002cae:	2b08      	cmp	r3, #8
 8002cb0:	f63f af7b 	bhi.w	8002baa <UART_SetConfig+0xc6>
 8002cb4:	a201      	add	r2, pc, #4	; (adr r2, 8002cbc <UART_SetConfig+0x1d8>)
 8002cb6:	f852 f023 	ldr.w	pc, [r2, r3, lsl #2]
 8002cba:	bf00      	nop
 8002cbc:	08002ce1 	.word	0x08002ce1
 8002cc0:	08002d0b 	.word	0x08002d0b
 8002cc4:	08002d35 	.word	0x08002d35
 8002cc8:	08002bab 	.word	0x08002bab
 8002ccc:	08002d11 	.word	0x08002d11
 8002cd0:	08002bab 	.word	0x08002bab
 8002cd4:	08002bab 	.word	0x08002bab
 8002cd8:	08002bab 	.word	0x08002bab
 8002cdc:	08002bbb 	.word	0x08002bbb
 8002ce0:	f7ff fb10 	bl	8002304 <HAL_RCC_GetPCLK1Freq>
 8002ce4:	2800      	cmp	r0, #0
 8002ce6:	d0b0      	beq.n	8002c4a <UART_SetConfig+0x166>
 8002ce8:	6863      	ldr	r3, [r4, #4]
 8002cea:	6a61      	ldr	r1, [r4, #36]	; 0x24
 8002cec:	4a2f      	ldr	r2, [pc, #188]	; (8002dac <UART_SetConfig+0x2c8>)
 8002cee:	f832 2011 	ldrh.w	r2, [r2, r1, lsl #1]
 8002cf2:	fbb0 f0f2 	udiv	r0, r0, r2
 8002cf6:	eb00 0053 	add.w	r0, r0, r3, lsr #1
 8002cfa:	fbb0 f0f3 	udiv	r0, r0, r3
 8002cfe:	b280      	uxth	r0, r0
 8002d00:	f1a0 0210 	sub.w	r2, r0, #16
 8002d04:	f64f 73ef 	movw	r3, #65519	; 0xffef
 8002d08:	e7ca      	b.n	8002ca0 <UART_SetConfig+0x1bc>
 8002d0a:	f7ff fb0d 	bl	8002328 <HAL_RCC_GetPCLK2Freq>
 8002d0e:	e7e9      	b.n	8002ce4 <UART_SetConfig+0x200>
 8002d10:	f7fe ff02 	bl	8001b18 <HAL_RCC_GetSysClockFreq>
 8002d14:	e7e6      	b.n	8002ce4 <UART_SetConfig+0x200>
 8002d16:	f5b0 4f00 	cmp.w	r0, #32768	; 0x8000
 8002d1a:	d1f6      	bne.n	8002d0a <UART_SetConfig+0x226>
 8002d1c:	f7ff fb04 	bl	8002328 <HAL_RCC_GetPCLK2Freq>
 8002d20:	e00f      	b.n	8002d42 <UART_SetConfig+0x25e>
 8002d22:	f5b0 4f00 	cmp.w	r0, #32768	; 0x8000
 8002d26:	d1f3      	bne.n	8002d10 <UART_SetConfig+0x22c>
 8002d28:	f7fe fef6 	bl	8001b18 <HAL_RCC_GetSysClockFreq>
 8002d2c:	e009      	b.n	8002d42 <UART_SetConfig+0x25e>
 8002d2e:	f5b0 4f00 	cmp.w	r0, #32768	; 0x8000
 8002d32:	d0ba      	beq.n	8002caa <UART_SetConfig+0x1c6>
 8002d34:	481c      	ldr	r0, [pc, #112]	; (8002da8 <UART_SetConfig+0x2c4>)
 8002d36:	e7d7      	b.n	8002ce8 <UART_SetConfig+0x204>
 8002d38:	f5b0 4f00 	cmp.w	r0, #32768	; 0x8000
 8002d3c:	d1d0      	bne.n	8002ce0 <UART_SetConfig+0x1fc>
 8002d3e:	f7ff fae1 	bl	8002304 <HAL_RCC_GetPCLK1Freq>
 8002d42:	2800      	cmp	r0, #0
 8002d44:	d081      	beq.n	8002c4a <UART_SetConfig+0x166>
 8002d46:	6862      	ldr	r2, [r4, #4]
 8002d48:	6a61      	ldr	r1, [r4, #36]	; 0x24
 8002d4a:	4b18      	ldr	r3, [pc, #96]	; (8002dac <UART_SetConfig+0x2c8>)
 8002d4c:	f833 3011 	ldrh.w	r3, [r3, r1, lsl #1]
 8002d50:	fbb0 f3f3 	udiv	r3, r0, r3
 8002d54:	0850      	lsrs	r0, r2, #1
 8002d56:	eb00 0043 	add.w	r0, r0, r3, lsl #1
 8002d5a:	fbb0 f0f2 	udiv	r0, r0, r2
 8002d5e:	b283      	uxth	r3, r0
 8002d60:	f1a3 0110 	sub.w	r1, r3, #16
 8002d64:	f64f 72ef 	movw	r2, #65519	; 0xffef
 8002d68:	4291      	cmp	r1, r2
 8002d6a:	f63f af1e 	bhi.w	8002baa <UART_SetConfig+0xc6>
 8002d6e:	f020 000f 	bic.w	r0, r0, #15
 8002d72:	6822      	ldr	r2, [r4, #0]
 8002d74:	b280      	uxth	r0, r0
 8002d76:	f3c3 0342 	ubfx	r3, r3, #1, #3
 8002d7a:	4318      	orrs	r0, r3
 8002d7c:	60d0      	str	r0, [r2, #12]
 8002d7e:	e764      	b.n	8002c4a <UART_SetConfig+0x166>
 8002d80:	cfff69f3 	.word	0xcfff69f3
 8002d84:	40008000 	.word	0x40008000
 8002d88:	40013800 	.word	0x40013800
 8002d8c:	40021000 	.word	0x40021000
 8002d90:	0800813c 	.word	0x0800813c
 8002d94:	40004400 	.word	0x40004400
 8002d98:	0800813f 	.word	0x0800813f
 8002d9c:	40004800 	.word	0x40004800
 8002da0:	40004c00 	.word	0x40004c00
 8002da4:	40005000 	.word	0x40005000
 8002da8:	00f42400 	.word	0x00f42400
 8002dac:	0800814c 	.word	0x0800814c
 8002db0:	000ffcff 	.word	0x000ffcff

08002db4 <UART_AdvFeatureConfig>:
 8002db4:	6a83      	ldr	r3, [r0, #40]	; 0x28
 8002db6:	07da      	lsls	r2, r3, #31
 8002db8:	b510      	push	{r4, lr}
 8002dba:	d506      	bpl.n	8002dca <UART_AdvFeatureConfig+0x16>
 8002dbc:	6801      	ldr	r1, [r0, #0]
 8002dbe:	6ac4      	ldr	r4, [r0, #44]	; 0x2c
 8002dc0:	684a      	ldr	r2, [r1, #4]
 8002dc2:	f422 3200 	bic.w	r2, r2, #131072	; 0x20000
 8002dc6:	4322      	orrs	r2, r4
 8002dc8:	604a      	str	r2, [r1, #4]
 8002dca:	079c      	lsls	r4, r3, #30
 8002dcc:	d506      	bpl.n	8002ddc <UART_AdvFeatureConfig+0x28>
 8002dce:	6801      	ldr	r1, [r0, #0]
 8002dd0:	6b04      	ldr	r4, [r0, #48]	; 0x30
 8002dd2:	684a      	ldr	r2, [r1, #4]
 8002dd4:	f422 3280 	bic.w	r2, r2, #65536	; 0x10000
 8002dd8:	4322      	orrs	r2, r4
 8002dda:	604a      	str	r2, [r1, #4]
 8002ddc:	0759      	lsls	r1, r3, #29
 8002dde:	d506      	bpl.n	8002dee <UART_AdvFeatureConfig+0x3a>
 8002de0:	6801      	ldr	r1, [r0, #0]
 8002de2:	6b44      	ldr	r4, [r0, #52]	; 0x34
 8002de4:	684a      	ldr	r2, [r1, #4]
 8002de6:	f422 2280 	bic.w	r2, r2, #262144	; 0x40000
 8002dea:	4322      	orrs	r2, r4
 8002dec:	604a      	str	r2, [r1, #4]
 8002dee:	071a      	lsls	r2, r3, #28
 8002df0:	d506      	bpl.n	8002e00 <UART_AdvFeatureConfig+0x4c>
 8002df2:	6801      	ldr	r1, [r0, #0]
 8002df4:	6b84      	ldr	r4, [r0, #56]	; 0x38
 8002df6:	684a      	ldr	r2, [r1, #4]
 8002df8:	f422 4200 	bic.w	r2, r2, #32768	; 0x8000
 8002dfc:	4322      	orrs	r2, r4
 8002dfe:	604a      	str	r2, [r1, #4]
 8002e00:	06dc      	lsls	r4, r3, #27
 8002e02:	d506      	bpl.n	8002e12 <UART_AdvFeatureConfig+0x5e>
 8002e04:	6801      	ldr	r1, [r0, #0]
 8002e06:	6bc4      	ldr	r4, [r0, #60]	; 0x3c
 8002e08:	688a      	ldr	r2, [r1, #8]
 8002e0a:	f422 5280 	bic.w	r2, r2, #4096	; 0x1000
 8002e0e:	4322      	orrs	r2, r4
 8002e10:	608a      	str	r2, [r1, #8]
 8002e12:	0699      	lsls	r1, r3, #26
 8002e14:	d506      	bpl.n	8002e24 <UART_AdvFeatureConfig+0x70>
 8002e16:	6801      	ldr	r1, [r0, #0]
 8002e18:	6c04      	ldr	r4, [r0, #64]	; 0x40
 8002e1a:	688a      	ldr	r2, [r1, #8]
 8002e1c:	f422 5200 	bic.w	r2, r2, #8192	; 0x2000
 8002e20:	4322      	orrs	r2, r4
 8002e22:	608a      	str	r2, [r1, #8]
 8002e24:	065a      	lsls	r2, r3, #25
 8002e26:	d50f      	bpl.n	8002e48 <UART_AdvFeatureConfig+0x94>
 8002e28:	6801      	ldr	r1, [r0, #0]
 8002e2a:	6c44      	ldr	r4, [r0, #68]	; 0x44
 8002e2c:	684a      	ldr	r2, [r1, #4]
 8002e2e:	f422 1280 	bic.w	r2, r2, #1048576	; 0x100000
 8002e32:	4322      	orrs	r2, r4
 8002e34:	f5b4 1f80 	cmp.w	r4, #1048576	; 0x100000
 8002e38:	604a      	str	r2, [r1, #4]
 8002e3a:	d105      	bne.n	8002e48 <UART_AdvFeatureConfig+0x94>
 8002e3c:	684a      	ldr	r2, [r1, #4]
 8002e3e:	6c84      	ldr	r4, [r0, #72]	; 0x48
 8002e40:	f422 02c0 	bic.w	r2, r2, #6291456	; 0x600000
 8002e44:	4322      	orrs	r2, r4
 8002e46:	604a      	str	r2, [r1, #4]
 8002e48:	061b      	lsls	r3, r3, #24
 8002e4a:	d506      	bpl.n	8002e5a <UART_AdvFeatureConfig+0xa6>
 8002e4c:	6802      	ldr	r2, [r0, #0]
 8002e4e:	6cc1      	ldr	r1, [r0, #76]	; 0x4c
 8002e50:	6853      	ldr	r3, [r2, #4]
 8002e52:	f423 2300 	bic.w	r3, r3, #524288	; 0x80000
 8002e56:	430b      	orrs	r3, r1
 8002e58:	6053      	str	r3, [r2, #4]
 8002e5a:	bd10      	pop	{r4, pc}

08002e5c <UART_WaitOnFlagUntilTimeout>:
 8002e5c:	e92d 41f0 	stmdb	sp!, {r4, r5, r6, r7, r8, lr}
 8002e60:	f8dd 8018 	ldr.w	r8, [sp, #24]
 8002e64:	4604      	mov	r4, r0
 8002e66:	460e      	mov	r6, r1
 8002e68:	4615      	mov	r5, r2
 8002e6a:	461f      	mov	r7, r3
 8002e6c:	6822      	ldr	r2, [r4, #0]
 8002e6e:	69d3      	ldr	r3, [r2, #28]
 8002e70:	ea36 0303 	bics.w	r3, r6, r3
 8002e74:	bf0c      	ite	eq
 8002e76:	2301      	moveq	r3, #1
 8002e78:	2300      	movne	r3, #0
 8002e7a:	42ab      	cmp	r3, r5
 8002e7c:	d001      	beq.n	8002e82 <UART_WaitOnFlagUntilTimeout+0x26>
 8002e7e:	2000      	movs	r0, #0
 8002e80:	e01c      	b.n	8002ebc <UART_WaitOnFlagUntilTimeout+0x60>
 8002e82:	f1b8 3fff 	cmp.w	r8, #4294967295
 8002e86:	d0f2      	beq.n	8002e6e <UART_WaitOnFlagUntilTimeout+0x12>
 8002e88:	f7fe fbda 	bl	8001640 <HAL_GetTick>
 8002e8c:	1bc0      	subs	r0, r0, r7
 8002e8e:	4540      	cmp	r0, r8
 8002e90:	6820      	ldr	r0, [r4, #0]
 8002e92:	6803      	ldr	r3, [r0, #0]
 8002e94:	d802      	bhi.n	8002e9c <UART_WaitOnFlagUntilTimeout+0x40>
 8002e96:	f1b8 0f00 	cmp.w	r8, #0
 8002e9a:	d111      	bne.n	8002ec0 <UART_WaitOnFlagUntilTimeout+0x64>
 8002e9c:	f423 73d0 	bic.w	r3, r3, #416	; 0x1a0
 8002ea0:	6003      	str	r3, [r0, #0]
 8002ea2:	6883      	ldr	r3, [r0, #8]
 8002ea4:	f023 0301 	bic.w	r3, r3, #1
 8002ea8:	6083      	str	r3, [r0, #8]
 8002eaa:	2320      	movs	r3, #32
 8002eac:	f8c4 3084 	str.w	r3, [r4, #132]	; 0x84
 8002eb0:	f8c4 3088 	str.w	r3, [r4, #136]	; 0x88
 8002eb4:	2300      	movs	r3, #0
 8002eb6:	f884 3080 	strb.w	r3, [r4, #128]	; 0x80
 8002eba:	2003      	movs	r0, #3
 8002ebc:	e8bd 81f0 	ldmia.w	sp!, {r4, r5, r6, r7, r8, pc}
 8002ec0:	075a      	lsls	r2, r3, #29
 8002ec2:	d5d3      	bpl.n	8002e6c <UART_WaitOnFlagUntilTimeout+0x10>
 8002ec4:	69c3      	ldr	r3, [r0, #28]
 8002ec6:	051b      	lsls	r3, r3, #20
 8002ec8:	d5d0      	bpl.n	8002e6c <UART_WaitOnFlagUntilTimeout+0x10>
 8002eca:	f44f 6300 	mov.w	r3, #2048	; 0x800
 8002ece:	6203      	str	r3, [r0, #32]
 8002ed0:	6803      	ldr	r3, [r0, #0]
 8002ed2:	f423 73d0 	bic.w	r3, r3, #416	; 0x1a0
 8002ed6:	6003      	str	r3, [r0, #0]
 8002ed8:	6883      	ldr	r3, [r0, #8]
 8002eda:	f023 0301 	bic.w	r3, r3, #1
 8002ede:	6083      	str	r3, [r0, #8]
 8002ee0:	2320      	movs	r3, #32
 8002ee2:	f8c4 3084 	str.w	r3, [r4, #132]	; 0x84
 8002ee6:	f8c4 3088 	str.w	r3, [r4, #136]	; 0x88
 8002eea:	f8c4 308c 	str.w	r3, [r4, #140]	; 0x8c
 8002eee:	e7e1      	b.n	8002eb4 <UART_WaitOnFlagUntilTimeout+0x58>

08002ef0 <HAL_UART_Transmit>:
 8002ef0:	e92d 41ff 	stmdb	sp!, {r0, r1, r2, r3, r4, r5, r6, r7, r8, lr}
 8002ef4:	4698      	mov	r8, r3
 8002ef6:	f8d0 3084 	ldr.w	r3, [r0, #132]	; 0x84
 8002efa:	2b20      	cmp	r3, #32
 8002efc:	4604      	mov	r4, r0
 8002efe:	460e      	mov	r6, r1
 8002f00:	4617      	mov	r7, r2
 8002f02:	d150      	bne.n	8002fa6 <HAL_UART_Transmit+0xb6>
 8002f04:	2900      	cmp	r1, #0
 8002f06:	d04c      	beq.n	8002fa2 <HAL_UART_Transmit+0xb2>
 8002f08:	2a00      	cmp	r2, #0
 8002f0a:	d04a      	beq.n	8002fa2 <HAL_UART_Transmit+0xb2>
 8002f0c:	f890 3080 	ldrb.w	r3, [r0, #128]	; 0x80
 8002f10:	2b01      	cmp	r3, #1
 8002f12:	d048      	beq.n	8002fa6 <HAL_UART_Transmit+0xb6>
 8002f14:	2301      	movs	r3, #1
 8002f16:	f880 3080 	strb.w	r3, [r0, #128]	; 0x80
 8002f1a:	2500      	movs	r5, #0
 8002f1c:	2321      	movs	r3, #33	; 0x21
 8002f1e:	f8c0 508c 	str.w	r5, [r0, #140]	; 0x8c
 8002f22:	f8c0 3084 	str.w	r3, [r0, #132]	; 0x84
 8002f26:	f7fe fb8b 	bl	8001640 <HAL_GetTick>
 8002f2a:	68a2      	ldr	r2, [r4, #8]
 8002f2c:	f8a4 7054 	strh.w	r7, [r4, #84]	; 0x54
 8002f30:	f5b2 5f80 	cmp.w	r2, #4096	; 0x1000
 8002f34:	4603      	mov	r3, r0
 8002f36:	f8a4 7056 	strh.w	r7, [r4, #86]	; 0x56
 8002f3a:	d103      	bne.n	8002f44 <HAL_UART_Transmit+0x54>
 8002f3c:	6922      	ldr	r2, [r4, #16]
 8002f3e:	b90a      	cbnz	r2, 8002f44 <HAL_UART_Transmit+0x54>
 8002f40:	4635      	mov	r5, r6
 8002f42:	4616      	mov	r6, r2
 8002f44:	2200      	movs	r2, #0
 8002f46:	f884 2080 	strb.w	r2, [r4, #128]	; 0x80
 8002f4a:	f8b4 2056 	ldrh.w	r2, [r4, #86]	; 0x56
 8002f4e:	f8cd 8000 	str.w	r8, [sp]
 8002f52:	b292      	uxth	r2, r2
 8002f54:	b942      	cbnz	r2, 8002f68 <HAL_UART_Transmit+0x78>
 8002f56:	2140      	movs	r1, #64	; 0x40
 8002f58:	4620      	mov	r0, r4
 8002f5a:	f7ff ff7f 	bl	8002e5c <UART_WaitOnFlagUntilTimeout>
 8002f5e:	b958      	cbnz	r0, 8002f78 <HAL_UART_Transmit+0x88>
 8002f60:	2320      	movs	r3, #32
 8002f62:	f8c4 3084 	str.w	r3, [r4, #132]	; 0x84
 8002f66:	e008      	b.n	8002f7a <HAL_UART_Transmit+0x8a>
 8002f68:	2200      	movs	r2, #0
 8002f6a:	2180      	movs	r1, #128	; 0x80
 8002f6c:	4620      	mov	r0, r4
 8002f6e:	9303      	str	r3, [sp, #12]
 8002f70:	f7ff ff74 	bl	8002e5c <UART_WaitOnFlagUntilTimeout>
 8002f74:	9b03      	ldr	r3, [sp, #12]
 8002f76:	b118      	cbz	r0, 8002f80 <HAL_UART_Transmit+0x90>
 8002f78:	2003      	movs	r0, #3
 8002f7a:	b004      	add	sp, #16
 8002f7c:	e8bd 81f0 	ldmia.w	sp!, {r4, r5, r6, r7, r8, pc}
 8002f80:	6821      	ldr	r1, [r4, #0]
 8002f82:	b95e      	cbnz	r6, 8002f9c <HAL_UART_Transmit+0xac>
 8002f84:	f835 2b02 	ldrh.w	r2, [r5], #2
 8002f88:	f3c2 0208 	ubfx	r2, r2, #0, #9
 8002f8c:	850a      	strh	r2, [r1, #40]	; 0x28
 8002f8e:	f8b4 2056 	ldrh.w	r2, [r4, #86]	; 0x56
 8002f92:	3a01      	subs	r2, #1
 8002f94:	b292      	uxth	r2, r2
 8002f96:	f8a4 2056 	strh.w	r2, [r4, #86]	; 0x56
 8002f9a:	e7d6      	b.n	8002f4a <HAL_UART_Transmit+0x5a>
 8002f9c:	f816 2b01 	ldrb.w	r2, [r6], #1
 8002fa0:	e7f4      	b.n	8002f8c <HAL_UART_Transmit+0x9c>
 8002fa2:	2001      	movs	r0, #1
 8002fa4:	e7e9      	b.n	8002f7a <HAL_UART_Transmit+0x8a>
 8002fa6:	2002      	movs	r0, #2
 8002fa8:	e7e7      	b.n	8002f7a <HAL_UART_Transmit+0x8a>

08002faa <UART_CheckIdleState>:
 8002faa:	b530      	push	{r4, r5, lr}
 8002fac:	4604      	mov	r4, r0
 8002fae:	2500      	movs	r5, #0
 8002fb0:	b085      	sub	sp, #20
 8002fb2:	f8c0 508c 	str.w	r5, [r0, #140]	; 0x8c
 8002fb6:	f7fe fb43 	bl	8001640 <HAL_GetTick>
 8002fba:	6822      	ldr	r2, [r4, #0]
 8002fbc:	6812      	ldr	r2, [r2, #0]
 8002fbe:	0711      	lsls	r1, r2, #28
 8002fc0:	4603      	mov	r3, r0
 8002fc2:	d417      	bmi.n	8002ff4 <UART_CheckIdleState+0x4a>
 8002fc4:	6822      	ldr	r2, [r4, #0]
 8002fc6:	6812      	ldr	r2, [r2, #0]
 8002fc8:	0752      	lsls	r2, r2, #29
 8002fca:	d509      	bpl.n	8002fe0 <UART_CheckIdleState+0x36>
 8002fcc:	f06f 427e 	mvn.w	r2, #4261412864	; 0xfe000000
 8002fd0:	9200      	str	r2, [sp, #0]
 8002fd2:	f44f 0180 	mov.w	r1, #4194304	; 0x400000
 8002fd6:	2200      	movs	r2, #0
 8002fd8:	4620      	mov	r0, r4
 8002fda:	f7ff ff3f 	bl	8002e5c <UART_WaitOnFlagUntilTimeout>
 8002fde:	b9b0      	cbnz	r0, 800300e <UART_CheckIdleState+0x64>
 8002fe0:	2320      	movs	r3, #32
 8002fe2:	2000      	movs	r0, #0
 8002fe4:	f8c4 3084 	str.w	r3, [r4, #132]	; 0x84
 8002fe8:	f884 0080 	strb.w	r0, [r4, #128]	; 0x80
 8002fec:	f8c4 3088 	str.w	r3, [r4, #136]	; 0x88
 8002ff0:	66e0      	str	r0, [r4, #108]	; 0x6c
 8002ff2:	e00d      	b.n	8003010 <UART_CheckIdleState+0x66>
 8002ff4:	f06f 427e 	mvn.w	r2, #4261412864	; 0xfe000000
 8002ff8:	9200      	str	r2, [sp, #0]
 8002ffa:	9003      	str	r0, [sp, #12]
 8002ffc:	462a      	mov	r2, r5
 8002ffe:	f44f 1100 	mov.w	r1, #2097152	; 0x200000
 8003002:	4620      	mov	r0, r4
 8003004:	f7ff ff2a 	bl	8002e5c <UART_WaitOnFlagUntilTimeout>
 8003008:	9b03      	ldr	r3, [sp, #12]
 800300a:	2800      	cmp	r0, #0
 800300c:	d0da      	beq.n	8002fc4 <UART_CheckIdleState+0x1a>
 800300e:	2003      	movs	r0, #3
 8003010:	b005      	add	sp, #20
 8003012:	bd30      	pop	{r4, r5, pc}

08003014 <HAL_UART_Init>:
 8003014:	b510      	push	{r4, lr}
 8003016:	4604      	mov	r4, r0
 8003018:	b350      	cbz	r0, 8003070 <HAL_UART_Init+0x5c>
 800301a:	f8d0 3084 	ldr.w	r3, [r0, #132]	; 0x84
 800301e:	b91b      	cbnz	r3, 8003028 <HAL_UART_Init+0x14>
 8003020:	f880 3080 	strb.w	r3, [r0, #128]	; 0x80
 8003024:	f7fe f9c0 	bl	80013a8 <HAL_UART_MspInit>
 8003028:	6822      	ldr	r2, [r4, #0]
 800302a:	2324      	movs	r3, #36	; 0x24
 800302c:	f8c4 3084 	str.w	r3, [r4, #132]	; 0x84
 8003030:	6813      	ldr	r3, [r2, #0]
 8003032:	f023 0301 	bic.w	r3, r3, #1
 8003036:	6013      	str	r3, [r2, #0]
 8003038:	4620      	mov	r0, r4
 800303a:	f7ff fd53 	bl	8002ae4 <UART_SetConfig>
 800303e:	2801      	cmp	r0, #1
 8003040:	d016      	beq.n	8003070 <HAL_UART_Init+0x5c>
 8003042:	6aa3      	ldr	r3, [r4, #40]	; 0x28
 8003044:	b113      	cbz	r3, 800304c <HAL_UART_Init+0x38>
 8003046:	4620      	mov	r0, r4
 8003048:	f7ff feb4 	bl	8002db4 <UART_AdvFeatureConfig>
 800304c:	6823      	ldr	r3, [r4, #0]
 800304e:	685a      	ldr	r2, [r3, #4]
 8003050:	f422 4290 	bic.w	r2, r2, #18432	; 0x4800
 8003054:	605a      	str	r2, [r3, #4]
 8003056:	689a      	ldr	r2, [r3, #8]
 8003058:	f022 022a 	bic.w	r2, r2, #42	; 0x2a
 800305c:	609a      	str	r2, [r3, #8]
 800305e:	681a      	ldr	r2, [r3, #0]
 8003060:	f042 0201 	orr.w	r2, r2, #1
 8003064:	4620      	mov	r0, r4
 8003066:	601a      	str	r2, [r3, #0]
 8003068:	e8bd 4010 	ldmia.w	sp!, {r4, lr}
 800306c:	f7ff bf9d 	b.w	8002faa <UART_CheckIdleState>
 8003070:	2001      	movs	r0, #1
 8003072:	bd10      	pop	{r4, pc}

08003074 <UARTEx_SetNbDataToProcess>:
 8003074:	6e43      	ldr	r3, [r0, #100]	; 0x64
 8003076:	b530      	push	{r4, r5, lr}
 8003078:	b91b      	cbnz	r3, 8003082 <UARTEx_SetNbDataToProcess+0xe>
 800307a:	f04f 1301 	mov.w	r3, #65537	; 0x10001
 800307e:	6683      	str	r3, [r0, #104]	; 0x68
 8003080:	bd30      	pop	{r4, r5, pc}
 8003082:	6803      	ldr	r3, [r0, #0]
 8003084:	4d0a      	ldr	r5, [pc, #40]	; (80030b0 <UARTEx_SetNbDataToProcess+0x3c>)
 8003086:	689a      	ldr	r2, [r3, #8]
 8003088:	6899      	ldr	r1, [r3, #8]
 800308a:	4c0a      	ldr	r4, [pc, #40]	; (80030b4 <UARTEx_SetNbDataToProcess+0x40>)
 800308c:	0f49      	lsrs	r1, r1, #29
 800308e:	f3c2 6242 	ubfx	r2, r2, #25, #3
 8003092:	5c6b      	ldrb	r3, [r5, r1]
 8003094:	5c61      	ldrb	r1, [r4, r1]
 8003096:	00db      	lsls	r3, r3, #3
 8003098:	fbb3 f3f1 	udiv	r3, r3, r1
 800309c:	f8a0 306a 	strh.w	r3, [r0, #106]	; 0x6a
 80030a0:	5cab      	ldrb	r3, [r5, r2]
 80030a2:	5ca2      	ldrb	r2, [r4, r2]
 80030a4:	00db      	lsls	r3, r3, #3
 80030a6:	fbb3 f3f2 	udiv	r3, r3, r2
 80030aa:	f8a0 3068 	strh.w	r3, [r0, #104]	; 0x68
 80030ae:	e7e7      	b.n	8003080 <UARTEx_SetNbDataToProcess+0xc>
 80030b0:	0800816c 	.word	0x0800816c
 80030b4:	08008164 	.word	0x08008164

080030b8 <HAL_UARTEx_DisableFifoMode>:
 80030b8:	f890 3080 	ldrb.w	r3, [r0, #128]	; 0x80
 80030bc:	2b01      	cmp	r3, #1
 80030be:	d014      	beq.n	80030ea <HAL_UARTEx_DisableFifoMode+0x32>
 80030c0:	6802      	ldr	r2, [r0, #0]
 80030c2:	2324      	movs	r3, #36	; 0x24
 80030c4:	f8c0 3084 	str.w	r3, [r0, #132]	; 0x84
 80030c8:	6811      	ldr	r1, [r2, #0]
 80030ca:	6813      	ldr	r3, [r2, #0]
 80030cc:	f023 0301 	bic.w	r3, r3, #1
 80030d0:	6013      	str	r3, [r2, #0]
 80030d2:	f021 5100 	bic.w	r1, r1, #536870912	; 0x20000000
 80030d6:	2300      	movs	r3, #0
 80030d8:	6643      	str	r3, [r0, #100]	; 0x64
 80030da:	6011      	str	r1, [r2, #0]
 80030dc:	2220      	movs	r2, #32
 80030de:	f8c0 2084 	str.w	r2, [r0, #132]	; 0x84
 80030e2:	f880 3080 	strb.w	r3, [r0, #128]	; 0x80
 80030e6:	4618      	mov	r0, r3
 80030e8:	4770      	bx	lr
 80030ea:	2002      	movs	r0, #2
 80030ec:	4770      	bx	lr

080030ee <HAL_UARTEx_SetTxFifoThreshold>:
 80030ee:	b538      	push	{r3, r4, r5, lr}
 80030f0:	f890 3080 	ldrb.w	r3, [r0, #128]	; 0x80
 80030f4:	2b01      	cmp	r3, #1
 80030f6:	4604      	mov	r4, r0
 80030f8:	d01b      	beq.n	8003132 <HAL_UARTEx_SetTxFifoThreshold+0x44>
 80030fa:	2301      	movs	r3, #1
 80030fc:	f880 3080 	strb.w	r3, [r0, #128]	; 0x80
 8003100:	2324      	movs	r3, #36	; 0x24
 8003102:	f8c0 3084 	str.w	r3, [r0, #132]	; 0x84
 8003106:	6803      	ldr	r3, [r0, #0]
 8003108:	681d      	ldr	r5, [r3, #0]
 800310a:	681a      	ldr	r2, [r3, #0]
 800310c:	f022 0201 	bic.w	r2, r2, #1
 8003110:	601a      	str	r2, [r3, #0]
 8003112:	689a      	ldr	r2, [r3, #8]
 8003114:	f022 4260 	bic.w	r2, r2, #3758096384	; 0xe0000000
 8003118:	4311      	orrs	r1, r2
 800311a:	6099      	str	r1, [r3, #8]
 800311c:	f7ff ffaa 	bl	8003074 <UARTEx_SetNbDataToProcess>
 8003120:	6803      	ldr	r3, [r0, #0]
 8003122:	601d      	str	r5, [r3, #0]
 8003124:	2320      	movs	r3, #32
 8003126:	f8c0 3084 	str.w	r3, [r0, #132]	; 0x84
 800312a:	2000      	movs	r0, #0
 800312c:	f884 0080 	strb.w	r0, [r4, #128]	; 0x80
 8003130:	bd38      	pop	{r3, r4, r5, pc}
 8003132:	2002      	movs	r0, #2
 8003134:	e7fc      	b.n	8003130 <HAL_UARTEx_SetTxFifoThreshold+0x42>

08003136 <HAL_UARTEx_SetRxFifoThreshold>:
 8003136:	b538      	push	{r3, r4, r5, lr}
 8003138:	f890 3080 	ldrb.w	r3, [r0, #128]	; 0x80
 800313c:	2b01      	cmp	r3, #1
 800313e:	4604      	mov	r4, r0
 8003140:	d01b      	beq.n	800317a <HAL_UARTEx_SetRxFifoThreshold+0x44>
 8003142:	2301      	movs	r3, #1
 8003144:	f880 3080 	strb.w	r3, [r0, #128]	; 0x80
 8003148:	2324      	movs	r3, #36	; 0x24
 800314a:	f8c0 3084 	str.w	r3, [r0, #132]	; 0x84
 800314e:	6803      	ldr	r3, [r0, #0]
 8003150:	681d      	ldr	r5, [r3, #0]
 8003152:	681a      	ldr	r2, [r3, #0]
 8003154:	f022 0201 	bic.w	r2, r2, #1
 8003158:	601a      	str	r2, [r3, #0]
 800315a:	689a      	ldr	r2, [r3, #8]
 800315c:	f022 6260 	bic.w	r2, r2, #234881024	; 0xe000000
 8003160:	4311      	orrs	r1, r2
 8003162:	6099      	str	r1, [r3, #8]
 8003164:	f7ff ff86 	bl	8003074 <UARTEx_SetNbDataToProcess>
 8003168:	6803      	ldr	r3, [r0, #0]
 800316a:	601d      	str	r5, [r3, #0]
 800316c:	2320      	movs	r3, #32
 800316e:	f8c0 3084 	str.w	r3, [r0, #132]	; 0x84
 8003172:	2000      	movs	r0, #0
 8003174:	f884 0080 	strb.w	r0, [r4, #128]	; 0x80
 8003178:	bd38      	pop	{r3, r4, r5, pc}
 800317a:	2002      	movs	r0, #2
 800317c:	e7fc      	b.n	8003178 <HAL_UARTEx_SetRxFifoThreshold+0x42>
	...

08003180 <ai_sine_model_create>:
 8003180:	b507      	push	{r0, r1, r2, lr}
 8003182:	2303      	movs	r3, #3
 8003184:	2200      	movs	r2, #0
 8003186:	e9cd 3200 	strd	r3, r2, [sp]
 800318a:	4a03      	ldr	r2, [pc, #12]	; (8003198 <ai_sine_model_create+0x18>)
 800318c:	2301      	movs	r3, #1
 800318e:	f000 f8bf 	bl	8003310 <ai_platform_network_create>
 8003192:	b003      	add	sp, #12
 8003194:	f85d fb04 	ldr.w	pc, [sp], #4
 8003198:	20000494 	.word	0x20000494

0800319c <ai_sine_model_init>:
 800319c:	b538      	push	{r3, r4, r5, lr}
 800319e:	4605      	mov	r5, r0
 80031a0:	460c      	mov	r4, r1
 80031a2:	f000 f90d 	bl	80033c0 <ai_platform_network_init>
 80031a6:	2800      	cmp	r0, #0
 80031a8:	d06e      	beq.n	8003288 <ai_sine_model_init+0xec>
 80031aa:	4a38      	ldr	r2, [pc, #224]	; (800328c <ai_sine_model_init+0xf0>)
 80031ac:	6923      	ldr	r3, [r4, #16]
 80031ae:	6811      	ldr	r1, [r2, #0]
 80031b0:	f041 4180 	orr.w	r1, r1, #1073741824	; 0x40000000
 80031b4:	6011      	str	r1, [r2, #0]
 80031b6:	f503 3148 	add.w	r1, r3, #204800	; 0x32000
 80031ba:	f501 70c8 	add.w	r0, r1, #400	; 0x190
 80031be:	e9c2 0002 	strd	r0, r0, [r2, #8]
 80031c2:	4a33      	ldr	r2, [pc, #204]	; (8003290 <ai_sine_model_init+0xf4>)
 80031c4:	6810      	ldr	r0, [r2, #0]
 80031c6:	f040 4080 	orr.w	r0, r0, #1073741824	; 0x40000000
 80031ca:	6010      	str	r0, [r2, #0]
 80031cc:	e9c2 1102 	strd	r1, r1, [r2, #8]
 80031d0:	4a30      	ldr	r2, [pc, #192]	; (8003294 <ai_sine_model_init+0xf8>)
 80031d2:	6811      	ldr	r1, [r2, #0]
 80031d4:	f041 4180 	orr.w	r1, r1, #1073741824	; 0x40000000
 80031d8:	6011      	str	r1, [r2, #0]
 80031da:	f503 3147 	add.w	r1, r3, #203776	; 0x31c00
 80031de:	f501 711c 	add.w	r1, r1, #624	; 0x270
 80031e2:	e9c2 1102 	strd	r1, r1, [r2, #8]
 80031e6:	4a2c      	ldr	r2, [pc, #176]	; (8003298 <ai_sine_model_init+0xfc>)
 80031e8:	6811      	ldr	r1, [r2, #0]
 80031ea:	f041 4180 	orr.w	r1, r1, #1073741824	; 0x40000000
 80031ee:	6011      	str	r1, [r2, #0]
 80031f0:	f503 3120 	add.w	r1, r3, #163840	; 0x28000
 80031f4:	f501 710c 	add.w	r1, r1, #560	; 0x230
 80031f8:	e9c2 1102 	strd	r1, r1, [r2, #8]
 80031fc:	4a27      	ldr	r2, [pc, #156]	; (800329c <ai_sine_model_init+0x100>)
 80031fe:	6811      	ldr	r1, [r2, #0]
 8003200:	f041 4180 	orr.w	r1, r1, #1073741824	; 0x40000000
 8003204:	6011      	str	r1, [r2, #0]
 8003206:	f503 311e 	add.w	r1, r3, #161792	; 0x27800
 800320a:	f501 717c 	add.w	r1, r1, #1008	; 0x3f0
 800320e:	e9c2 1102 	strd	r1, r1, [r2, #8]
 8003212:	4a23      	ldr	r2, [pc, #140]	; (80032a0 <ai_sine_model_init+0x104>)
 8003214:	6811      	ldr	r1, [r2, #0]
 8003216:	f041 4180 	orr.w	r1, r1, #1073741824	; 0x40000000
 800321a:	6011      	str	r1, [r2, #0]
 800321c:	f503 311d 	add.w	r1, r3, #160768	; 0x27400
 8003220:	f501 7150 	add.w	r1, r1, #832	; 0x340
 8003224:	e9c2 1102 	strd	r1, r1, [r2, #8]
 8003228:	4a1e      	ldr	r2, [pc, #120]	; (80032a4 <ai_sine_model_init+0x108>)
 800322a:	6811      	ldr	r1, [r2, #0]
 800322c:	f041 4180 	orr.w	r1, r1, #1073741824	; 0x40000000
 8003230:	6011      	str	r1, [r2, #0]
 8003232:	f503 61c8 	add.w	r1, r3, #1600	; 0x640
 8003236:	e9c2 1102 	strd	r1, r1, [r2, #8]
 800323a:	4a1b      	ldr	r2, [pc, #108]	; (80032a8 <ai_sine_model_init+0x10c>)
 800323c:	6811      	ldr	r1, [r2, #0]
 800323e:	f041 4180 	orr.w	r1, r1, #1073741824	; 0x40000000
 8003242:	6011      	str	r1, [r2, #0]
 8003244:	e9c2 3302 	strd	r3, r3, [r2, #8]
 8003248:	6aa3      	ldr	r3, [r4, #40]	; 0x28
 800324a:	4a18      	ldr	r2, [pc, #96]	; (80032ac <ai_sine_model_init+0x110>)
 800324c:	4918      	ldr	r1, [pc, #96]	; (80032b0 <ai_sine_model_init+0x114>)
 800324e:	3303      	adds	r3, #3
 8003250:	f023 0303 	bic.w	r3, r3, #3
 8003254:	e9c2 3302 	strd	r3, r3, [r2, #8]
 8003258:	2200      	movs	r2, #0
 800325a:	e9c1 2202 	strd	r2, r2, [r1, #8]
 800325e:	4915      	ldr	r1, [pc, #84]	; (80032b4 <ai_sine_model_init+0x118>)
 8003260:	f503 602f 	add.w	r0, r3, #2800	; 0xaf0
 8003264:	e9c1 0002 	strd	r0, r0, [r1, #8]
 8003268:	4913      	ldr	r1, [pc, #76]	; (80032b8 <ai_sine_model_init+0x11c>)
 800326a:	e9c1 3302 	strd	r3, r3, [r1, #8]
 800326e:	4913      	ldr	r1, [pc, #76]	; (80032bc <ai_sine_model_init+0x120>)
 8003270:	f503 73c8 	add.w	r3, r3, #400	; 0x190
 8003274:	e9c1 3302 	strd	r3, r3, [r1, #8]
 8003278:	4b11      	ldr	r3, [pc, #68]	; (80032c0 <ai_sine_model_init+0x124>)
 800327a:	4628      	mov	r0, r5
 800327c:	e9c3 2202 	strd	r2, r2, [r3, #8]
 8003280:	e8bd 4038 	ldmia.w	sp!, {r3, r4, r5, lr}
 8003284:	f000 b91a 	b.w	80034bc <ai_platform_network_post_init>
 8003288:	bd38      	pop	{r3, r4, r5, pc}
 800328a:	bf00      	nop
 800328c:	20000414 	.word	0x20000414
 8003290:	20000484 	.word	0x20000484
 8003294:	20000330 	.word	0x20000330
 8003298:	200003e8 	.word	0x200003e8
 800329c:	2000053c 	.word	0x2000053c
 80032a0:	200005ec 	.word	0x200005ec
 80032a4:	20000618 	.word	0x20000618
 80032a8:	20000568 	.word	0x20000568
 80032ac:	20000644 	.word	0x20000644
 80032b0:	20000510 	.word	0x20000510
 80032b4:	200005c0 	.word	0x200005c0
 80032b8:	200003bc 	.word	0x200003bc
 80032bc:	20000390 	.word	0x20000390
 80032c0:	20000458 	.word	0x20000458

080032c4 <ai_sine_model_run>:
 80032c4:	f000 b942 	b.w	800354c <ai_platform_network_process>

080032c8 <ai_sine_model_data_weights_get>:
 80032c8:	4800      	ldr	r0, [pc, #0]	; (80032cc <ai_sine_model_data_weights_get+0x4>)
 80032ca:	4770      	bx	lr
 80032cc:	08008194 	.word	0x08008194

080032d0 <_platform_network_state_setup.isra.1>:
 80032d0:	b430      	push	{r4, r5}
 80032d2:	68dd      	ldr	r5, [r3, #12]
 80032d4:	695c      	ldr	r4, [r3, #20]
 80032d6:	68ed      	ldr	r5, [r5, #12]
 80032d8:	68e4      	ldr	r4, [r4, #12]
 80032da:	fb04 f405 	mul.w	r4, r4, r5
 80032de:	6084      	str	r4, [r0, #8]
 80032e0:	8809      	ldrh	r1, [r1, #0]
 80032e2:	fb04 f401 	mul.w	r4, r4, r1
 80032e6:	60c4      	str	r4, [r0, #12]
 80032e8:	6811      	ldr	r1, [r2, #0]
 80032ea:	6041      	str	r1, [r0, #4]
 80032ec:	6812      	ldr	r2, [r2, #0]
 80032ee:	4414      	add	r4, r2
 80032f0:	6004      	str	r4, [r0, #0]
 80032f2:	699a      	ldr	r2, [r3, #24]
 80032f4:	6814      	ldr	r4, [r2, #0]
 80032f6:	00a4      	lsls	r4, r4, #2
 80032f8:	d407      	bmi.n	800330a <_platform_network_state_setup.isra.1+0x3a>
 80032fa:	e9d2 4502 	ldrd	r4, r5, [r2, #8]
 80032fe:	1b64      	subs	r4, r4, r5
 8003300:	4421      	add	r1, r4
 8003302:	6091      	str	r1, [r2, #8]
 8003304:	699b      	ldr	r3, [r3, #24]
 8003306:	6842      	ldr	r2, [r0, #4]
 8003308:	60da      	str	r2, [r3, #12]
 800330a:	bc30      	pop	{r4, r5}
 800330c:	4770      	bx	lr
	...

08003310 <ai_platform_network_create>:
 8003310:	e92d 41f0 	stmdb	sp!, {r4, r5, r6, r7, r8, lr}
 8003314:	4e23      	ldr	r6, [pc, #140]	; (80033a4 <ai_platform_network_create+0x94>)
 8003316:	4924      	ldr	r1, [pc, #144]	; (80033a8 <ai_platform_network_create+0x98>)
 8003318:	6835      	ldr	r5, [r6, #0]
 800331a:	b082      	sub	sp, #8
 800331c:	f025 0501 	bic.w	r5, r5, #1
 8003320:	f89d 7020 	ldrb.w	r7, [sp, #32]
 8003324:	f89d 4024 	ldrb.w	r4, [sp, #36]	; 0x24
 8003328:	6035      	str	r5, [r6, #0]
 800332a:	2501      	movs	r5, #1
 800332c:	600d      	str	r5, [r1, #0]
 800332e:	680d      	ldr	r5, [r1, #0]
 8003330:	2d00      	cmp	r5, #0
 8003332:	d1fc      	bne.n	800332e <ai_platform_network_create+0x1e>
 8003334:	491d      	ldr	r1, [pc, #116]	; (80033ac <ai_platform_network_create+0x9c>)
 8003336:	4e1e      	ldr	r6, [pc, #120]	; (80033b0 <ai_platform_network_create+0xa0>)
 8003338:	600e      	str	r6, [r1, #0]
 800333a:	680e      	ldr	r6, [r1, #0]
 800333c:	491d      	ldr	r1, [pc, #116]	; (80033b4 <ai_platform_network_create+0xa4>)
 800333e:	428e      	cmp	r6, r1
 8003340:	d000      	beq.n	8003344 <ai_platform_network_create+0x34>
 8003342:	e7fe      	b.n	8003342 <ai_platform_network_create+0x32>
 8003344:	b1d0      	cbz	r0, 800337c <ai_platform_network_create+0x6c>
 8003346:	4698      	mov	r8, r3
 8003348:	4613      	mov	r3, r2
 800334a:	4a1b      	ldr	r2, [pc, #108]	; (80033b8 <ai_platform_network_create+0xa8>)
 800334c:	601a      	str	r2, [r3, #0]
 800334e:	6003      	str	r3, [r0, #0]
 8003350:	4606      	mov	r6, r0
 8003352:	f000 fb05 	bl	8003960 <core_init>
 8003356:	b1b0      	cbz	r0, 8003386 <ai_platform_network_create+0x76>
 8003358:	0223      	lsls	r3, r4, #8
 800335a:	ea43 4307 	orr.w	r3, r3, r7, lsl #16
 800335e:	ea43 6308 	orr.w	r3, r3, r8, lsl #24
 8003362:	f1b3 7f82 	cmp.w	r3, #17039360	; 0x1040000
 8003366:	d910      	bls.n	800338a <ai_platform_network_create+0x7a>
 8003368:	2201      	movs	r2, #1
 800336a:	2300      	movs	r3, #0
 800336c:	6033      	str	r3, [r6, #0]
 800336e:	2310      	movs	r3, #16
 8003370:	2000      	movs	r0, #0
 8003372:	f362 0007 	bfi	r0, r2, #0, #8
 8003376:	f363 201f 	bfi	r0, r3, #8, #24
 800337a:	e001      	b.n	8003380 <ai_platform_network_create+0x70>
 800337c:	f241 0010 	movw	r0, #4112	; 0x1010
 8003380:	b002      	add	sp, #8
 8003382:	e8bd 81f0 	ldmia.w	sp!, {r4, r5, r6, r7, r8, pc}
 8003386:	2230      	movs	r2, #48	; 0x30
 8003388:	e7ef      	b.n	800336a <ai_platform_network_create+0x5a>
 800338a:	a802      	add	r0, sp, #8
 800338c:	4b0b      	ldr	r3, [pc, #44]	; (80033bc <ai_platform_network_create+0xac>)
 800338e:	f840 3d04 	str.w	r3, [r0, #-4]!
 8003392:	f001 fd85 	bl	8004ea0 <ai_check_custom_types>
 8003396:	b110      	cbz	r0, 800339e <ai_platform_network_create+0x8e>
 8003398:	462b      	mov	r3, r5
 800339a:	462a      	mov	r2, r5
 800339c:	e7e8      	b.n	8003370 <ai_platform_network_create+0x60>
 800339e:	2202      	movs	r2, #2
 80033a0:	e7e3      	b.n	800336a <ai_platform_network_create+0x5a>
 80033a2:	bf00      	nop
 80033a4:	e0002000 	.word	0xe0002000
 80033a8:	40023008 	.word	0x40023008
 80033ac:	40023000 	.word	0x40023000
 80033b0:	f407a5c2 	.word	0xf407a5c2
 80033b4:	b5e8b5cd 	.word	0xb5e8b5cd
 80033b8:	a1c00100 	.word	0xa1c00100
 80033bc:	84048403 	.word	0x84048403

080033c0 <ai_platform_network_init>:
 80033c0:	b5f8      	push	{r3, r4, r5, r6, r7, lr}
 80033c2:	460c      	mov	r4, r1
 80033c4:	4605      	mov	r5, r0
 80033c6:	b120      	cbz	r0, 80033d2 <ai_platform_network_init+0x12>
 80033c8:	4b36      	ldr	r3, [pc, #216]	; (80034a4 <ai_platform_network_init+0xe4>)
 80033ca:	6802      	ldr	r2, [r0, #0]
 80033cc:	429a      	cmp	r2, r3
 80033ce:	bf18      	it	ne
 80033d0:	2500      	movne	r5, #0
 80033d2:	4935      	ldr	r1, [pc, #212]	; (80034a8 <ai_platform_network_init+0xe8>)
 80033d4:	4a35      	ldr	r2, [pc, #212]	; (80034ac <ai_platform_network_init+0xec>)
 80033d6:	680b      	ldr	r3, [r1, #0]
 80033d8:	2001      	movs	r0, #1
 80033da:	f023 0301 	bic.w	r3, r3, #1
 80033de:	600b      	str	r3, [r1, #0]
 80033e0:	4613      	mov	r3, r2
 80033e2:	6010      	str	r0, [r2, #0]
 80033e4:	681a      	ldr	r2, [r3, #0]
 80033e6:	2a00      	cmp	r2, #0
 80033e8:	d1fc      	bne.n	80033e4 <ai_platform_network_init+0x24>
 80033ea:	4b31      	ldr	r3, [pc, #196]	; (80034b0 <ai_platform_network_init+0xf0>)
 80033ec:	4a31      	ldr	r2, [pc, #196]	; (80034b4 <ai_platform_network_init+0xf4>)
 80033ee:	601a      	str	r2, [r3, #0]
 80033f0:	681a      	ldr	r2, [r3, #0]
 80033f2:	4b31      	ldr	r3, [pc, #196]	; (80034b8 <ai_platform_network_init+0xf8>)
 80033f4:	429a      	cmp	r2, r3
 80033f6:	d000      	beq.n	80033fa <ai_platform_network_init+0x3a>
 80033f8:	e7fe      	b.n	80033f8 <ai_platform_network_init+0x38>
 80033fa:	b33d      	cbz	r5, 800344c <ai_platform_network_init+0x8c>
 80033fc:	b344      	cbz	r4, 8003450 <ai_platform_network_init+0x90>
 80033fe:	6aa7      	ldr	r7, [r4, #40]	; 0x28
 8003400:	6926      	ldr	r6, [r4, #16]
 8003402:	2f00      	cmp	r7, #0
 8003404:	d03d      	beq.n	8003482 <ai_platform_network_init+0xc2>
 8003406:	b35e      	cbz	r6, 8003460 <ai_platform_network_init+0xa0>
 8003408:	4627      	mov	r7, r4
 800340a:	cf0f      	ldmia	r7!, {r0, r1, r2, r3}
 800340c:	f105 0618 	add.w	r6, r5, #24
 8003410:	c60f      	stmia	r6!, {r0, r1, r2, r3}
 8003412:	e897 0003 	ldmia.w	r7, {r0, r1}
 8003416:	e886 0003 	stmia.w	r6, {r0, r1}
 800341a:	3418      	adds	r4, #24
 800341c:	cc0f      	ldmia	r4!, {r0, r1, r2, r3}
 800341e:	f105 0630 	add.w	r6, r5, #48	; 0x30
 8003422:	c60f      	stmia	r6!, {r0, r1, r2, r3}
 8003424:	e894 0003 	ldmia.w	r4, {r0, r1}
 8003428:	e886 0003 	stmia.w	r6, {r0, r1}
 800342c:	6d2a      	ldr	r2, [r5, #80]	; 0x50
 800342e:	2303      	movs	r3, #3
 8003430:	60eb      	str	r3, [r5, #12]
 8003432:	b15a      	cbz	r2, 800344c <ai_platform_network_init+0x8c>
 8003434:	68d3      	ldr	r3, [r2, #12]
 8003436:	6095      	str	r5, [r2, #8]
 8003438:	429a      	cmp	r2, r3
 800343a:	d007      	beq.n	800344c <ai_platform_network_init+0x8c>
 800343c:	b133      	cbz	r3, 800344c <ai_platform_network_init+0x8c>
 800343e:	68da      	ldr	r2, [r3, #12]
 8003440:	609d      	str	r5, [r3, #8]
 8003442:	429a      	cmp	r2, r3
 8003444:	d002      	beq.n	800344c <ai_platform_network_init+0x8c>
 8003446:	4613      	mov	r3, r2
 8003448:	2b00      	cmp	r3, #0
 800344a:	d1f8      	bne.n	800343e <ai_platform_network_init+0x7e>
 800344c:	4628      	mov	r0, r5
 800344e:	bdf8      	pop	{r3, r4, r5, r6, r7, pc}
 8003450:	f105 0010 	add.w	r0, r5, #16
 8003454:	2211      	movs	r2, #17
 8003456:	2110      	movs	r1, #16
 8003458:	f000 fa84 	bl	8003964 <core_set_error>
 800345c:	4625      	mov	r5, r4
 800345e:	e7f5      	b.n	800344c <ai_platform_network_init+0x8c>
 8003460:	8921      	ldrh	r1, [r4, #8]
 8003462:	88e2      	ldrh	r2, [r4, #6]
 8003464:	68e3      	ldr	r3, [r4, #12]
 8003466:	fb02 f201 	mul.w	r2, r2, r1
 800346a:	fb03 f302 	mul.w	r3, r3, r2
 800346e:	2b00      	cmp	r3, #0
 8003470:	d0ca      	beq.n	8003408 <ai_platform_network_init+0x48>
 8003472:	f105 0010 	add.w	r0, r5, #16
 8003476:	2212      	movs	r2, #18
 8003478:	2110      	movs	r1, #16
 800347a:	f000 fa73 	bl	8003964 <core_set_error>
 800347e:	4635      	mov	r5, r6
 8003480:	e7e4      	b.n	800344c <ai_platform_network_init+0x8c>
 8003482:	8c21      	ldrh	r1, [r4, #32]
 8003484:	8be2      	ldrh	r2, [r4, #30]
 8003486:	6a63      	ldr	r3, [r4, #36]	; 0x24
 8003488:	fb02 f201 	mul.w	r2, r2, r1
 800348c:	fb03 f302 	mul.w	r3, r3, r2
 8003490:	2b00      	cmp	r3, #0
 8003492:	d0b8      	beq.n	8003406 <ai_platform_network_init+0x46>
 8003494:	f105 0010 	add.w	r0, r5, #16
 8003498:	2213      	movs	r2, #19
 800349a:	2110      	movs	r1, #16
 800349c:	f000 fa62 	bl	8003964 <core_set_error>
 80034a0:	463d      	mov	r5, r7
 80034a2:	e7d3      	b.n	800344c <ai_platform_network_init+0x8c>
 80034a4:	a1c00100 	.word	0xa1c00100
 80034a8:	e0002000 	.word	0xe0002000
 80034ac:	40023008 	.word	0x40023008
 80034b0:	40023000 	.word	0x40023000
 80034b4:	f407a5c2 	.word	0xf407a5c2
 80034b8:	b5e8b5cd 	.word	0xb5e8b5cd

080034bc <ai_platform_network_post_init>:
 80034bc:	b538      	push	{r3, r4, r5, lr}
 80034be:	4604      	mov	r4, r0
 80034c0:	b120      	cbz	r0, 80034cc <ai_platform_network_post_init+0x10>
 80034c2:	4b1c      	ldr	r3, [pc, #112]	; (8003534 <ai_platform_network_post_init+0x78>)
 80034c4:	6802      	ldr	r2, [r0, #0]
 80034c6:	429a      	cmp	r2, r3
 80034c8:	bf18      	it	ne
 80034ca:	2400      	movne	r4, #0
 80034cc:	491a      	ldr	r1, [pc, #104]	; (8003538 <ai_platform_network_post_init+0x7c>)
 80034ce:	4a1b      	ldr	r2, [pc, #108]	; (800353c <ai_platform_network_post_init+0x80>)
 80034d0:	680b      	ldr	r3, [r1, #0]
 80034d2:	2001      	movs	r0, #1
 80034d4:	f023 0301 	bic.w	r3, r3, #1
 80034d8:	600b      	str	r3, [r1, #0]
 80034da:	4613      	mov	r3, r2
 80034dc:	6010      	str	r0, [r2, #0]
 80034de:	681a      	ldr	r2, [r3, #0]
 80034e0:	2a00      	cmp	r2, #0
 80034e2:	d1fc      	bne.n	80034de <ai_platform_network_post_init+0x22>
 80034e4:	4b16      	ldr	r3, [pc, #88]	; (8003540 <ai_platform_network_post_init+0x84>)
 80034e6:	4a17      	ldr	r2, [pc, #92]	; (8003544 <ai_platform_network_post_init+0x88>)
 80034e8:	601a      	str	r2, [r3, #0]
 80034ea:	681a      	ldr	r2, [r3, #0]
 80034ec:	4b16      	ldr	r3, [pc, #88]	; (8003548 <ai_platform_network_post_init+0x8c>)
 80034ee:	429a      	cmp	r2, r3
 80034f0:	d000      	beq.n	80034f4 <ai_platform_network_post_init+0x38>
 80034f2:	e7fe      	b.n	80034f2 <ai_platform_network_post_init+0x36>
 80034f4:	b1a4      	cbz	r4, 8003520 <ai_platform_network_post_init+0x64>
 80034f6:	68e3      	ldr	r3, [r4, #12]
 80034f8:	f013 0502 	ands.w	r5, r3, #2
 80034fc:	d012      	beq.n	8003524 <ai_platform_network_post_init+0x68>
 80034fe:	6da3      	ldr	r3, [r4, #88]	; 0x58
 8003500:	b163      	cbz	r3, 800351c <ai_platform_network_post_init+0x60>
 8003502:	6d25      	ldr	r5, [r4, #80]	; 0x50
 8003504:	b91d      	cbnz	r5, 800350e <ai_platform_network_post_init+0x52>
 8003506:	e009      	b.n	800351c <ai_platform_network_post_init+0x60>
 8003508:	461d      	mov	r5, r3
 800350a:	b13b      	cbz	r3, 800351c <ai_platform_network_post_init+0x60>
 800350c:	6da3      	ldr	r3, [r4, #88]	; 0x58
 800350e:	6de2      	ldr	r2, [r4, #92]	; 0x5c
 8003510:	4629      	mov	r1, r5
 8003512:	2000      	movs	r0, #0
 8003514:	4798      	blx	r3
 8003516:	68eb      	ldr	r3, [r5, #12]
 8003518:	42ab      	cmp	r3, r5
 800351a:	d1f5      	bne.n	8003508 <ai_platform_network_post_init+0x4c>
 800351c:	2001      	movs	r0, #1
 800351e:	bd38      	pop	{r3, r4, r5, pc}
 8003520:	4620      	mov	r0, r4
 8003522:	bd38      	pop	{r3, r4, r5, pc}
 8003524:	f104 0010 	add.w	r0, r4, #16
 8003528:	2210      	movs	r2, #16
 800352a:	2111      	movs	r1, #17
 800352c:	f000 fa1a 	bl	8003964 <core_set_error>
 8003530:	4628      	mov	r0, r5
 8003532:	bd38      	pop	{r3, r4, r5, pc}
 8003534:	a1c00100 	.word	0xa1c00100
 8003538:	e0002000 	.word	0xe0002000
 800353c:	40023008 	.word	0x40023008
 8003540:	40023000 	.word	0x40023000
 8003544:	f407a5c2 	.word	0xf407a5c2
 8003548:	b5e8b5cd 	.word	0xb5e8b5cd

0800354c <ai_platform_network_process>:
 800354c:	e92d 4ff0 	stmdb	sp!, {r4, r5, r6, r7, r8, r9, sl, fp, lr}
 8003550:	b083      	sub	sp, #12
 8003552:	4604      	mov	r4, r0
 8003554:	9201      	str	r2, [sp, #4]
 8003556:	b120      	cbz	r0, 8003562 <ai_platform_network_process+0x16>
 8003558:	4ba5      	ldr	r3, [pc, #660]	; (80037f0 <ai_platform_network_process+0x2a4>)
 800355a:	6802      	ldr	r2, [r0, #0]
 800355c:	429a      	cmp	r2, r3
 800355e:	bf18      	it	ne
 8003560:	2400      	movne	r4, #0
 8003562:	48a4      	ldr	r0, [pc, #656]	; (80037f4 <ai_platform_network_process+0x2a8>)
 8003564:	4ba4      	ldr	r3, [pc, #656]	; (80037f8 <ai_platform_network_process+0x2ac>)
 8003566:	6802      	ldr	r2, [r0, #0]
 8003568:	f022 0201 	bic.w	r2, r2, #1
 800356c:	6002      	str	r2, [r0, #0]
 800356e:	2201      	movs	r2, #1
 8003570:	601a      	str	r2, [r3, #0]
 8003572:	681a      	ldr	r2, [r3, #0]
 8003574:	2a00      	cmp	r2, #0
 8003576:	d1fc      	bne.n	8003572 <ai_platform_network_process+0x26>
 8003578:	4ba0      	ldr	r3, [pc, #640]	; (80037fc <ai_platform_network_process+0x2b0>)
 800357a:	4aa1      	ldr	r2, [pc, #644]	; (8003800 <ai_platform_network_process+0x2b4>)
 800357c:	601a      	str	r2, [r3, #0]
 800357e:	681a      	ldr	r2, [r3, #0]
 8003580:	4ba0      	ldr	r3, [pc, #640]	; (8003804 <ai_platform_network_process+0x2b8>)
 8003582:	429a      	cmp	r2, r3
 8003584:	d000      	beq.n	8003588 <ai_platform_network_process+0x3c>
 8003586:	e7fe      	b.n	8003586 <ai_platform_network_process+0x3a>
 8003588:	2c00      	cmp	r4, #0
 800358a:	d066      	beq.n	800365a <ai_platform_network_process+0x10e>
 800358c:	f8b4 7048 	ldrh.w	r7, [r4, #72]	; 0x48
 8003590:	b107      	cbz	r7, 8003594 <ai_platform_network_process+0x48>
 8003592:	6ce7      	ldr	r7, [r4, #76]	; 0x4c
 8003594:	68e3      	ldr	r3, [r4, #12]
 8003596:	f003 0303 	and.w	r3, r3, #3
 800359a:	2600      	movs	r6, #0
 800359c:	2b03      	cmp	r3, #3
 800359e:	6166      	str	r6, [r4, #20]
 80035a0:	f040 80fe 	bne.w	80037a0 <ai_platform_network_process+0x254>
 80035a4:	2900      	cmp	r1, #0
 80035a6:	d07f      	beq.n	80036a8 <ai_platform_network_process+0x15c>
 80035a8:	2f00      	cmp	r7, #0
 80035aa:	d07d      	beq.n	80036a8 <ai_platform_network_process+0x15c>
 80035ac:	883b      	ldrh	r3, [r7, #0]
 80035ae:	2b00      	cmp	r3, #0
 80035b0:	d07a      	beq.n	80036a8 <ai_platform_network_process+0x15c>
 80035b2:	460d      	mov	r5, r1
 80035b4:	46a0      	mov	r8, r4
 80035b6:	f835 9f04 	ldrh.w	r9, [r5, #4]!
 80035ba:	429e      	cmp	r6, r3
 80035bc:	d27d      	bcs.n	80036ba <ai_platform_network_process+0x16e>
 80035be:	687b      	ldr	r3, [r7, #4]
 80035c0:	2b00      	cmp	r3, #0
 80035c2:	d07a      	beq.n	80036ba <ai_platform_network_process+0x16e>
 80035c4:	f853 4026 	ldr.w	r4, [r3, r6, lsl #2]
 80035c8:	2c00      	cmp	r4, #0
 80035ca:	d076      	beq.n	80036ba <ai_platform_network_process+0x16e>
 80035cc:	68bb      	ldr	r3, [r7, #8]
 80035ce:	681b      	ldr	r3, [r3, #0]
 80035d0:	eb13 1a06 	adds.w	sl, r3, r6, lsl #4
 80035d4:	d067      	beq.n	80036a6 <ai_platform_network_process+0x15a>
 80035d6:	f8b5 e004 	ldrh.w	lr, [r5, #4]
 80035da:	f8b5 b002 	ldrh.w	fp, [r5, #2]
 80035de:	69a0      	ldr	r0, [r4, #24]
 80035e0:	f8d5 c008 	ldr.w	ip, [r5, #8]
 80035e4:	6841      	ldr	r1, [r0, #4]
 80035e6:	fb0b f30e 	mul.w	r3, fp, lr
 80035ea:	fb0c f303 	mul.w	r3, ip, r3
 80035ee:	4299      	cmp	r1, r3
 80035f0:	d350      	bcc.n	8003694 <ai_platform_network_process+0x148>
 80035f2:	68e3      	ldr	r3, [r4, #12]
 80035f4:	68da      	ldr	r2, [r3, #12]
 80035f6:	455a      	cmp	r2, fp
 80035f8:	d14c      	bne.n	8003694 <ai_platform_network_process+0x148>
 80035fa:	689a      	ldr	r2, [r3, #8]
 80035fc:	4572      	cmp	r2, lr
 80035fe:	d149      	bne.n	8003694 <ai_platform_network_process+0x148>
 8003600:	685b      	ldr	r3, [r3, #4]
 8003602:	459c      	cmp	ip, r3
 8003604:	d146      	bne.n	8003694 <ai_platform_network_process+0x148>
 8003606:	6800      	ldr	r0, [r0, #0]
 8003608:	f001 fcfa 	bl	8005000 <ai_array_get_byte_size>
 800360c:	68e2      	ldr	r2, [r4, #12]
 800360e:	6963      	ldr	r3, [r4, #20]
 8003610:	68d2      	ldr	r2, [r2, #12]
 8003612:	68db      	ldr	r3, [r3, #12]
 8003614:	fb03 f302 	mul.w	r3, r3, r2
 8003618:	4298      	cmp	r0, r3
 800361a:	d33b      	bcc.n	8003694 <ai_platform_network_process+0x148>
 800361c:	69a3      	ldr	r3, [r4, #24]
 800361e:	6818      	ldr	r0, [r3, #0]
 8003620:	f001 fca2 	bl	8004f68 <ai_array_to_buffer_fmt>
 8003624:	f855 3c04 	ldr.w	r3, [r5, #-4]
 8003628:	4043      	eors	r3, r0
 800362a:	f033 437e 	bics.w	r3, r3, #4261412864	; 0xfe000000
 800362e:	d128      	bne.n	8003682 <ai_platform_network_process+0x136>
 8003630:	68eb      	ldr	r3, [r5, #12]
 8003632:	b1f3      	cbz	r3, 8003672 <ai_platform_network_process+0x126>
 8003634:	f8b5 b000 	ldrh.w	fp, [r5]
 8003638:	f1bb 0f00 	cmp.w	fp, #0
 800363c:	d012      	beq.n	8003664 <ai_platform_network_process+0x118>
 800363e:	4623      	mov	r3, r4
 8003640:	f105 020c 	add.w	r2, r5, #12
 8003644:	4629      	mov	r1, r5
 8003646:	4650      	mov	r0, sl
 8003648:	f7ff fe42 	bl	80032d0 <_platform_network_state_setup.isra.1>
 800364c:	45d9      	cmp	r9, fp
 800364e:	883b      	ldrh	r3, [r7, #0]
 8003650:	bf38      	it	cc
 8003652:	46d9      	movcc	r9, fp
 8003654:	3601      	adds	r6, #1
 8003656:	3518      	adds	r5, #24
 8003658:	e7af      	b.n	80035ba <ai_platform_network_process+0x6e>
 800365a:	46a3      	mov	fp, r4
 800365c:	4658      	mov	r0, fp
 800365e:	b003      	add	sp, #12
 8003660:	e8bd 8ff0 	ldmia.w	sp!, {r4, r5, r6, r7, r8, r9, sl, fp, pc}
 8003664:	f108 0010 	add.w	r0, r8, #16
 8003668:	2221      	movs	r2, #33	; 0x21
 800366a:	2112      	movs	r1, #18
 800366c:	f000 f97a 	bl	8003964 <core_set_error>
 8003670:	e7f4      	b.n	800365c <ai_platform_network_process+0x110>
 8003672:	f108 0010 	add.w	r0, r8, #16
 8003676:	2217      	movs	r2, #23
 8003678:	2112      	movs	r1, #18
 800367a:	469b      	mov	fp, r3
 800367c:	f000 f972 	bl	8003964 <core_set_error>
 8003680:	e7ec      	b.n	800365c <ai_platform_network_process+0x110>
 8003682:	f108 0010 	add.w	r0, r8, #16
 8003686:	2219      	movs	r2, #25
 8003688:	2112      	movs	r1, #18
 800368a:	f000 f96b 	bl	8003964 <core_set_error>
 800368e:	f04f 0b00 	mov.w	fp, #0
 8003692:	e7e3      	b.n	800365c <ai_platform_network_process+0x110>
 8003694:	f108 0010 	add.w	r0, r8, #16
 8003698:	2218      	movs	r2, #24
 800369a:	2112      	movs	r1, #18
 800369c:	f000 f962 	bl	8003964 <core_set_error>
 80036a0:	f04f 0b00 	mov.w	fp, #0
 80036a4:	e7da      	b.n	800365c <ai_platform_network_process+0x110>
 80036a6:	4644      	mov	r4, r8
 80036a8:	f104 0010 	add.w	r0, r4, #16
 80036ac:	2217      	movs	r2, #23
 80036ae:	2112      	movs	r1, #18
 80036b0:	f000 f958 	bl	8003964 <core_set_error>
 80036b4:	f04f 0b00 	mov.w	fp, #0
 80036b8:	e7d0      	b.n	800365c <ai_platform_network_process+0x110>
 80036ba:	9a01      	ldr	r2, [sp, #4]
 80036bc:	f8b8 3048 	ldrh.w	r3, [r8, #72]	; 0x48
 80036c0:	4644      	mov	r4, r8
 80036c2:	2a00      	cmp	r2, #0
 80036c4:	f000 80a4 	beq.w	8003810 <ai_platform_network_process+0x2c4>
 80036c8:	2b01      	cmp	r3, #1
 80036ca:	f240 8140 	bls.w	800394e <ai_platform_network_process+0x402>
 80036ce:	f8d8 804c 	ldr.w	r8, [r8, #76]	; 0x4c
 80036d2:	f118 0f0c 	cmn.w	r8, #12
 80036d6:	f000 813a 	beq.w	800394e <ai_platform_network_process+0x402>
 80036da:	f8b8 300c 	ldrh.w	r3, [r8, #12]
 80036de:	2b00      	cmp	r3, #0
 80036e0:	f000 8135 	beq.w	800394e <ai_platform_network_process+0x402>
 80036e4:	3204      	adds	r2, #4
 80036e6:	4615      	mov	r5, r2
 80036e8:	2700      	movs	r7, #0
 80036ea:	429f      	cmp	r7, r3
 80036ec:	f080 808c 	bcs.w	8003808 <ai_platform_network_process+0x2bc>
 80036f0:	f8d8 3010 	ldr.w	r3, [r8, #16]
 80036f4:	2b00      	cmp	r3, #0
 80036f6:	f000 8087 	beq.w	8003808 <ai_platform_network_process+0x2bc>
 80036fa:	f853 6027 	ldr.w	r6, [r3, r7, lsl #2]
 80036fe:	2e00      	cmp	r6, #0
 8003700:	f000 8082 	beq.w	8003808 <ai_platform_network_process+0x2bc>
 8003704:	f8d8 3014 	ldr.w	r3, [r8, #20]
 8003708:	681b      	ldr	r3, [r3, #0]
 800370a:	eb13 1a07 	adds.w	sl, r3, r7, lsl #4
 800370e:	d067      	beq.n	80037e0 <ai_platform_network_process+0x294>
 8003710:	f8b5 e004 	ldrh.w	lr, [r5, #4]
 8003714:	f8b5 b002 	ldrh.w	fp, [r5, #2]
 8003718:	69b0      	ldr	r0, [r6, #24]
 800371a:	f8d5 c008 	ldr.w	ip, [r5, #8]
 800371e:	6841      	ldr	r1, [r0, #4]
 8003720:	fb0b f30e 	mul.w	r3, fp, lr
 8003724:	fb0c f303 	mul.w	r3, ip, r3
 8003728:	4299      	cmp	r1, r3
 800372a:	f0c0 8110 	bcc.w	800394e <ai_platform_network_process+0x402>
 800372e:	68f3      	ldr	r3, [r6, #12]
 8003730:	68da      	ldr	r2, [r3, #12]
 8003732:	455a      	cmp	r2, fp
 8003734:	f040 810b 	bne.w	800394e <ai_platform_network_process+0x402>
 8003738:	689a      	ldr	r2, [r3, #8]
 800373a:	4572      	cmp	r2, lr
 800373c:	f040 8107 	bne.w	800394e <ai_platform_network_process+0x402>
 8003740:	685b      	ldr	r3, [r3, #4]
 8003742:	459c      	cmp	ip, r3
 8003744:	f040 8103 	bne.w	800394e <ai_platform_network_process+0x402>
 8003748:	6800      	ldr	r0, [r0, #0]
 800374a:	f001 fc59 	bl	8005000 <ai_array_get_byte_size>
 800374e:	68f2      	ldr	r2, [r6, #12]
 8003750:	6973      	ldr	r3, [r6, #20]
 8003752:	68d2      	ldr	r2, [r2, #12]
 8003754:	68db      	ldr	r3, [r3, #12]
 8003756:	fb03 f302 	mul.w	r3, r3, r2
 800375a:	4298      	cmp	r0, r3
 800375c:	f0c0 80f7 	bcc.w	800394e <ai_platform_network_process+0x402>
 8003760:	69b3      	ldr	r3, [r6, #24]
 8003762:	6818      	ldr	r0, [r3, #0]
 8003764:	f001 fc00 	bl	8004f68 <ai_array_to_buffer_fmt>
 8003768:	f855 3c04 	ldr.w	r3, [r5, #-4]
 800376c:	4043      	eors	r3, r0
 800376e:	f033 437e 	bics.w	r3, r3, #4261412864	; 0xfe000000
 8003772:	d12c      	bne.n	80037ce <ai_platform_network_process+0x282>
 8003774:	68eb      	ldr	r3, [r5, #12]
 8003776:	b313      	cbz	r3, 80037be <ai_platform_network_process+0x272>
 8003778:	f8b5 b000 	ldrh.w	fp, [r5]
 800377c:	f1bb 0f00 	cmp.w	fp, #0
 8003780:	d016      	beq.n	80037b0 <ai_platform_network_process+0x264>
 8003782:	4633      	mov	r3, r6
 8003784:	f105 020c 	add.w	r2, r5, #12
 8003788:	4629      	mov	r1, r5
 800378a:	4650      	mov	r0, sl
 800378c:	f7ff fda0 	bl	80032d0 <_platform_network_state_setup.isra.1>
 8003790:	45d9      	cmp	r9, fp
 8003792:	f8b8 300c 	ldrh.w	r3, [r8, #12]
 8003796:	bf38      	it	cc
 8003798:	46d9      	movcc	r9, fp
 800379a:	3701      	adds	r7, #1
 800379c:	3518      	adds	r5, #24
 800379e:	e7a4      	b.n	80036ea <ai_platform_network_process+0x19e>
 80037a0:	f104 0010 	add.w	r0, r4, #16
 80037a4:	2230      	movs	r2, #48	; 0x30
 80037a6:	2111      	movs	r1, #17
 80037a8:	f000 f8dc 	bl	8003964 <core_set_error>
 80037ac:	46b3      	mov	fp, r6
 80037ae:	e755      	b.n	800365c <ai_platform_network_process+0x110>
 80037b0:	f104 0010 	add.w	r0, r4, #16
 80037b4:	2221      	movs	r2, #33	; 0x21
 80037b6:	2113      	movs	r1, #19
 80037b8:	f000 f8d4 	bl	8003964 <core_set_error>
 80037bc:	e74e      	b.n	800365c <ai_platform_network_process+0x110>
 80037be:	f104 0010 	add.w	r0, r4, #16
 80037c2:	2217      	movs	r2, #23
 80037c4:	2113      	movs	r1, #19
 80037c6:	469b      	mov	fp, r3
 80037c8:	f000 f8cc 	bl	8003964 <core_set_error>
 80037cc:	e746      	b.n	800365c <ai_platform_network_process+0x110>
 80037ce:	f104 0010 	add.w	r0, r4, #16
 80037d2:	2219      	movs	r2, #25
 80037d4:	2113      	movs	r1, #19
 80037d6:	f000 f8c5 	bl	8003964 <core_set_error>
 80037da:	f04f 0b00 	mov.w	fp, #0
 80037de:	e73d      	b.n	800365c <ai_platform_network_process+0x110>
 80037e0:	f104 0010 	add.w	r0, r4, #16
 80037e4:	2217      	movs	r2, #23
 80037e6:	2113      	movs	r1, #19
 80037e8:	f000 f8bc 	bl	8003964 <core_set_error>
 80037ec:	46d3      	mov	fp, sl
 80037ee:	e735      	b.n	800365c <ai_platform_network_process+0x110>
 80037f0:	a1c00100 	.word	0xa1c00100
 80037f4:	e0002000 	.word	0xe0002000
 80037f8:	40023008 	.word	0x40023008
 80037fc:	40023000 	.word	0x40023000
 8003800:	f407a5c2 	.word	0xf407a5c2
 8003804:	b5e8b5cd 	.word	0xb5e8b5cd
 8003808:	f8b4 3048 	ldrh.w	r3, [r4, #72]	; 0x48
 800380c:	f8a4 9014 	strh.w	r9, [r4, #20]
 8003810:	2b00      	cmp	r3, #0
 8003812:	f000 8099 	beq.w	8003948 <ai_platform_network_process+0x3fc>
 8003816:	2b01      	cmp	r3, #1
 8003818:	6ce5      	ldr	r5, [r4, #76]	; 0x4c
 800381a:	f240 8093 	bls.w	8003944 <ai_platform_network_process+0x3f8>
 800381e:	f105 070c 	add.w	r7, r5, #12
 8003822:	8ae0      	ldrh	r0, [r4, #22]
 8003824:	8aa3      	ldrh	r3, [r4, #20]
 8003826:	4283      	cmp	r3, r0
 8003828:	d977      	bls.n	800391a <ai_platform_network_process+0x3ce>
 800382a:	46a3      	mov	fp, r4
 800382c:	2d00      	cmp	r5, #0
 800382e:	d032      	beq.n	8003896 <ai_platform_network_process+0x34a>
 8003830:	882b      	ldrh	r3, [r5, #0]
 8003832:	2b00      	cmp	r3, #0
 8003834:	d02f      	beq.n	8003896 <ai_platform_network_process+0x34a>
 8003836:	686b      	ldr	r3, [r5, #4]
 8003838:	2b00      	cmp	r3, #0
 800383a:	d02c      	beq.n	8003896 <ai_platform_network_process+0x34a>
 800383c:	681b      	ldr	r3, [r3, #0]
 800383e:	f04f 0800 	mov.w	r8, #0
 8003842:	b343      	cbz	r3, 8003896 <ai_platform_network_process+0x34a>
 8003844:	68a9      	ldr	r1, [r5, #8]
 8003846:	699a      	ldr	r2, [r3, #24]
 8003848:	f8d1 a000 	ldr.w	sl, [r1]
 800384c:	6814      	ldr	r4, [r2, #0]
 800384e:	6890      	ldr	r0, [r2, #8]
 8003850:	ea4f 1908 	mov.w	r9, r8, lsl #4
 8003854:	eb0a 0609 	add.w	r6, sl, r9
 8003858:	00a4      	lsls	r4, r4, #2
 800385a:	6871      	ldr	r1, [r6, #4]
 800385c:	d45f      	bmi.n	800391e <ai_platform_network_process+0x3d2>
 800385e:	68d4      	ldr	r4, [r2, #12]
 8003860:	1b00      	subs	r0, r0, r4
 8003862:	4401      	add	r1, r0
 8003864:	6091      	str	r1, [r2, #8]
 8003866:	699b      	ldr	r3, [r3, #24]
 8003868:	6872      	ldr	r2, [r6, #4]
 800386a:	60da      	str	r2, [r3, #12]
 800386c:	e9d6 3101 	ldrd	r3, r1, [r6, #4]
 8003870:	f85a 2009 	ldr.w	r2, [sl, r9]
 8003874:	440b      	add	r3, r1
 8003876:	4293      	cmp	r3, r2
 8003878:	bf24      	itt	cs
 800387a:	68f3      	ldrcs	r3, [r6, #12]
 800387c:	1ad3      	subcs	r3, r2, r3
 800387e:	6073      	str	r3, [r6, #4]
 8003880:	882b      	ldrh	r3, [r5, #0]
 8003882:	f108 0801 	add.w	r8, r8, #1
 8003886:	4598      	cmp	r8, r3
 8003888:	d205      	bcs.n	8003896 <ai_platform_network_process+0x34a>
 800388a:	686b      	ldr	r3, [r5, #4]
 800388c:	b11b      	cbz	r3, 8003896 <ai_platform_network_process+0x34a>
 800388e:	f853 3028 	ldr.w	r3, [r3, r8, lsl #2]
 8003892:	2b00      	cmp	r3, #0
 8003894:	d1d6      	bne.n	8003844 <ai_platform_network_process+0x2f8>
 8003896:	4658      	mov	r0, fp
 8003898:	f001 fb2c 	bl	8004ef4 <ai_layers_forward_all>
 800389c:	2f00      	cmp	r7, #0
 800389e:	d032      	beq.n	8003906 <ai_platform_network_process+0x3ba>
 80038a0:	883b      	ldrh	r3, [r7, #0]
 80038a2:	2b00      	cmp	r3, #0
 80038a4:	d02f      	beq.n	8003906 <ai_platform_network_process+0x3ba>
 80038a6:	687b      	ldr	r3, [r7, #4]
 80038a8:	b36b      	cbz	r3, 8003906 <ai_platform_network_process+0x3ba>
 80038aa:	6818      	ldr	r0, [r3, #0]
 80038ac:	b358      	cbz	r0, 8003906 <ai_platform_network_process+0x3ba>
 80038ae:	f04f 0800 	mov.w	r8, #0
 80038b2:	68bb      	ldr	r3, [r7, #8]
 80038b4:	6981      	ldr	r1, [r0, #24]
 80038b6:	f8d3 a000 	ldr.w	sl, [r3]
 80038ba:	680c      	ldr	r4, [r1, #0]
 80038bc:	ea4f 1908 	mov.w	r9, r8, lsl #4
 80038c0:	eb0a 0609 	add.w	r6, sl, r9
 80038c4:	e9d6 c201 	ldrd	ip, r2, [r6, #4]
 80038c8:	00a4      	lsls	r4, r4, #2
 80038ca:	eb0c 0302 	add.w	r3, ip, r2
 80038ce:	d42a      	bmi.n	8003926 <ai_platform_network_process+0x3da>
 80038d0:	f85a 2009 	ldr.w	r2, [sl, r9]
 80038d4:	4293      	cmp	r3, r2
 80038d6:	bf24      	itt	cs
 80038d8:	68f3      	ldrcs	r3, [r6, #12]
 80038da:	1ad3      	subcs	r3, r2, r3
 80038dc:	6073      	str	r3, [r6, #4]
 80038de:	6981      	ldr	r1, [r0, #24]
 80038e0:	e9d1 2402 	ldrd	r2, r4, [r1, #8]
 80038e4:	1b12      	subs	r2, r2, r4
 80038e6:	4413      	add	r3, r2
 80038e8:	608b      	str	r3, [r1, #8]
 80038ea:	6983      	ldr	r3, [r0, #24]
 80038ec:	6872      	ldr	r2, [r6, #4]
 80038ee:	60da      	str	r2, [r3, #12]
 80038f0:	883b      	ldrh	r3, [r7, #0]
 80038f2:	f108 0801 	add.w	r8, r8, #1
 80038f6:	4598      	cmp	r8, r3
 80038f8:	d205      	bcs.n	8003906 <ai_platform_network_process+0x3ba>
 80038fa:	687b      	ldr	r3, [r7, #4]
 80038fc:	b11b      	cbz	r3, 8003906 <ai_platform_network_process+0x3ba>
 80038fe:	f853 0028 	ldr.w	r0, [r3, r8, lsl #2]
 8003902:	2800      	cmp	r0, #0
 8003904:	d1d5      	bne.n	80038b2 <ai_platform_network_process+0x366>
 8003906:	f8bb 0016 	ldrh.w	r0, [fp, #22]
 800390a:	f8bb 3014 	ldrh.w	r3, [fp, #20]
 800390e:	3001      	adds	r0, #1
 8003910:	b280      	uxth	r0, r0
 8003912:	4283      	cmp	r3, r0
 8003914:	f8ab 0016 	strh.w	r0, [fp, #22]
 8003918:	d888      	bhi.n	800382c <ai_platform_network_process+0x2e0>
 800391a:	4683      	mov	fp, r0
 800391c:	e69e      	b.n	800365c <ai_platform_network_process+0x110>
 800391e:	68b2      	ldr	r2, [r6, #8]
 8003920:	f001 fbc2 	bl	80050a8 <memcpy>
 8003924:	e7a2      	b.n	800386c <ai_platform_network_process+0x320>
 8003926:	6889      	ldr	r1, [r1, #8]
 8003928:	4660      	mov	r0, ip
 800392a:	f001 fbbd 	bl	80050a8 <memcpy>
 800392e:	e9d6 3101 	ldrd	r3, r1, [r6, #4]
 8003932:	f85a 2009 	ldr.w	r2, [sl, r9]
 8003936:	440b      	add	r3, r1
 8003938:	4293      	cmp	r3, r2
 800393a:	bf24      	itt	cs
 800393c:	68f3      	ldrcs	r3, [r6, #12]
 800393e:	1ad3      	subcs	r3, r2, r3
 8003940:	6073      	str	r3, [r6, #4]
 8003942:	e7d5      	b.n	80038f0 <ai_platform_network_process+0x3a4>
 8003944:	2700      	movs	r7, #0
 8003946:	e76c      	b.n	8003822 <ai_platform_network_process+0x2d6>
 8003948:	461d      	mov	r5, r3
 800394a:	461f      	mov	r7, r3
 800394c:	e769      	b.n	8003822 <ai_platform_network_process+0x2d6>
 800394e:	f104 0010 	add.w	r0, r4, #16
 8003952:	2218      	movs	r2, #24
 8003954:	2113      	movs	r1, #19
 8003956:	f000 f805 	bl	8003964 <core_set_error>
 800395a:	f04f 0b00 	mov.w	fp, #0
 800395e:	e67d      	b.n	800365c <ai_platform_network_process+0x110>

08003960 <core_init>:
 8003960:	2001      	movs	r0, #1
 8003962:	4770      	bx	lr

08003964 <core_set_error>:
 8003964:	7803      	ldrb	r3, [r0, #0]
 8003966:	b933      	cbnz	r3, 8003976 <core_set_error+0x12>
 8003968:	7001      	strb	r1, [r0, #0]
 800396a:	6803      	ldr	r3, [r0, #0]
 800396c:	f362 231f 	bfi	r3, r2, #8, #24
 8003970:	6003      	str	r3, [r0, #0]
 8003972:	2001      	movs	r0, #1
 8003974:	4770      	bx	lr
 8003976:	2000      	movs	r0, #0
 8003978:	4770      	bx	lr
 800397a:	bf00      	nop

0800397c <ai_dict8_dot_array_f32>:
 800397c:	e92d 47f0 	stmdb	sp!, {r4, r5, r6, r7, r8, r9, sl, lr}
 8003980:	f8dd c020 	ldr.w	ip, [sp, #32]
 8003984:	ea5f 08dc 	movs.w	r8, ip, lsr #3
 8003988:	f000 80c0 	beq.w	8003b0c <ai_dict8_dot_array_f32+0x190>
 800398c:	f101 0408 	add.w	r4, r1, #8
 8003990:	ea4f 09c8 	mov.w	r9, r8, lsl #3
 8003994:	ed9f 7a5f 	vldr	s14, [pc, #380]	; 8003b14 <ai_dict8_dot_array_f32+0x198>
 8003998:	eb04 0e09 	add.w	lr, r4, r9
 800399c:	f103 0520 	add.w	r5, r3, #32
 80039a0:	f814 6c07 	ldrb.w	r6, [r4, #-7]
 80039a4:	f814 ac08 	ldrb.w	sl, [r4, #-8]
 80039a8:	ed15 3a07 	vldr	s6, [r5, #-28]	; 0xffffffe4
 80039ac:	ed15 5a08 	vldr	s10, [r5, #-32]	; 0xffffffe0
 80039b0:	f814 7c06 	ldrb.w	r7, [r4, #-6]
 80039b4:	ed15 4a06 	vldr	s8, [r5, #-24]	; 0xffffffe8
 80039b8:	ed15 6a05 	vldr	s12, [r5, #-20]	; 0xffffffec
 80039bc:	ed55 3a04 	vldr	s7, [r5, #-16]
 80039c0:	ed55 4a03 	vldr	s9, [r5, #-12]
 80039c4:	ed55 5a02 	vldr	s11, [r5, #-8]
 80039c8:	ed55 6a01 	vldr	s13, [r5, #-4]
 80039cc:	eb02 0686 	add.w	r6, r2, r6, lsl #2
 80039d0:	edd6 7a00 	vldr	s15, [r6]
 80039d4:	f814 6c05 	ldrb.w	r6, [r4, #-5]
 80039d8:	eb02 0a8a 	add.w	sl, r2, sl, lsl #2
 80039dc:	ee67 7a83 	vmul.f32	s15, s15, s6
 80039e0:	ed9a 3a00 	vldr	s6, [sl]
 80039e4:	f814 ac04 	ldrb.w	sl, [r4, #-4]
 80039e8:	eee3 7a05 	vfma.f32	s15, s6, s10
 80039ec:	eb02 0787 	add.w	r7, r2, r7, lsl #2
 80039f0:	eb02 0686 	add.w	r6, r2, r6, lsl #2
 80039f4:	ed97 3a00 	vldr	s6, [r7]
 80039f8:	ed96 5a00 	vldr	s10, [r6]
 80039fc:	f814 6c03 	ldrb.w	r6, [r4, #-3]
 8003a00:	f814 7c02 	ldrb.w	r7, [r4, #-2]
 8003a04:	eee3 7a04 	vfma.f32	s15, s6, s8
 8003a08:	eb02 0a8a 	add.w	sl, r2, sl, lsl #2
 8003a0c:	eb02 0686 	add.w	r6, r2, r6, lsl #2
 8003a10:	ed9a 3a00 	vldr	s6, [sl]
 8003a14:	ed96 4a00 	vldr	s8, [r6]
 8003a18:	f814 6c01 	ldrb.w	r6, [r4, #-1]
 8003a1c:	eee5 7a06 	vfma.f32	s15, s10, s12
 8003a20:	eb02 0787 	add.w	r7, r2, r7, lsl #2
 8003a24:	eb02 0686 	add.w	r6, r2, r6, lsl #2
 8003a28:	ed97 5a00 	vldr	s10, [r7]
 8003a2c:	ed96 6a00 	vldr	s12, [r6]
 8003a30:	eee3 7a23 	vfma.f32	s15, s6, s7
 8003a34:	3408      	adds	r4, #8
 8003a36:	45a6      	cmp	lr, r4
 8003a38:	f105 0520 	add.w	r5, r5, #32
 8003a3c:	eee4 7a24 	vfma.f32	s15, s8, s9
 8003a40:	eee5 7a25 	vfma.f32	s15, s10, s11
 8003a44:	eee6 7a26 	vfma.f32	s15, s12, s13
 8003a48:	ee37 7a27 	vadd.f32	s14, s14, s15
 8003a4c:	d1a8      	bne.n	80039a0 <ai_dict8_dot_array_f32+0x24>
 8003a4e:	4449      	add	r1, r9
 8003a50:	eb03 1348 	add.w	r3, r3, r8, lsl #5
 8003a54:	f01c 0c07 	ands.w	ip, ip, #7
 8003a58:	d050      	beq.n	8003afc <ai_dict8_dot_array_f32+0x180>
 8003a5a:	780c      	ldrb	r4, [r1, #0]
 8003a5c:	edd3 6a00 	vldr	s13, [r3]
 8003a60:	eb02 0484 	add.w	r4, r2, r4, lsl #2
 8003a64:	edd4 7a00 	vldr	s15, [r4]
 8003a68:	f1bc 0f01 	cmp.w	ip, #1
 8003a6c:	eea6 7aa7 	vfma.f32	s14, s13, s15
 8003a70:	d044      	beq.n	8003afc <ai_dict8_dot_array_f32+0x180>
 8003a72:	784c      	ldrb	r4, [r1, #1]
 8003a74:	edd3 6a01 	vldr	s13, [r3, #4]
 8003a78:	eb02 0484 	add.w	r4, r2, r4, lsl #2
 8003a7c:	edd4 7a00 	vldr	s15, [r4]
 8003a80:	f1bc 0f02 	cmp.w	ip, #2
 8003a84:	eea6 7aa7 	vfma.f32	s14, s13, s15
 8003a88:	d038      	beq.n	8003afc <ai_dict8_dot_array_f32+0x180>
 8003a8a:	788c      	ldrb	r4, [r1, #2]
 8003a8c:	edd3 6a02 	vldr	s13, [r3, #8]
 8003a90:	eb02 0484 	add.w	r4, r2, r4, lsl #2
 8003a94:	edd4 7a00 	vldr	s15, [r4]
 8003a98:	f1bc 0f03 	cmp.w	ip, #3
 8003a9c:	eea6 7aa7 	vfma.f32	s14, s13, s15
 8003aa0:	d02c      	beq.n	8003afc <ai_dict8_dot_array_f32+0x180>
 8003aa2:	78cc      	ldrb	r4, [r1, #3]
 8003aa4:	edd3 6a03 	vldr	s13, [r3, #12]
 8003aa8:	eb02 0484 	add.w	r4, r2, r4, lsl #2
 8003aac:	edd4 7a00 	vldr	s15, [r4]
 8003ab0:	f1bc 0f04 	cmp.w	ip, #4
 8003ab4:	eea6 7aa7 	vfma.f32	s14, s13, s15
 8003ab8:	d020      	beq.n	8003afc <ai_dict8_dot_array_f32+0x180>
 8003aba:	790c      	ldrb	r4, [r1, #4]
 8003abc:	edd3 6a04 	vldr	s13, [r3, #16]
 8003ac0:	eb02 0484 	add.w	r4, r2, r4, lsl #2
 8003ac4:	edd4 7a00 	vldr	s15, [r4]
 8003ac8:	f1bc 0f05 	cmp.w	ip, #5
 8003acc:	eea6 7aa7 	vfma.f32	s14, s13, s15
 8003ad0:	d014      	beq.n	8003afc <ai_dict8_dot_array_f32+0x180>
 8003ad2:	794c      	ldrb	r4, [r1, #5]
 8003ad4:	edd3 6a05 	vldr	s13, [r3, #20]
 8003ad8:	eb02 0484 	add.w	r4, r2, r4, lsl #2
 8003adc:	edd4 7a00 	vldr	s15, [r4]
 8003ae0:	f1bc 0f06 	cmp.w	ip, #6
 8003ae4:	eea6 7aa7 	vfma.f32	s14, s13, s15
 8003ae8:	d008      	beq.n	8003afc <ai_dict8_dot_array_f32+0x180>
 8003aea:	7989      	ldrb	r1, [r1, #6]
 8003aec:	edd3 7a06 	vldr	s15, [r3, #24]
 8003af0:	eb02 0281 	add.w	r2, r2, r1, lsl #2
 8003af4:	edd2 6a00 	vldr	s13, [r2]
 8003af8:	eea6 7aa7 	vfma.f32	s14, s13, s15
 8003afc:	edd0 7a00 	vldr	s15, [r0]
 8003b00:	ee37 7a87 	vadd.f32	s14, s15, s14
 8003b04:	ed80 7a00 	vstr	s14, [r0]
 8003b08:	e8bd 87f0 	ldmia.w	sp!, {r4, r5, r6, r7, r8, r9, sl, pc}
 8003b0c:	ed9f 7a01 	vldr	s14, [pc, #4]	; 8003b14 <ai_dict8_dot_array_f32+0x198>
 8003b10:	e7a0      	b.n	8003a54 <ai_dict8_dot_array_f32+0xd8>
 8003b12:	bf00      	nop
 8003b14:	00000000 	.word	0x00000000

08003b18 <ai_dict4_dot_array_f32>:
 8003b18:	e92d 4ff0 	stmdb	sp!, {r4, r5, r6, r7, r8, r9, sl, fp, lr}
 8003b1c:	9f09      	ldr	r7, [sp, #36]	; 0x24
 8003b1e:	f027 0c01 	bic.w	ip, r7, #1
 8003b22:	ea5f 08d7 	movs.w	r8, r7, lsr #3
 8003b26:	eb03 0c8c 	add.w	ip, r3, ip, lsl #2
 8003b2a:	f000 80ae 	beq.w	8003c8a <ai_dict4_dot_array_f32+0x172>
 8003b2e:	1d0d      	adds	r5, r1, #4
 8003b30:	ea4f 0988 	mov.w	r9, r8, lsl #2
 8003b34:	ed9f 7a56 	vldr	s14, [pc, #344]	; 8003c90 <ai_dict4_dot_array_f32+0x178>
 8003b38:	eb05 0e09 	add.w	lr, r5, r9
 8003b3c:	f103 0420 	add.w	r4, r3, #32
 8003b40:	f815 6c04 	ldrb.w	r6, [r5, #-4]
 8003b44:	ed14 3a07 	vldr	s6, [r4, #-28]	; 0xffffffe4
 8003b48:	f815 bc03 	ldrb.w	fp, [r5, #-3]
 8003b4c:	ed54 3a08 	vldr	s7, [r4, #-32]	; 0xffffffe0
 8003b50:	ed14 4a06 	vldr	s8, [r4, #-24]	; 0xffffffe8
 8003b54:	ed54 4a05 	vldr	s9, [r4, #-20]	; 0xffffffec
 8003b58:	ed14 5a04 	vldr	s10, [r4, #-16]
 8003b5c:	ed54 5a03 	vldr	s11, [r4, #-12]
 8003b60:	ed14 6a02 	vldr	s12, [r4, #-8]
 8003b64:	ed54 6a01 	vldr	s13, [r4, #-4]
 8003b68:	f006 0a0f 	and.w	sl, r6, #15
 8003b6c:	eb02 0a8a 	add.w	sl, r2, sl, lsl #2
 8003b70:	edda 7a00 	vldr	s15, [sl]
 8003b74:	f815 ac02 	ldrb.w	sl, [r5, #-2]
 8003b78:	0936      	lsrs	r6, r6, #4
 8003b7a:	eb02 0686 	add.w	r6, r2, r6, lsl #2
 8003b7e:	ee67 7a83 	vmul.f32	s15, s15, s6
 8003b82:	ed96 3a00 	vldr	s6, [r6]
 8003b86:	ea4f 161b 	mov.w	r6, fp, lsr #4
 8003b8a:	eee3 7a23 	vfma.f32	s15, s6, s7
 8003b8e:	eb02 0686 	add.w	r6, r2, r6, lsl #2
 8003b92:	f00b 0b0f 	and.w	fp, fp, #15
 8003b96:	edd6 3a00 	vldr	s7, [r6]
 8003b9a:	f815 6c01 	ldrb.w	r6, [r5, #-1]
 8003b9e:	eee3 7a84 	vfma.f32	s15, s7, s8
 8003ba2:	eb02 0b8b 	add.w	fp, r2, fp, lsl #2
 8003ba6:	3504      	adds	r5, #4
 8003ba8:	ed9b 4a00 	vldr	s8, [fp]
 8003bac:	ea4f 1b1a 	mov.w	fp, sl, lsr #4
 8003bb0:	eee4 7a24 	vfma.f32	s15, s8, s9
 8003bb4:	eb02 0b8b 	add.w	fp, r2, fp, lsl #2
 8003bb8:	f00a 0a0f 	and.w	sl, sl, #15
 8003bbc:	eddb 4a00 	vldr	s9, [fp]
 8003bc0:	eee4 7a85 	vfma.f32	s15, s9, s10
 8003bc4:	eb02 0a8a 	add.w	sl, r2, sl, lsl #2
 8003bc8:	45ae      	cmp	lr, r5
 8003bca:	ed9a 5a00 	vldr	s10, [sl]
 8003bce:	ea4f 1a16 	mov.w	sl, r6, lsr #4
 8003bd2:	eee5 7a25 	vfma.f32	s15, s10, s11
 8003bd6:	eb02 0a8a 	add.w	sl, r2, sl, lsl #2
 8003bda:	f006 060f 	and.w	r6, r6, #15
 8003bde:	edda 5a00 	vldr	s11, [sl]
 8003be2:	eee5 7a86 	vfma.f32	s15, s11, s12
 8003be6:	eb02 0686 	add.w	r6, r2, r6, lsl #2
 8003bea:	f104 0420 	add.w	r4, r4, #32
 8003bee:	ed96 6a00 	vldr	s12, [r6]
 8003bf2:	eee6 7a26 	vfma.f32	s15, s12, s13
 8003bf6:	ee37 7a27 	vadd.f32	s14, s14, s15
 8003bfa:	d1a1      	bne.n	8003b40 <ai_dict4_dot_array_f32+0x28>
 8003bfc:	4449      	add	r1, r9
 8003bfe:	eb03 1348 	add.w	r3, r3, r8, lsl #5
 8003c02:	459c      	cmp	ip, r3
 8003c04:	d92d      	bls.n	8003c62 <ai_dict4_dot_array_f32+0x14a>
 8003c06:	f10c 0c07 	add.w	ip, ip, #7
 8003c0a:	f103 0508 	add.w	r5, r3, #8
 8003c0e:	ebac 0c05 	sub.w	ip, ip, r5
 8003c12:	f02c 0407 	bic.w	r4, ip, #7
 8003c16:	f103 0810 	add.w	r8, r3, #16
 8003c1a:	44a0      	add	r8, r4
 8003c1c:	f101 3eff 	add.w	lr, r1, #4294967295
 8003c20:	f81e 4f01 	ldrb.w	r4, [lr, #1]!
 8003c24:	ed15 6a01 	vldr	s12, [r5, #-4]
 8003c28:	ed55 6a02 	vldr	s13, [r5, #-8]
 8003c2c:	f004 060f 	and.w	r6, r4, #15
 8003c30:	eb02 0686 	add.w	r6, r2, r6, lsl #2
 8003c34:	0924      	lsrs	r4, r4, #4
 8003c36:	edd6 7a00 	vldr	s15, [r6]
 8003c3a:	eb02 0484 	add.w	r4, r2, r4, lsl #2
 8003c3e:	ee67 7a86 	vmul.f32	s15, s15, s12
 8003c42:	ed94 6a00 	vldr	s12, [r4]
 8003c46:	eee6 7a26 	vfma.f32	s15, s12, s13
 8003c4a:	3508      	adds	r5, #8
 8003c4c:	45a8      	cmp	r8, r5
 8003c4e:	ee37 7a27 	vadd.f32	s14, s14, s15
 8003c52:	d1e5      	bne.n	8003c20 <ai_dict4_dot_array_f32+0x108>
 8003c54:	ea4f 0cdc 	mov.w	ip, ip, lsr #3
 8003c58:	f10c 0c01 	add.w	ip, ip, #1
 8003c5c:	4461      	add	r1, ip
 8003c5e:	eb03 03cc 	add.w	r3, r3, ip, lsl #3
 8003c62:	07fc      	lsls	r4, r7, #31
 8003c64:	d509      	bpl.n	8003c7a <ai_dict4_dot_array_f32+0x162>
 8003c66:	7809      	ldrb	r1, [r1, #0]
 8003c68:	edd3 7a00 	vldr	s15, [r3]
 8003c6c:	090b      	lsrs	r3, r1, #4
 8003c6e:	eb02 0283 	add.w	r2, r2, r3, lsl #2
 8003c72:	edd2 6a00 	vldr	s13, [r2]
 8003c76:	eea6 7aa7 	vfma.f32	s14, s13, s15
 8003c7a:	edd0 7a00 	vldr	s15, [r0]
 8003c7e:	ee37 7a87 	vadd.f32	s14, s15, s14
 8003c82:	ed80 7a00 	vstr	s14, [r0]
 8003c86:	e8bd 8ff0 	ldmia.w	sp!, {r4, r5, r6, r7, r8, r9, sl, fp, pc}
 8003c8a:	ed9f 7a01 	vldr	s14, [pc, #4]	; 8003c90 <ai_dict4_dot_array_f32+0x178>
 8003c8e:	e7b8      	b.n	8003c02 <ai_dict4_dot_array_f32+0xea>
 8003c90:	00000000 	.word	0x00000000

08003c94 <forward_dense>:
 8003c94:	6942      	ldr	r2, [r0, #20]
 8003c96:	8813      	ldrh	r3, [r2, #0]
 8003c98:	2b00      	cmp	r3, #0
 8003c9a:	f000 81ca 	beq.w	8004032 <forward_dense+0x39e>
 8003c9e:	6852      	ldr	r2, [r2, #4]
 8003ca0:	6850      	ldr	r0, [r2, #4]
 8003ca2:	b100      	cbz	r0, 8003ca6 <forward_dense+0x12>
 8003ca4:	6800      	ldr	r0, [r0, #0]
 8003ca6:	2b01      	cmp	r3, #1
 8003ca8:	f240 81c0 	bls.w	800402c <forward_dense+0x398>
 8003cac:	6911      	ldr	r1, [r2, #16]
 8003cae:	b101      	cbz	r1, 8003cb2 <forward_dense+0x1e>
 8003cb0:	6809      	ldr	r1, [r1, #0]
 8003cb2:	2b02      	cmp	r3, #2
 8003cb4:	f000 81bf 	beq.w	8004036 <forward_dense+0x3a2>
 8003cb8:	e92d 4ff0 	stmdb	sp!, {r4, r5, r6, r7, r8, r9, sl, fp, lr}
 8003cbc:	ed2d 8b10 	vpush	{d8-d15}
 8003cc0:	69d3      	ldr	r3, [r2, #28]
 8003cc2:	b091      	sub	sp, #68	; 0x44
 8003cc4:	2b00      	cmp	r3, #0
 8003cc6:	f000 820b 	beq.w	80040e0 <forward_dense+0x44c>
 8003cca:	681c      	ldr	r4, [r3, #0]
 8003ccc:	9408      	str	r4, [sp, #32]
 8003cce:	f112 0418 	adds.w	r4, r2, #24
 8003cd2:	f000 81df 	beq.w	8004094 <forward_dense+0x400>
 8003cd6:	8b12      	ldrh	r2, [r2, #24]
 8003cd8:	2a01      	cmp	r2, #1
 8003cda:	f240 81fe 	bls.w	80040da <forward_dense+0x446>
 8003cde:	2b00      	cmp	r3, #0
 8003ce0:	f000 81da 	beq.w	8004098 <forward_dense+0x404>
 8003ce4:	685b      	ldr	r3, [r3, #4]
 8003ce6:	9306      	str	r3, [sp, #24]
 8003ce8:	9b08      	ldr	r3, [sp, #32]
 8003cea:	68cc      	ldr	r4, [r1, #12]
 8003cec:	699b      	ldr	r3, [r3, #24]
 8003cee:	68c5      	ldr	r5, [r0, #12]
 8003cf0:	681a      	ldr	r2, [r3, #0]
 8003cf2:	f8d5 8004 	ldr.w	r8, [r5, #4]
 8003cf6:	e9d4 6702 	ldrd	r6, r7, [r4, #8]
 8003cfa:	f3c2 1cc6 	ubfx	ip, r2, #7, #7
 8003cfe:	f3c2 5541 	ubfx	r5, r2, #21, #2
 8003d02:	fa4c f505 	asr.w	r5, ip, r5
 8003d06:	f3c2 4243 	ubfx	r2, r2, #17, #4
 8003d0a:	950b      	str	r5, [sp, #44]	; 0x2c
 8003d0c:	2a04      	cmp	r2, #4
 8003d0e:	fb07 f506 	mul.w	r5, r7, r6
 8003d12:	6864      	ldr	r4, [r4, #4]
 8003d14:	9507      	str	r5, [sp, #28]
 8003d16:	f000 81dd 	beq.w	80040d4 <forward_dense+0x440>
 8003d1a:	2a08      	cmp	r2, #8
 8003d1c:	f000 81da 	beq.w	80040d4 <forward_dense+0x440>
 8003d20:	f04f 0a00 	mov.w	sl, #0
 8003d24:	698a      	ldr	r2, [r1, #24]
 8003d26:	6981      	ldr	r1, [r0, #24]
 8003d28:	6890      	ldr	r0, [r2, #8]
 8003d2a:	9a08      	ldr	r2, [sp, #32]
 8003d2c:	9004      	str	r0, [sp, #16]
 8003d2e:	6952      	ldr	r2, [r2, #20]
 8003d30:	688f      	ldr	r7, [r1, #8]
 8003d32:	f8d2 9004 	ldr.w	r9, [r2, #4]
 8003d36:	00a2      	lsls	r2, r4, #2
 8003d38:	9209      	str	r2, [sp, #36]	; 0x24
 8003d3a:	1886      	adds	r6, r0, r2
 8003d3c:	9a07      	ldr	r2, [sp, #28]
 8003d3e:	2a00      	cmp	r2, #0
 8003d40:	f000 81c3 	beq.w	80040ca <forward_dense+0x436>
 8003d44:	f1a8 0210 	sub.w	r2, r8, #16
 8003d48:	0912      	lsrs	r2, r2, #4
 8003d4a:	3201      	adds	r2, #1
 8003d4c:	0192      	lsls	r2, r2, #6
 8003d4e:	920c      	str	r2, [sp, #48]	; 0x30
 8003d50:	ea4f 0288 	mov.w	r2, r8, lsl #2
 8003d54:	920a      	str	r2, [sp, #40]	; 0x28
 8003d56:	689d      	ldr	r5, [r3, #8]
 8003d58:	9b06      	ldr	r3, [sp, #24]
 8003d5a:	eddf aad0 	vldr	s21, [pc, #832]	; 800409c <forward_dense+0x408>
 8003d5e:	2200      	movs	r2, #0
 8003d60:	9205      	str	r2, [sp, #20]
 8003d62:	f008 020f 	and.w	r2, r8, #15
 8003d66:	920d      	str	r2, [sp, #52]	; 0x34
 8003d68:	2b00      	cmp	r3, #0
 8003d6a:	d043      	beq.n	8003df4 <forward_dense+0x160>
 8003d6c:	699b      	ldr	r3, [r3, #24]
 8003d6e:	689c      	ldr	r4, [r3, #8]
 8003d70:	9b04      	ldr	r3, [sp, #16]
 8003d72:	f1ba 0f00 	cmp.w	sl, #0
 8003d76:	d042      	beq.n	8003dfe <forward_dense+0x16a>
 8003d78:	42b3      	cmp	r3, r6
 8003d7a:	d22a      	bcs.n	8003dd2 <forward_dense+0x13e>
 8003d7c:	9a0b      	ldr	r2, [sp, #44]	; 0x2c
 8003d7e:	469b      	mov	fp, r3
 8003d80:	ab0f      	add	r3, sp, #60	; 0x3c
 8003d82:	9303      	str	r3, [sp, #12]
 8003d84:	2a04      	cmp	r2, #4
 8003d86:	4633      	mov	r3, r6
 8003d88:	4646      	mov	r6, r8
 8003d8a:	4698      	mov	r8, r3
 8003d8c:	f000 8156 	beq.w	800403c <forward_dense+0x3a8>
 8003d90:	2c00      	cmp	r4, #0
 8003d92:	f000 8185 	beq.w	80040a0 <forward_dense+0x40c>
 8003d96:	f8d4 c000 	ldr.w	ip, [r4]
 8003d9a:	9803      	ldr	r0, [sp, #12]
 8003d9c:	9600      	str	r6, [sp, #0]
 8003d9e:	463b      	mov	r3, r7
 8003da0:	4629      	mov	r1, r5
 8003da2:	4652      	mov	r2, sl
 8003da4:	f8cd c03c 	str.w	ip, [sp, #60]	; 0x3c
 8003da8:	f7ff fde8 	bl	800397c <ai_dict8_dot_array_f32>
 8003dac:	9b0f      	ldr	r3, [sp, #60]	; 0x3c
 8003dae:	f84b 3b04 	str.w	r3, [fp], #4
 8003db2:	45c3      	cmp	fp, r8
 8003db4:	f104 0404 	add.w	r4, r4, #4
 8003db8:	444d      	add	r5, r9
 8003dba:	d3e9      	bcc.n	8003d90 <forward_dense+0xfc>
 8003dbc:	4643      	mov	r3, r8
 8003dbe:	46b0      	mov	r8, r6
 8003dc0:	461e      	mov	r6, r3
 8003dc2:	9a04      	ldr	r2, [sp, #16]
 8003dc4:	43d3      	mvns	r3, r2
 8003dc6:	4433      	add	r3, r6
 8003dc8:	f023 0303 	bic.w	r3, r3, #3
 8003dcc:	3304      	adds	r3, #4
 8003dce:	18d3      	adds	r3, r2, r3
 8003dd0:	9304      	str	r3, [sp, #16]
 8003dd2:	9a0a      	ldr	r2, [sp, #40]	; 0x28
 8003dd4:	9b05      	ldr	r3, [sp, #20]
 8003dd6:	4417      	add	r7, r2
 8003dd8:	9a09      	ldr	r2, [sp, #36]	; 0x24
 8003dda:	4416      	add	r6, r2
 8003ddc:	9a07      	ldr	r2, [sp, #28]
 8003dde:	3301      	adds	r3, #1
 8003de0:	4293      	cmp	r3, r2
 8003de2:	9305      	str	r3, [sp, #20]
 8003de4:	f000 8171 	beq.w	80040ca <forward_dense+0x436>
 8003de8:	9b08      	ldr	r3, [sp, #32]
 8003dea:	699b      	ldr	r3, [r3, #24]
 8003dec:	689d      	ldr	r5, [r3, #8]
 8003dee:	9b06      	ldr	r3, [sp, #24]
 8003df0:	2b00      	cmp	r3, #0
 8003df2:	d1bb      	bne.n	8003d6c <forward_dense+0xd8>
 8003df4:	461c      	mov	r4, r3
 8003df6:	9b04      	ldr	r3, [sp, #16]
 8003df8:	f1ba 0f00 	cmp.w	sl, #0
 8003dfc:	d1bc      	bne.n	8003d78 <forward_dense+0xe4>
 8003dfe:	42b3      	cmp	r3, r6
 8003e00:	d2e7      	bcs.n	8003dd2 <forward_dense+0x13e>
 8003e02:	4618      	mov	r0, r3
 8003e04:	9b0c      	ldr	r3, [sp, #48]	; 0x30
 8003e06:	f8dd b034 	ldr.w	fp, [sp, #52]	; 0x34
 8003e0a:	eb07 0c03 	add.w	ip, r7, r3
 8003e0e:	469e      	mov	lr, r3
 8003e10:	2c00      	cmp	r4, #0
 8003e12:	f000 80ff 	beq.w	8004014 <forward_dense+0x380>
 8003e16:	f1b8 0f0f 	cmp.w	r8, #15
 8003e1a:	edd4 fa00 	vldr	s31, [r4]
 8003e1e:	eddf 6a9f 	vldr	s13, [pc, #636]	; 800409c <forward_dense+0x408>
 8003e22:	f104 0404 	add.w	r4, r4, #4
 8003e26:	f240 80fd 	bls.w	8004024 <forward_dense+0x390>
 8003e2a:	f107 0240 	add.w	r2, r7, #64	; 0x40
 8003e2e:	f105 0340 	add.w	r3, r5, #64	; 0x40
 8003e32:	4641      	mov	r1, r8
 8003e34:	ed13 fa0f 	vldr	s30, [r3, #-60]	; 0xffffffc4
 8003e38:	ed52 7a0f 	vldr	s15, [r2, #-60]	; 0xffffffc4
 8003e3c:	ed53 ea10 	vldr	s29, [r3, #-64]	; 0xffffffc0
 8003e40:	ed12 ea10 	vldr	s28, [r2, #-64]	; 0xffffffc0
 8003e44:	ed52 da0e 	vldr	s27, [r2, #-56]	; 0xffffffc8
 8003e48:	ed12 da0d 	vldr	s26, [r2, #-52]	; 0xffffffcc
 8003e4c:	ed53 ca0d 	vldr	s25, [r3, #-52]	; 0xffffffcc
 8003e50:	ed12 ca0c 	vldr	s24, [r2, #-48]	; 0xffffffd0
 8003e54:	ed53 ba0c 	vldr	s23, [r3, #-48]	; 0xffffffd0
 8003e58:	ed13 ba0b 	vldr	s22, [r3, #-44]	; 0xffffffd4
 8003e5c:	ed12 aa0b 	vldr	s20, [r2, #-44]	; 0xffffffd4
 8003e60:	ed52 9a0a 	vldr	s19, [r2, #-40]	; 0xffffffd8
 8003e64:	ed13 9a0a 	vldr	s18, [r3, #-40]	; 0xffffffd8
 8003e68:	ed52 8a09 	vldr	s17, [r2, #-36]	; 0xffffffdc
 8003e6c:	ed13 8a09 	vldr	s16, [r3, #-36]	; 0xffffffdc
 8003e70:	ed13 0a08 	vldr	s0, [r3, #-32]	; 0xffffffe0
 8003e74:	ed52 0a08 	vldr	s1, [r2, #-32]	; 0xffffffe0
 8003e78:	ed13 1a07 	vldr	s2, [r3, #-28]	; 0xffffffe4
 8003e7c:	ed52 1a07 	vldr	s3, [r2, #-28]	; 0xffffffe4
 8003e80:	ed13 2a06 	vldr	s4, [r3, #-24]	; 0xffffffe8
 8003e84:	ed52 2a06 	vldr	s5, [r2, #-24]	; 0xffffffe8
 8003e88:	ed12 3a05 	vldr	s6, [r2, #-20]	; 0xffffffec
 8003e8c:	ed53 3a05 	vldr	s7, [r3, #-20]	; 0xffffffec
 8003e90:	ed13 4a04 	vldr	s8, [r3, #-16]
 8003e94:	ed52 4a04 	vldr	s9, [r2, #-16]
 8003e98:	ed12 5a03 	vldr	s10, [r2, #-12]
 8003e9c:	ed53 5a03 	vldr	s11, [r3, #-12]
 8003ea0:	ed12 6a02 	vldr	s12, [r2, #-8]
 8003ea4:	ed13 7a02 	vldr	s14, [r3, #-8]
 8003ea8:	ee67 7a8f 	vmul.f32	s15, s15, s30
 8003eac:	ed13 fa0e 	vldr	s30, [r3, #-56]	; 0xffffffc8
 8003eb0:	eeee 7a8e 	vfma.f32	s15, s29, s28
 8003eb4:	3910      	subs	r1, #16
 8003eb6:	290f      	cmp	r1, #15
 8003eb8:	ed53 ea01 	vldr	s29, [r3, #-4]
 8003ebc:	ed12 ea01 	vldr	s28, [r2, #-4]
 8003ec0:	eeed 7a8f 	vfma.f32	s15, s27, s30
 8003ec4:	f103 0340 	add.w	r3, r3, #64	; 0x40
 8003ec8:	f102 0240 	add.w	r2, r2, #64	; 0x40
 8003ecc:	eeed 7a2c 	vfma.f32	s15, s26, s25
 8003ed0:	eeec 7a2b 	vfma.f32	s15, s24, s23
 8003ed4:	eeeb 7a0a 	vfma.f32	s15, s22, s20
 8003ed8:	eee9 7a89 	vfma.f32	s15, s19, s18
 8003edc:	eee8 7a88 	vfma.f32	s15, s17, s16
 8003ee0:	eee0 7a20 	vfma.f32	s15, s0, s1
 8003ee4:	eee1 7a21 	vfma.f32	s15, s2, s3
 8003ee8:	eee2 7a22 	vfma.f32	s15, s4, s5
 8003eec:	eee3 7a23 	vfma.f32	s15, s6, s7
 8003ef0:	eee4 7a24 	vfma.f32	s15, s8, s9
 8003ef4:	eee5 7a25 	vfma.f32	s15, s10, s11
 8003ef8:	eee6 7a07 	vfma.f32	s15, s12, s14
 8003efc:	eeee 7a8e 	vfma.f32	s15, s29, s28
 8003f00:	ee76 6aa7 	vadd.f32	s13, s13, s15
 8003f04:	d896      	bhi.n	8003e34 <forward_dense+0x1a0>
 8003f06:	eb05 010e 	add.w	r1, r5, lr
 8003f0a:	465b      	mov	r3, fp
 8003f0c:	4662      	mov	r2, ip
 8003f0e:	2b00      	cmp	r3, #0
 8003f10:	d075      	beq.n	8003ffe <forward_dense+0x36a>
 8003f12:	ed91 7a00 	vldr	s14, [r1]
 8003f16:	edd2 7a00 	vldr	s15, [r2]
 8003f1a:	2b01      	cmp	r3, #1
 8003f1c:	eee7 6a27 	vfma.f32	s13, s14, s15
 8003f20:	d06d      	beq.n	8003ffe <forward_dense+0x36a>
 8003f22:	ed91 7a01 	vldr	s14, [r1, #4]
 8003f26:	edd2 7a01 	vldr	s15, [r2, #4]
 8003f2a:	2b02      	cmp	r3, #2
 8003f2c:	eee7 6a27 	vfma.f32	s13, s14, s15
 8003f30:	d065      	beq.n	8003ffe <forward_dense+0x36a>
 8003f32:	ed91 7a02 	vldr	s14, [r1, #8]
 8003f36:	edd2 7a02 	vldr	s15, [r2, #8]
 8003f3a:	2b03      	cmp	r3, #3
 8003f3c:	eee7 6a27 	vfma.f32	s13, s14, s15
 8003f40:	d05d      	beq.n	8003ffe <forward_dense+0x36a>
 8003f42:	ed91 7a03 	vldr	s14, [r1, #12]
 8003f46:	edd2 7a03 	vldr	s15, [r2, #12]
 8003f4a:	2b04      	cmp	r3, #4
 8003f4c:	eee7 6a27 	vfma.f32	s13, s14, s15
 8003f50:	d055      	beq.n	8003ffe <forward_dense+0x36a>
 8003f52:	ed91 7a04 	vldr	s14, [r1, #16]
 8003f56:	edd2 7a04 	vldr	s15, [r2, #16]
 8003f5a:	2b05      	cmp	r3, #5
 8003f5c:	eee7 6a27 	vfma.f32	s13, s14, s15
 8003f60:	d04d      	beq.n	8003ffe <forward_dense+0x36a>
 8003f62:	ed91 7a05 	vldr	s14, [r1, #20]
 8003f66:	edd2 7a05 	vldr	s15, [r2, #20]
 8003f6a:	2b06      	cmp	r3, #6
 8003f6c:	eee7 6a27 	vfma.f32	s13, s14, s15
 8003f70:	d045      	beq.n	8003ffe <forward_dense+0x36a>
 8003f72:	ed91 7a06 	vldr	s14, [r1, #24]
 8003f76:	edd2 7a06 	vldr	s15, [r2, #24]
 8003f7a:	2b07      	cmp	r3, #7
 8003f7c:	eee7 6a27 	vfma.f32	s13, s14, s15
 8003f80:	d03d      	beq.n	8003ffe <forward_dense+0x36a>
 8003f82:	ed91 7a07 	vldr	s14, [r1, #28]
 8003f86:	edd2 7a07 	vldr	s15, [r2, #28]
 8003f8a:	2b08      	cmp	r3, #8
 8003f8c:	eee7 6a27 	vfma.f32	s13, s14, s15
 8003f90:	d035      	beq.n	8003ffe <forward_dense+0x36a>
 8003f92:	ed91 7a08 	vldr	s14, [r1, #32]
 8003f96:	edd2 7a08 	vldr	s15, [r2, #32]
 8003f9a:	2b09      	cmp	r3, #9
 8003f9c:	eee7 6a27 	vfma.f32	s13, s14, s15
 8003fa0:	d02d      	beq.n	8003ffe <forward_dense+0x36a>
 8003fa2:	ed91 7a09 	vldr	s14, [r1, #36]	; 0x24
 8003fa6:	edd2 7a09 	vldr	s15, [r2, #36]	; 0x24
 8003faa:	2b0a      	cmp	r3, #10
 8003fac:	eee7 6a27 	vfma.f32	s13, s14, s15
 8003fb0:	d025      	beq.n	8003ffe <forward_dense+0x36a>
 8003fb2:	ed91 7a0a 	vldr	s14, [r1, #40]	; 0x28
 8003fb6:	edd2 7a0a 	vldr	s15, [r2, #40]	; 0x28
 8003fba:	2b0b      	cmp	r3, #11
 8003fbc:	eee7 6a27 	vfma.f32	s13, s14, s15
 8003fc0:	d01d      	beq.n	8003ffe <forward_dense+0x36a>
 8003fc2:	ed91 7a0b 	vldr	s14, [r1, #44]	; 0x2c
 8003fc6:	edd2 7a0b 	vldr	s15, [r2, #44]	; 0x2c
 8003fca:	2b0c      	cmp	r3, #12
 8003fcc:	eee7 6a27 	vfma.f32	s13, s14, s15
 8003fd0:	d015      	beq.n	8003ffe <forward_dense+0x36a>
 8003fd2:	ed91 7a0c 	vldr	s14, [r1, #48]	; 0x30
 8003fd6:	edd2 7a0c 	vldr	s15, [r2, #48]	; 0x30
 8003fda:	2b0d      	cmp	r3, #13
 8003fdc:	eee7 6a27 	vfma.f32	s13, s14, s15
 8003fe0:	d00d      	beq.n	8003ffe <forward_dense+0x36a>
 8003fe2:	ed91 7a0d 	vldr	s14, [r1, #52]	; 0x34
 8003fe6:	edd2 7a0d 	vldr	s15, [r2, #52]	; 0x34
 8003fea:	2b0e      	cmp	r3, #14
 8003fec:	eee7 6a27 	vfma.f32	s13, s14, s15
 8003ff0:	d005      	beq.n	8003ffe <forward_dense+0x36a>
 8003ff2:	ed91 7a0e 	vldr	s14, [r1, #56]	; 0x38
 8003ff6:	edd2 7a0e 	vldr	s15, [r2, #56]	; 0x38
 8003ffa:	eee7 6a27 	vfma.f32	s13, s14, s15
 8003ffe:	444d      	add	r5, r9
 8004000:	ee7f 6aa6 	vadd.f32	s13, s31, s13
 8004004:	ece0 6a01 	vstmia	r0!, {s13}
 8004008:	42b0      	cmp	r0, r6
 800400a:	f4bf aeda 	bcs.w	8003dc2 <forward_dense+0x12e>
 800400e:	2c00      	cmp	r4, #0
 8004010:	f47f af01 	bne.w	8003e16 <forward_dense+0x182>
 8004014:	f1b8 0f0f 	cmp.w	r8, #15
 8004018:	eef0 fa6a 	vmov.f32	s31, s21
 800401c:	eddf 6a1f 	vldr	s13, [pc, #124]	; 800409c <forward_dense+0x408>
 8004020:	f63f af03 	bhi.w	8003e2a <forward_dense+0x196>
 8004024:	4643      	mov	r3, r8
 8004026:	4629      	mov	r1, r5
 8004028:	463a      	mov	r2, r7
 800402a:	e770      	b.n	8003f0e <forward_dense+0x27a>
 800402c:	2300      	movs	r3, #0
 800402e:	685b      	ldr	r3, [r3, #4]
 8004030:	deff      	udf	#255	; 0xff
 8004032:	685b      	ldr	r3, [r3, #4]
 8004034:	deff      	udf	#255	; 0xff
 8004036:	2300      	movs	r3, #0
 8004038:	685b      	ldr	r3, [r3, #4]
 800403a:	deff      	udf	#255	; 0xff
 800403c:	b1ac      	cbz	r4, 800406a <forward_dense+0x3d6>
 800403e:	f8d4 c000 	ldr.w	ip, [r4]
 8004042:	9803      	ldr	r0, [sp, #12]
 8004044:	9600      	str	r6, [sp, #0]
 8004046:	463b      	mov	r3, r7
 8004048:	4629      	mov	r1, r5
 800404a:	4652      	mov	r2, sl
 800404c:	f8cd c03c 	str.w	ip, [sp, #60]	; 0x3c
 8004050:	f7ff fd62 	bl	8003b18 <ai_dict4_dot_array_f32>
 8004054:	9b0f      	ldr	r3, [sp, #60]	; 0x3c
 8004056:	f84b 3b04 	str.w	r3, [fp], #4
 800405a:	45c3      	cmp	fp, r8
 800405c:	f104 0404 	add.w	r4, r4, #4
 8004060:	444d      	add	r5, r9
 8004062:	f4bf aeab 	bcs.w	8003dbc <forward_dense+0x128>
 8004066:	2c00      	cmp	r4, #0
 8004068:	d1e9      	bne.n	800403e <forward_dense+0x3aa>
 800406a:	4634      	mov	r4, r6
 800406c:	4646      	mov	r6, r8
 800406e:	f8dd 800c 	ldr.w	r8, [sp, #12]
 8004072:	9400      	str	r4, [sp, #0]
 8004074:	463b      	mov	r3, r7
 8004076:	4629      	mov	r1, r5
 8004078:	4652      	mov	r2, sl
 800407a:	4640      	mov	r0, r8
 800407c:	edcd aa0f 	vstr	s21, [sp, #60]	; 0x3c
 8004080:	f7ff fd4a 	bl	8003b18 <ai_dict4_dot_array_f32>
 8004084:	9b0f      	ldr	r3, [sp, #60]	; 0x3c
 8004086:	f84b 3b04 	str.w	r3, [fp], #4
 800408a:	45b3      	cmp	fp, r6
 800408c:	444d      	add	r5, r9
 800408e:	d3f0      	bcc.n	8004072 <forward_dense+0x3de>
 8004090:	46a0      	mov	r8, r4
 8004092:	e696      	b.n	8003dc2 <forward_dense+0x12e>
 8004094:	9406      	str	r4, [sp, #24]
 8004096:	e627      	b.n	8003ce8 <forward_dense+0x54>
 8004098:	9306      	str	r3, [sp, #24]
 800409a:	e625      	b.n	8003ce8 <forward_dense+0x54>
 800409c:	00000000 	.word	0x00000000
 80040a0:	4634      	mov	r4, r6
 80040a2:	4646      	mov	r6, r8
 80040a4:	f8dd 800c 	ldr.w	r8, [sp, #12]
 80040a8:	9400      	str	r4, [sp, #0]
 80040aa:	463b      	mov	r3, r7
 80040ac:	4629      	mov	r1, r5
 80040ae:	4652      	mov	r2, sl
 80040b0:	4640      	mov	r0, r8
 80040b2:	edcd aa0f 	vstr	s21, [sp, #60]	; 0x3c
 80040b6:	f7ff fc61 	bl	800397c <ai_dict8_dot_array_f32>
 80040ba:	9b0f      	ldr	r3, [sp, #60]	; 0x3c
 80040bc:	f84b 3b04 	str.w	r3, [fp], #4
 80040c0:	45b3      	cmp	fp, r6
 80040c2:	444d      	add	r5, r9
 80040c4:	d3f0      	bcc.n	80040a8 <forward_dense+0x414>
 80040c6:	46a0      	mov	r8, r4
 80040c8:	e67b      	b.n	8003dc2 <forward_dense+0x12e>
 80040ca:	b011      	add	sp, #68	; 0x44
 80040cc:	ecbd 8b10 	vpop	{d8-d15}
 80040d0:	e8bd 8ff0 	ldmia.w	sp!, {r4, r5, r6, r7, r8, r9, sl, fp, pc}
 80040d4:	f8d3 a00c 	ldr.w	sl, [r3, #12]
 80040d8:	e624      	b.n	8003d24 <forward_dense+0x90>
 80040da:	2300      	movs	r3, #0
 80040dc:	9306      	str	r3, [sp, #24]
 80040de:	e603      	b.n	8003ce8 <forward_dense+0x54>
 80040e0:	9308      	str	r3, [sp, #32]
 80040e2:	e5f4      	b.n	8003cce <forward_dense+0x3a>

080040e4 <array_f32_identity>:
 80040e4:	4288      	cmp	r0, r1
 80040e6:	d004      	beq.n	80040f2 <array_f32_identity+0xe>
 80040e8:	0092      	lsls	r2, r2, #2
 80040ea:	68c9      	ldr	r1, [r1, #12]
 80040ec:	68c0      	ldr	r0, [r0, #12]
 80040ee:	f000 bfdb 	b.w	80050a8 <memcpy>
 80040f2:	4770      	bx	lr

080040f4 <lstm_cell>:
 80040f4:	e92d 4ff0 	stmdb	sp!, {r4, r5, r6, r7, r8, r9, sl, fp, lr}
 80040f8:	4694      	mov	ip, r2
 80040fa:	8c8a      	ldrh	r2, [r1, #36]	; 0x24
 80040fc:	8ccd      	ldrh	r5, [r1, #38]	; 0x26
 80040fe:	680e      	ldr	r6, [r1, #0]
 8004100:	684b      	ldr	r3, [r1, #4]
 8004102:	f8d1 b008 	ldr.w	fp, [r1, #8]
 8004106:	f8d1 a028 	ldr.w	sl, [r1, #40]	; 0x28
 800410a:	f8d1 9020 	ldr.w	r9, [r1, #32]
 800410e:	460c      	mov	r4, r1
 8004110:	4611      	mov	r1, r2
 8004112:	b0b3      	sub	sp, #204	; 0xcc
 8004114:	fb01 f105 	mul.w	r1, r1, r5
 8004118:	0089      	lsls	r1, r1, #2
 800411a:	9301      	str	r3, [sp, #4]
 800411c:	9608      	str	r6, [sp, #32]
 800411e:	440e      	add	r6, r1
 8004120:	9602      	str	r6, [sp, #8]
 8004122:	fb05 f305 	mul.w	r3, r5, r5
 8004126:	9e01      	ldr	r6, [sp, #4]
 8004128:	9209      	str	r2, [sp, #36]	; 0x24
 800412a:	009b      	lsls	r3, r3, #2
 800412c:	441e      	add	r6, r3
 800412e:	9603      	str	r6, [sp, #12]
 8004130:	9e02      	ldr	r6, [sp, #8]
 8004132:	f8d4 802c 	ldr.w	r8, [r4, #44]	; 0x2c
 8004136:	f8cd c070 	str.w	ip, [sp, #112]	; 0x70
 800413a:	440e      	add	r6, r1
 800413c:	9604      	str	r6, [sp, #16]
 800413e:	9e03      	ldr	r6, [sp, #12]
 8004140:	f8cd c074 	str.w	ip, [sp, #116]	; 0x74
 8004144:	00aa      	lsls	r2, r5, #2
 8004146:	9206      	str	r2, [sp, #24]
 8004148:	441e      	add	r6, r3
 800414a:	eb0c 0702 	add.w	r7, ip, r2
 800414e:	9605      	str	r6, [sp, #20]
 8004150:	9e06      	ldr	r6, [sp, #24]
 8004152:	9000      	str	r0, [sp, #0]
 8004154:	18ba      	adds	r2, r7, r2
 8004156:	1996      	adds	r6, r2, r6
 8004158:	9615      	str	r6, [sp, #84]	; 0x54
 800415a:	951b      	str	r5, [sp, #108]	; 0x6c
 800415c:	9e06      	ldr	r6, [sp, #24]
 800415e:	951f      	str	r5, [sp, #124]	; 0x7c
 8004160:	9523      	str	r5, [sp, #140]	; 0x8c
 8004162:	9527      	str	r5, [sp, #156]	; 0x9c
 8004164:	952b      	str	r5, [sp, #172]	; 0xac
 8004166:	952f      	str	r5, [sp, #188]	; 0xbc
 8004168:	9804      	ldr	r0, [sp, #16]
 800416a:	1841      	adds	r1, r0, r1
 800416c:	9805      	ldr	r0, [sp, #20]
 800416e:	9118      	str	r1, [sp, #96]	; 0x60
 8004170:	18c3      	adds	r3, r0, r3
 8004172:	9915      	ldr	r1, [sp, #84]	; 0x54
 8004174:	9319      	str	r3, [sp, #100]	; 0x64
 8004176:	eb0b 0e06 	add.w	lr, fp, r6
 800417a:	4633      	mov	r3, r6
 800417c:	e9cd 1128 	strd	r1, r1, [sp, #160]	; 0xa0
 8004180:	4476      	add	r6, lr
 8004182:	eb0a 0103 	add.w	r1, sl, r3
 8004186:	4bd9      	ldr	r3, [pc, #868]	; (80044ec <lstm_cell+0x3f8>)
 8004188:	9617      	str	r6, [sp, #92]	; 0x5c
 800418a:	e9cd 7720 	strd	r7, r7, [sp, #128]	; 0x80
 800418e:	e9cd 2224 	strd	r2, r2, [sp, #144]	; 0x90
 8004192:	9116      	str	r1, [sp, #88]	; 0x58
 8004194:	e9cd 992c 	strd	r9, r9, [sp, #176]	; 0xb0
 8004198:	e9cd 8830 	strd	r8, r8, [sp, #192]	; 0xc0
 800419c:	931a      	str	r3, [sp, #104]	; 0x68
 800419e:	931e      	str	r3, [sp, #120]	; 0x78
 80041a0:	9322      	str	r3, [sp, #136]	; 0x88
 80041a2:	9326      	str	r3, [sp, #152]	; 0x98
 80041a4:	932a      	str	r3, [sp, #168]	; 0xa8
 80041a6:	932e      	str	r3, [sp, #184]	; 0xb8
 80041a8:	2d00      	cmp	r5, #0
 80041aa:	f000 83b0 	beq.w	800490e <lstm_cell+0x81a>
 80041ae:	9b09      	ldr	r3, [sp, #36]	; 0x24
 80041b0:	9711      	str	r7, [sp, #68]	; 0x44
 80041b2:	f1a3 0804 	sub.w	r8, r3, #4
 80041b6:	ea4f 0398 	mov.w	r3, r8, lsr #2
 80041ba:	f103 0901 	add.w	r9, r3, #1
 80041be:	ebc3 7383 	rsb	r3, r3, r3, lsl #30
 80041c2:	e9cd ea12 	strd	lr, sl, [sp, #72]	; 0x48
 80041c6:	eb08 0e83 	add.w	lr, r8, r3, lsl #2
 80041ca:	9b00      	ldr	r3, [sp, #0]
 80041cc:	f8cd e02c 	str.w	lr, [sp, #44]	; 0x2c
 80041d0:	1f28      	subs	r0, r5, #4
 80041d2:	e9cd 2c0e 	strd	r2, ip, [sp, #56]	; 0x38
 80041d6:	46bc      	mov	ip, r7
 80041d8:	ea4f 1709 	mov.w	r7, r9, lsl #4
 80041dc:	0881      	lsrs	r1, r0, #2
 80041de:	970a      	str	r7, [sp, #40]	; 0x28
 80041e0:	19df      	adds	r7, r3, r7
 80041e2:	9b09      	ldr	r3, [sp, #36]	; 0x24
 80041e4:	970c      	str	r7, [sp, #48]	; 0x30
 80041e6:	ebc1 7281 	rsb	r2, r1, r1, lsl #30
 80041ea:	eb00 0782 	add.w	r7, r0, r2, lsl #2
 80041ee:	009a      	lsls	r2, r3, #2
 80041f0:	9207      	str	r2, [sp, #28]
 80041f2:	9b06      	ldr	r3, [sp, #24]
 80041f4:	9a16      	ldr	r2, [sp, #88]	; 0x58
 80041f6:	9610      	str	r6, [sp, #64]	; 0x40
 80041f8:	46e6      	mov	lr, ip
 80041fa:	e9dd c00e 	ldrd	ip, r0, [sp, #56]	; 0x38
 80041fe:	3101      	adds	r1, #1
 8004200:	eb02 0803 	add.w	r8, r2, r3
 8004204:	eddf 6aba 	vldr	s13, [pc, #744]	; 80044f0 <lstm_cell+0x3fc>
 8004208:	9e09      	ldr	r6, [sp, #36]	; 0x24
 800420a:	f8cd b050 	str.w	fp, [sp, #80]	; 0x50
 800420e:	2300      	movs	r3, #0
 8004210:	0109      	lsls	r1, r1, #4
 8004212:	930d      	str	r3, [sp, #52]	; 0x34
 8004214:	009b      	lsls	r3, r3, #2
 8004216:	2e03      	cmp	r6, #3
 8004218:	edc0 6a00 	vstr	s13, [r0]
 800421c:	9309      	str	r3, [sp, #36]	; 0x24
 800421e:	ed9f 6ab4 	vldr	s12, [pc, #720]	; 80044f0 <lstm_cell+0x3fc>
 8004222:	f240 836f 	bls.w	8004904 <lstm_cell+0x810>
 8004226:	9b08      	ldr	r3, [sp, #32]
 8004228:	f103 0210 	add.w	r2, r3, #16
 800422c:	9b00      	ldr	r3, [sp, #0]
 800422e:	46b1      	mov	r9, r6
 8004230:	3310      	adds	r3, #16
 8004232:	ed12 7a03 	vldr	s14, [r2, #-12]
 8004236:	ed53 7a03 	vldr	s15, [r3, #-12]
 800423a:	ed12 3a04 	vldr	s6, [r2, #-16]
 800423e:	ed53 3a04 	vldr	s7, [r3, #-16]
 8004242:	ed12 4a02 	vldr	s8, [r2, #-8]
 8004246:	ed53 4a02 	vldr	s9, [r3, #-8]
 800424a:	ed12 5a01 	vldr	s10, [r2, #-4]
 800424e:	ed53 5a01 	vldr	s11, [r3, #-4]
 8004252:	ee67 7a27 	vmul.f32	s15, s14, s15
 8004256:	f1a9 0904 	sub.w	r9, r9, #4
 800425a:	eee3 7a23 	vfma.f32	s15, s6, s7
 800425e:	f1b9 0f03 	cmp.w	r9, #3
 8004262:	f102 0210 	add.w	r2, r2, #16
 8004266:	f103 0310 	add.w	r3, r3, #16
 800426a:	eee4 7a24 	vfma.f32	s15, s8, s9
 800426e:	eee5 7a25 	vfma.f32	s15, s10, s11
 8004272:	ee36 6a27 	vadd.f32	s12, s12, s15
 8004276:	d8dc      	bhi.n	8004232 <lstm_cell+0x13e>
 8004278:	9b08      	ldr	r3, [sp, #32]
 800427a:	9a0a      	ldr	r2, [sp, #40]	; 0x28
 800427c:	eb03 0902 	add.w	r9, r3, r2
 8004280:	e9dd 320b 	ldrd	r3, r2, [sp, #44]	; 0x2c
 8004284:	b1ab      	cbz	r3, 80042b2 <lstm_cell+0x1be>
 8004286:	ed99 7a00 	vldr	s14, [r9]
 800428a:	edd2 7a00 	vldr	s15, [r2]
 800428e:	2b01      	cmp	r3, #1
 8004290:	eea7 6a27 	vfma.f32	s12, s14, s15
 8004294:	d00d      	beq.n	80042b2 <lstm_cell+0x1be>
 8004296:	ed99 7a01 	vldr	s14, [r9, #4]
 800429a:	edd2 7a01 	vldr	s15, [r2, #4]
 800429e:	2b02      	cmp	r3, #2
 80042a0:	eea7 6a27 	vfma.f32	s12, s14, s15
 80042a4:	d005      	beq.n	80042b2 <lstm_cell+0x1be>
 80042a6:	ed99 7a02 	vldr	s14, [r9, #8]
 80042aa:	edd2 7a02 	vldr	s15, [r2, #8]
 80042ae:	eea7 6a27 	vfma.f32	s12, s14, s15
 80042b2:	2d03      	cmp	r5, #3
 80042b4:	9b01      	ldr	r3, [sp, #4]
 80042b6:	ed80 6a00 	vstr	s12, [r0]
 80042ba:	f8d4 a01c 	ldr.w	sl, [r4, #28]
 80042be:	eddf 5a8c 	vldr	s11, [pc, #560]	; 80044f0 <lstm_cell+0x3fc>
 80042c2:	f240 831d 	bls.w	8004900 <lstm_cell+0x80c>
 80042c6:	f103 0210 	add.w	r2, r3, #16
 80042ca:	46a9      	mov	r9, r5
 80042cc:	f10a 0310 	add.w	r3, sl, #16
 80042d0:	ed12 7a03 	vldr	s14, [r2, #-12]
 80042d4:	ed53 7a03 	vldr	s15, [r3, #-12]
 80042d8:	ed52 2a04 	vldr	s5, [r2, #-16]
 80042dc:	ed13 3a04 	vldr	s6, [r3, #-16]
 80042e0:	ed52 3a02 	vldr	s7, [r2, #-8]
 80042e4:	ed13 4a02 	vldr	s8, [r3, #-8]
 80042e8:	ed52 4a01 	vldr	s9, [r2, #-4]
 80042ec:	ed13 5a01 	vldr	s10, [r3, #-4]
 80042f0:	ee67 7a27 	vmul.f32	s15, s14, s15
 80042f4:	f1a9 0904 	sub.w	r9, r9, #4
 80042f8:	eee2 7a83 	vfma.f32	s15, s5, s6
 80042fc:	f1b9 0f03 	cmp.w	r9, #3
 8004300:	f102 0210 	add.w	r2, r2, #16
 8004304:	f103 0310 	add.w	r3, r3, #16
 8004308:	eee3 7a84 	vfma.f32	s15, s7, s8
 800430c:	eee4 7a85 	vfma.f32	s15, s9, s10
 8004310:	ee75 5aa7 	vadd.f32	s11, s11, s15
 8004314:	d8dc      	bhi.n	80042d0 <lstm_cell+0x1dc>
 8004316:	9b01      	ldr	r3, [sp, #4]
 8004318:	448a      	add	sl, r1
 800431a:	440b      	add	r3, r1
 800431c:	b1b7      	cbz	r7, 800434c <lstm_cell+0x258>
 800431e:	463a      	mov	r2, r7
 8004320:	ed93 7a00 	vldr	s14, [r3]
 8004324:	edda 7a00 	vldr	s15, [sl]
 8004328:	2a01      	cmp	r2, #1
 800432a:	eee7 5a27 	vfma.f32	s11, s14, s15
 800432e:	d00d      	beq.n	800434c <lstm_cell+0x258>
 8004330:	ed93 7a01 	vldr	s14, [r3, #4]
 8004334:	edda 7a01 	vldr	s15, [sl, #4]
 8004338:	2a02      	cmp	r2, #2
 800433a:	eee7 5a27 	vfma.f32	s11, s14, s15
 800433e:	d005      	beq.n	800434c <lstm_cell+0x258>
 8004340:	ed93 7a02 	vldr	s14, [r3, #8]
 8004344:	edda 7a02 	vldr	s15, [sl, #8]
 8004348:	eee7 5a27 	vfma.f32	s11, s14, s15
 800434c:	9a13      	ldr	r2, [sp, #76]	; 0x4c
 800434e:	ee35 6a86 	vadd.f32	s12, s11, s12
 8004352:	2e03      	cmp	r6, #3
 8004354:	ed80 6a00 	vstr	s12, [r0]
 8004358:	ecb2 7a01 	vldmia	r2!, {s14}
 800435c:	6ae3      	ldr	r3, [r4, #44]	; 0x2c
 800435e:	9213      	str	r2, [sp, #76]	; 0x4c
 8004360:	9a14      	ldr	r2, [sp, #80]	; 0x50
 8004362:	ecf2 5a01 	vldmia	r2!, {s11}
 8004366:	9214      	str	r2, [sp, #80]	; 0x50
 8004368:	9a09      	ldr	r2, [sp, #36]	; 0x24
 800436a:	4413      	add	r3, r2
 800436c:	edd3 7a00 	vldr	s15, [r3]
 8004370:	eee7 5a27 	vfma.f32	s11, s14, s15
 8004374:	ee35 6a86 	vadd.f32	s12, s11, s12
 8004378:	eca0 6a01 	vstmia	r0!, {s12}
 800437c:	edce 6a00 	vstr	s13, [lr]
 8004380:	ed9f 6a5b 	vldr	s12, [pc, #364]	; 80044f0 <lstm_cell+0x3fc>
 8004384:	f240 82b7 	bls.w	80048f6 <lstm_cell+0x802>
 8004388:	9b02      	ldr	r3, [sp, #8]
 800438a:	f103 0210 	add.w	r2, r3, #16
 800438e:	9b00      	ldr	r3, [sp, #0]
 8004390:	46b1      	mov	r9, r6
 8004392:	3310      	adds	r3, #16
 8004394:	ed12 7a03 	vldr	s14, [r2, #-12]
 8004398:	ed53 7a03 	vldr	s15, [r3, #-12]
 800439c:	ed12 3a04 	vldr	s6, [r2, #-16]
 80043a0:	ed53 3a04 	vldr	s7, [r3, #-16]
 80043a4:	ed12 4a02 	vldr	s8, [r2, #-8]
 80043a8:	ed53 4a02 	vldr	s9, [r3, #-8]
 80043ac:	ed12 5a01 	vldr	s10, [r2, #-4]
 80043b0:	ed53 5a01 	vldr	s11, [r3, #-4]
 80043b4:	ee67 7a27 	vmul.f32	s15, s14, s15
 80043b8:	f1a9 0904 	sub.w	r9, r9, #4
 80043bc:	eee3 7a23 	vfma.f32	s15, s6, s7
 80043c0:	f1b9 0f03 	cmp.w	r9, #3
 80043c4:	f102 0210 	add.w	r2, r2, #16
 80043c8:	f103 0310 	add.w	r3, r3, #16
 80043cc:	eee4 7a24 	vfma.f32	s15, s8, s9
 80043d0:	eee5 7a25 	vfma.f32	s15, s10, s11
 80043d4:	ee36 6a27 	vadd.f32	s12, s12, s15
 80043d8:	d8dc      	bhi.n	8004394 <lstm_cell+0x2a0>
 80043da:	9b02      	ldr	r3, [sp, #8]
 80043dc:	9a0a      	ldr	r2, [sp, #40]	; 0x28
 80043de:	eb03 0902 	add.w	r9, r3, r2
 80043e2:	e9dd 320b 	ldrd	r3, r2, [sp, #44]	; 0x2c
 80043e6:	b1ab      	cbz	r3, 8004414 <lstm_cell+0x320>
 80043e8:	ed99 7a00 	vldr	s14, [r9]
 80043ec:	edd2 7a00 	vldr	s15, [r2]
 80043f0:	2b01      	cmp	r3, #1
 80043f2:	eea7 6a27 	vfma.f32	s12, s14, s15
 80043f6:	d00d      	beq.n	8004414 <lstm_cell+0x320>
 80043f8:	ed99 7a01 	vldr	s14, [r9, #4]
 80043fc:	edd2 7a01 	vldr	s15, [r2, #4]
 8004400:	2b02      	cmp	r3, #2
 8004402:	eea7 6a27 	vfma.f32	s12, s14, s15
 8004406:	d005      	beq.n	8004414 <lstm_cell+0x320>
 8004408:	ed99 7a02 	vldr	s14, [r9, #8]
 800440c:	edd2 7a02 	vldr	s15, [r2, #8]
 8004410:	eea7 6a27 	vfma.f32	s12, s14, s15
 8004414:	2d03      	cmp	r5, #3
 8004416:	ed8e 6a00 	vstr	s12, [lr]
 800441a:	f8d4 a01c 	ldr.w	sl, [r4, #28]
 800441e:	eddf 5a34 	vldr	s11, [pc, #208]	; 80044f0 <lstm_cell+0x3fc>
 8004422:	f240 8265 	bls.w	80048f0 <lstm_cell+0x7fc>
 8004426:	9b03      	ldr	r3, [sp, #12]
 8004428:	46a9      	mov	r9, r5
 800442a:	f103 0210 	add.w	r2, r3, #16
 800442e:	f10a 0310 	add.w	r3, sl, #16
 8004432:	ed12 7a03 	vldr	s14, [r2, #-12]
 8004436:	ed53 7a03 	vldr	s15, [r3, #-12]
 800443a:	ed52 2a04 	vldr	s5, [r2, #-16]
 800443e:	ed13 3a04 	vldr	s6, [r3, #-16]
 8004442:	ed52 3a02 	vldr	s7, [r2, #-8]
 8004446:	ed13 4a02 	vldr	s8, [r3, #-8]
 800444a:	ed52 4a01 	vldr	s9, [r2, #-4]
 800444e:	ed13 5a01 	vldr	s10, [r3, #-4]
 8004452:	ee67 7a27 	vmul.f32	s15, s14, s15
 8004456:	f1a9 0904 	sub.w	r9, r9, #4
 800445a:	eee2 7a83 	vfma.f32	s15, s5, s6
 800445e:	f1b9 0f03 	cmp.w	r9, #3
 8004462:	f102 0210 	add.w	r2, r2, #16
 8004466:	f103 0310 	add.w	r3, r3, #16
 800446a:	eee3 7a84 	vfma.f32	s15, s7, s8
 800446e:	eee4 7a85 	vfma.f32	s15, s9, s10
 8004472:	ee75 5aa7 	vadd.f32	s11, s11, s15
 8004476:	d8dc      	bhi.n	8004432 <lstm_cell+0x33e>
 8004478:	9b03      	ldr	r3, [sp, #12]
 800447a:	448a      	add	sl, r1
 800447c:	440b      	add	r3, r1
 800447e:	b1b7      	cbz	r7, 80044ae <lstm_cell+0x3ba>
 8004480:	463a      	mov	r2, r7
 8004482:	ed93 7a00 	vldr	s14, [r3]
 8004486:	edda 7a00 	vldr	s15, [sl]
 800448a:	2a01      	cmp	r2, #1
 800448c:	eee7 5a27 	vfma.f32	s11, s14, s15
 8004490:	d00d      	beq.n	80044ae <lstm_cell+0x3ba>
 8004492:	ed93 7a01 	vldr	s14, [r3, #4]
 8004496:	edda 7a01 	vldr	s15, [sl, #4]
 800449a:	2a02      	cmp	r2, #2
 800449c:	eee7 5a27 	vfma.f32	s11, s14, s15
 80044a0:	d005      	beq.n	80044ae <lstm_cell+0x3ba>
 80044a2:	ed93 7a02 	vldr	s14, [r3, #8]
 80044a6:	edda 7a02 	vldr	s15, [sl, #8]
 80044aa:	eee7 5a27 	vfma.f32	s11, s14, s15
 80044ae:	9a12      	ldr	r2, [sp, #72]	; 0x48
 80044b0:	ee35 6a86 	vadd.f32	s12, s11, s12
 80044b4:	2e03      	cmp	r6, #3
 80044b6:	ed8e 6a00 	vstr	s12, [lr]
 80044ba:	ecf2 5a01 	vldmia	r2!, {s11}
 80044be:	6ae3      	ldr	r3, [r4, #44]	; 0x2c
 80044c0:	9212      	str	r2, [sp, #72]	; 0x48
 80044c2:	9a09      	ldr	r2, [sp, #36]	; 0x24
 80044c4:	ed98 7a00 	vldr	s14, [r8]
 80044c8:	4413      	add	r3, r2
 80044ca:	edd3 7a00 	vldr	s15, [r3]
 80044ce:	eee7 5a27 	vfma.f32	s11, s14, s15
 80044d2:	46c1      	mov	r9, r8
 80044d4:	ee35 6a86 	vadd.f32	s12, s11, s12
 80044d8:	ecae 6a01 	vstmia	lr!, {s12}
 80044dc:	edcc 6a00 	vstr	s13, [ip]
 80044e0:	ed9f 6a03 	vldr	s12, [pc, #12]	; 80044f0 <lstm_cell+0x3fc>
 80044e4:	f240 80da 	bls.w	800469c <lstm_cell+0x5a8>
 80044e8:	e004      	b.n	80044f4 <lstm_cell+0x400>
 80044ea:	bf00      	nop
 80044ec:	01821040 	.word	0x01821040
 80044f0:	00000000 	.word	0x00000000
 80044f4:	9b04      	ldr	r3, [sp, #16]
 80044f6:	f103 0210 	add.w	r2, r3, #16
 80044fa:	9b00      	ldr	r3, [sp, #0]
 80044fc:	46b2      	mov	sl, r6
 80044fe:	3310      	adds	r3, #16
 8004500:	ed12 7a03 	vldr	s14, [r2, #-12]
 8004504:	ed53 7a03 	vldr	s15, [r3, #-12]
 8004508:	ed12 3a04 	vldr	s6, [r2, #-16]
 800450c:	ed53 3a04 	vldr	s7, [r3, #-16]
 8004510:	ed12 4a02 	vldr	s8, [r2, #-8]
 8004514:	ed53 4a02 	vldr	s9, [r3, #-8]
 8004518:	ed12 5a01 	vldr	s10, [r2, #-4]
 800451c:	ed53 5a01 	vldr	s11, [r3, #-4]
 8004520:	ee67 7a27 	vmul.f32	s15, s14, s15
 8004524:	f1aa 0a04 	sub.w	sl, sl, #4
 8004528:	eee3 7a23 	vfma.f32	s15, s6, s7
 800452c:	f1ba 0f03 	cmp.w	sl, #3
 8004530:	f102 0210 	add.w	r2, r2, #16
 8004534:	f103 0310 	add.w	r3, r3, #16
 8004538:	eee4 7a24 	vfma.f32	s15, s8, s9
 800453c:	eee5 7a25 	vfma.f32	s15, s10, s11
 8004540:	ee36 6a27 	vadd.f32	s12, s12, s15
 8004544:	d8dc      	bhi.n	8004500 <lstm_cell+0x40c>
 8004546:	9b04      	ldr	r3, [sp, #16]
 8004548:	9a0a      	ldr	r2, [sp, #40]	; 0x28
 800454a:	eb03 0a02 	add.w	sl, r3, r2
 800454e:	e9dd 320b 	ldrd	r3, r2, [sp, #44]	; 0x2c
 8004552:	b1ab      	cbz	r3, 8004580 <lstm_cell+0x48c>
 8004554:	ed9a 7a00 	vldr	s14, [sl]
 8004558:	edd2 7a00 	vldr	s15, [r2]
 800455c:	2b01      	cmp	r3, #1
 800455e:	eea7 6a27 	vfma.f32	s12, s14, s15
 8004562:	d00d      	beq.n	8004580 <lstm_cell+0x48c>
 8004564:	ed9a 7a01 	vldr	s14, [sl, #4]
 8004568:	edd2 7a01 	vldr	s15, [r2, #4]
 800456c:	2b02      	cmp	r3, #2
 800456e:	eea7 6a27 	vfma.f32	s12, s14, s15
 8004572:	d005      	beq.n	8004580 <lstm_cell+0x48c>
 8004574:	ed9a 7a02 	vldr	s14, [sl, #8]
 8004578:	edd2 7a02 	vldr	s15, [r2, #8]
 800457c:	eea7 6a27 	vfma.f32	s12, s14, s15
 8004580:	2d03      	cmp	r5, #3
 8004582:	ed8c 6a00 	vstr	s12, [ip]
 8004586:	f8d4 b01c 	ldr.w	fp, [r4, #28]
 800458a:	ed5f 5a27 	vldr	s11, [pc, #-156]	; 80044f0 <lstm_cell+0x3fc>
 800458e:	f240 8082 	bls.w	8004696 <lstm_cell+0x5a2>
 8004592:	9b05      	ldr	r3, [sp, #20]
 8004594:	46aa      	mov	sl, r5
 8004596:	f103 0210 	add.w	r2, r3, #16
 800459a:	f10b 0310 	add.w	r3, fp, #16
 800459e:	ed12 7a03 	vldr	s14, [r2, #-12]
 80045a2:	ed53 7a03 	vldr	s15, [r3, #-12]
 80045a6:	ed52 2a04 	vldr	s5, [r2, #-16]
 80045aa:	ed13 3a04 	vldr	s6, [r3, #-16]
 80045ae:	ed52 3a02 	vldr	s7, [r2, #-8]
 80045b2:	ed13 4a02 	vldr	s8, [r3, #-8]
 80045b6:	ed52 4a01 	vldr	s9, [r2, #-4]
 80045ba:	ed13 5a01 	vldr	s10, [r3, #-4]
 80045be:	ee67 7a27 	vmul.f32	s15, s14, s15
 80045c2:	f1aa 0a04 	sub.w	sl, sl, #4
 80045c6:	eee2 7a83 	vfma.f32	s15, s5, s6
 80045ca:	f1ba 0f03 	cmp.w	sl, #3
 80045ce:	f102 0210 	add.w	r2, r2, #16
 80045d2:	f103 0310 	add.w	r3, r3, #16
 80045d6:	eee3 7a84 	vfma.f32	s15, s7, s8
 80045da:	eee4 7a85 	vfma.f32	s15, s9, s10
 80045de:	ee75 5aa7 	vadd.f32	s11, s11, s15
 80045e2:	d8dc      	bhi.n	800459e <lstm_cell+0x4aa>
 80045e4:	9b05      	ldr	r3, [sp, #20]
 80045e6:	448b      	add	fp, r1
 80045e8:	440b      	add	r3, r1
 80045ea:	b1b7      	cbz	r7, 800461a <lstm_cell+0x526>
 80045ec:	463a      	mov	r2, r7
 80045ee:	ed93 7a00 	vldr	s14, [r3]
 80045f2:	eddb 7a00 	vldr	s15, [fp]
 80045f6:	2a01      	cmp	r2, #1
 80045f8:	eee7 5a27 	vfma.f32	s11, s14, s15
 80045fc:	d00d      	beq.n	800461a <lstm_cell+0x526>
 80045fe:	ed93 7a01 	vldr	s14, [r3, #4]
 8004602:	eddb 7a01 	vldr	s15, [fp, #4]
 8004606:	2a02      	cmp	r2, #2
 8004608:	eee7 5a27 	vfma.f32	s11, s14, s15
 800460c:	d005      	beq.n	800461a <lstm_cell+0x526>
 800460e:	ed93 7a02 	vldr	s14, [r3, #8]
 8004612:	eddb 7a02 	vldr	s15, [fp, #8]
 8004616:	eee7 5a27 	vfma.f32	s11, s14, s15
 800461a:	9b08      	ldr	r3, [sp, #32]
 800461c:	469a      	mov	sl, r3
 800461e:	9b07      	ldr	r3, [sp, #28]
 8004620:	449a      	add	sl, r3
 8004622:	9b01      	ldr	r3, [sp, #4]
 8004624:	f8cd a020 	str.w	sl, [sp, #32]
 8004628:	461a      	mov	r2, r3
 800462a:	9b06      	ldr	r3, [sp, #24]
 800462c:	ee35 6a86 	vadd.f32	s12, s11, s12
 8004630:	441a      	add	r2, r3
 8004632:	9201      	str	r2, [sp, #4]
 8004634:	9a10      	ldr	r2, [sp, #64]	; 0x40
 8004636:	ed8c 6a00 	vstr	s12, [ip]
 800463a:	ecf2 5a01 	vldmia	r2!, {s11}
 800463e:	6ae3      	ldr	r3, [r4, #44]	; 0x2c
 8004640:	9210      	str	r2, [sp, #64]	; 0x40
 8004642:	9a09      	ldr	r2, [sp, #36]	; 0x24
 8004644:	ed99 7a00 	vldr	s14, [r9]
 8004648:	4413      	add	r3, r2
 800464a:	9a0d      	ldr	r2, [sp, #52]	; 0x34
 800464c:	edd3 7a00 	vldr	s15, [r3]
 8004650:	9b07      	ldr	r3, [sp, #28]
 8004652:	f102 0a01 	add.w	sl, r2, #1
 8004656:	9a02      	ldr	r2, [sp, #8]
 8004658:	441a      	add	r2, r3
 800465a:	9202      	str	r2, [sp, #8]
 800465c:	9a03      	ldr	r2, [sp, #12]
 800465e:	9b06      	ldr	r3, [sp, #24]
 8004660:	4691      	mov	r9, r2
 8004662:	9a04      	ldr	r2, [sp, #16]
 8004664:	4499      	add	r9, r3
 8004666:	eee7 5a27 	vfma.f32	s11, s14, s15
 800466a:	f8cd 900c 	str.w	r9, [sp, #12]
 800466e:	4691      	mov	r9, r2
 8004670:	9a07      	ldr	r2, [sp, #28]
 8004672:	4491      	add	r9, r2
 8004674:	9a05      	ldr	r2, [sp, #20]
 8004676:	f8cd 9010 	str.w	r9, [sp, #16]
 800467a:	ee35 6a86 	vadd.f32	s12, s11, s12
 800467e:	441a      	add	r2, r3
 8004680:	4555      	cmp	r5, sl
 8004682:	f108 0804 	add.w	r8, r8, #4
 8004686:	9205      	str	r2, [sp, #20]
 8004688:	ecac 6a01 	vstmia	ip!, {s12}
 800468c:	d00b      	beq.n	80046a6 <lstm_cell+0x5b2>
 800468e:	f8cd a034 	str.w	sl, [sp, #52]	; 0x34
 8004692:	4653      	mov	r3, sl
 8004694:	e5be      	b.n	8004214 <lstm_cell+0x120>
 8004696:	462a      	mov	r2, r5
 8004698:	9b05      	ldr	r3, [sp, #20]
 800469a:	e7a8      	b.n	80045ee <lstm_cell+0x4fa>
 800469c:	4633      	mov	r3, r6
 800469e:	9a00      	ldr	r2, [sp, #0]
 80046a0:	f8dd a010 	ldr.w	sl, [sp, #16]
 80046a4:	e755      	b.n	8004552 <lstm_cell+0x45e>
 80046a6:	a91a      	add	r1, sp, #104	; 0x68
 80046a8:	4608      	mov	r0, r1
 80046aa:	e9d4 5305 	ldrd	r5, r3, [r4, #20]
 80046ae:	4652      	mov	r2, sl
 80046b0:	9609      	str	r6, [sp, #36]	; 0x24
 80046b2:	47a8      	blx	r5
 80046b4:	a91e      	add	r1, sp, #120	; 0x78
 80046b6:	4608      	mov	r0, r1
 80046b8:	e9d4 5305 	ldrd	r5, r3, [r4, #20]
 80046bc:	4652      	mov	r2, sl
 80046be:	47a8      	blx	r5
 80046c0:	a922      	add	r1, sp, #136	; 0x88
 80046c2:	4608      	mov	r0, r1
 80046c4:	e9d4 5303 	ldrd	r5, r3, [r4, #12]
 80046c8:	4652      	mov	r2, sl
 80046ca:	47a8      	blx	r5
 80046cc:	9b0d      	ldr	r3, [sp, #52]	; 0x34
 80046ce:	9806      	ldr	r0, [sp, #24]
 80046d0:	9d15      	ldr	r5, [sp, #84]	; 0x54
 80046d2:	ed5f 2a79 	vldr	s5, [pc, #-484]	; 80044f0 <lstm_cell+0x3fc>
 80046d6:	9e09      	ldr	r6, [sp, #36]	; 0x24
 80046d8:	f8dd 9064 	ldr.w	r9, [sp, #100]	; 0x64
 80046dc:	1ed9      	subs	r1, r3, #3
 80046de:	ea4f 0c91 	mov.w	ip, r1, lsr #2
 80046e2:	e9dd 8216 	ldrd	r8, r2, [sp, #88]	; 0x58
 80046e6:	ebcc 738c 	rsb	r3, ip, ip, lsl #30
 80046ea:	eb01 0183 	add.w	r1, r1, r3, lsl #2
 80046ee:	ea4f 0b8a 	mov.w	fp, sl, lsl #2
 80046f2:	4402      	add	r2, r0
 80046f4:	f10c 0c01 	add.w	ip, ip, #1
 80046f8:	e9cd b101 	strd	fp, r1, [sp, #4]
 80046fc:	9918      	ldr	r1, [sp, #96]	; 0x60
 80046fe:	4657      	mov	r7, sl
 8004700:	4696      	mov	lr, r2
 8004702:	ea4f 1c0c 	mov.w	ip, ip, lsl #4
 8004706:	2000      	movs	r0, #0
 8004708:	9a0f      	ldr	r2, [sp, #60]	; 0x3c
 800470a:	6ae3      	ldr	r3, [r4, #44]	; 0x2c
 800470c:	ecb2 7a01 	vldmia	r2!, {s14}
 8004710:	920f      	str	r2, [sp, #60]	; 0x3c
 8004712:	9a0e      	ldr	r2, [sp, #56]	; 0x38
 8004714:	ecf2 7a01 	vldmia	r2!, {s15}
 8004718:	920e      	str	r2, [sp, #56]	; 0x38
 800471a:	9a11      	ldr	r2, [sp, #68]	; 0x44
 800471c:	4403      	add	r3, r0
 800471e:	ecb2 6a01 	vldmia	r2!, {s12}
 8004722:	edd3 6a00 	vldr	s13, [r3]
 8004726:	9211      	str	r2, [sp, #68]	; 0x44
 8004728:	ee67 7a27 	vmul.f32	s15, s14, s15
 800472c:	2e03      	cmp	r6, #3
 800472e:	eee6 7a26 	vfma.f32	s15, s12, s13
 8004732:	ed5f 6a91 	vldr	s13, [pc, #-580]	; 80044f0 <lstm_cell+0x3fc>
 8004736:	edc3 7a00 	vstr	s15, [r3]
 800473a:	edc5 2a00 	vstr	s5, [r5]
 800473e:	f240 80d3 	bls.w	80048e8 <lstm_cell+0x7f4>
 8004742:	9b00      	ldr	r3, [sp, #0]
 8004744:	f101 0210 	add.w	r2, r1, #16
 8004748:	3310      	adds	r3, #16
 800474a:	46b2      	mov	sl, r6
 800474c:	ed12 7a03 	vldr	s14, [r2, #-12]
 8004750:	ed53 7a03 	vldr	s15, [r3, #-12]
 8004754:	ed52 3a04 	vldr	s7, [r2, #-16]
 8004758:	ed13 4a04 	vldr	s8, [r3, #-16]
 800475c:	ed52 4a02 	vldr	s9, [r2, #-8]
 8004760:	ed13 5a02 	vldr	s10, [r3, #-8]
 8004764:	ed52 5a01 	vldr	s11, [r2, #-4]
 8004768:	ed13 6a01 	vldr	s12, [r3, #-4]
 800476c:	ee67 7a27 	vmul.f32	s15, s14, s15
 8004770:	f1aa 0a04 	sub.w	sl, sl, #4
 8004774:	eee3 7a84 	vfma.f32	s15, s7, s8
 8004778:	f1ba 0f03 	cmp.w	sl, #3
 800477c:	f102 0210 	add.w	r2, r2, #16
 8004780:	f103 0310 	add.w	r3, r3, #16
 8004784:	eee4 7a85 	vfma.f32	s15, s9, s10
 8004788:	eee5 7a86 	vfma.f32	s15, s11, s12
 800478c:	ee76 6aa7 	vadd.f32	s13, s13, s15
 8004790:	d8dc      	bhi.n	800474c <lstm_cell+0x658>
 8004792:	9b0a      	ldr	r3, [sp, #40]	; 0x28
 8004794:	eb01 0a03 	add.w	sl, r1, r3
 8004798:	e9dd 320b 	ldrd	r3, r2, [sp, #44]	; 0x2c
 800479c:	b1ab      	cbz	r3, 80047ca <lstm_cell+0x6d6>
 800479e:	ed9a 7a00 	vldr	s14, [sl]
 80047a2:	edd2 7a00 	vldr	s15, [r2]
 80047a6:	2b01      	cmp	r3, #1
 80047a8:	eee7 6a27 	vfma.f32	s13, s14, s15
 80047ac:	d00d      	beq.n	80047ca <lstm_cell+0x6d6>
 80047ae:	ed9a 7a01 	vldr	s14, [sl, #4]
 80047b2:	edd2 7a01 	vldr	s15, [r2, #4]
 80047b6:	2b02      	cmp	r3, #2
 80047b8:	eee7 6a27 	vfma.f32	s13, s14, s15
 80047bc:	d005      	beq.n	80047ca <lstm_cell+0x6d6>
 80047be:	ed9a 7a02 	vldr	s14, [sl, #8]
 80047c2:	edd2 7a02 	vldr	s15, [r2, #8]
 80047c6:	eee7 6a27 	vfma.f32	s13, s14, s15
 80047ca:	2f03      	cmp	r7, #3
 80047cc:	edc5 6a00 	vstr	s13, [r5]
 80047d0:	f8d4 b01c 	ldr.w	fp, [r4, #28]
 80047d4:	ed1f 6aba 	vldr	s12, [pc, #-744]	; 80044f0 <lstm_cell+0x3fc>
 80047d8:	f240 8083 	bls.w	80048e2 <lstm_cell+0x7ee>
 80047dc:	f109 0210 	add.w	r2, r9, #16
 80047e0:	f10b 0310 	add.w	r3, fp, #16
 80047e4:	46ba      	mov	sl, r7
 80047e6:	ed12 7a03 	vldr	s14, [r2, #-12]
 80047ea:	ed53 7a03 	vldr	s15, [r3, #-12]
 80047ee:	ed12 3a04 	vldr	s6, [r2, #-16]
 80047f2:	ed53 3a04 	vldr	s7, [r3, #-16]
 80047f6:	ed12 4a02 	vldr	s8, [r2, #-8]
 80047fa:	ed53 4a02 	vldr	s9, [r3, #-8]
 80047fe:	ed12 5a01 	vldr	s10, [r2, #-4]
 8004802:	ed53 5a01 	vldr	s11, [r3, #-4]
 8004806:	ee67 7a27 	vmul.f32	s15, s14, s15
 800480a:	f1aa 0a04 	sub.w	sl, sl, #4
 800480e:	eee3 7a23 	vfma.f32	s15, s6, s7
 8004812:	f1ba 0f03 	cmp.w	sl, #3
 8004816:	f102 0210 	add.w	r2, r2, #16
 800481a:	f103 0310 	add.w	r3, r3, #16
 800481e:	eee4 7a24 	vfma.f32	s15, s8, s9
 8004822:	eee5 7a25 	vfma.f32	s15, s10, s11
 8004826:	ee36 6a27 	vadd.f32	s12, s12, s15
 800482a:	d8dc      	bhi.n	80047e6 <lstm_cell+0x6f2>
 800482c:	9a02      	ldr	r2, [sp, #8]
 800482e:	44e3      	add	fp, ip
 8004830:	eb09 030c 	add.w	r3, r9, ip
 8004834:	b1aa      	cbz	r2, 8004862 <lstm_cell+0x76e>
 8004836:	ed93 7a00 	vldr	s14, [r3]
 800483a:	eddb 7a00 	vldr	s15, [fp]
 800483e:	2a01      	cmp	r2, #1
 8004840:	eea7 6a27 	vfma.f32	s12, s14, s15
 8004844:	d00d      	beq.n	8004862 <lstm_cell+0x76e>
 8004846:	ed93 7a01 	vldr	s14, [r3, #4]
 800484a:	eddb 7a01 	vldr	s15, [fp, #4]
 800484e:	2a02      	cmp	r2, #2
 8004850:	eea7 6a27 	vfma.f32	s12, s14, s15
 8004854:	d005      	beq.n	8004862 <lstm_cell+0x76e>
 8004856:	ed93 7a02 	vldr	s14, [r3, #8]
 800485a:	eddb 7a02 	vldr	s15, [fp, #8]
 800485e:	eea7 6a27 	vfma.f32	s12, s14, s15
 8004862:	9b07      	ldr	r3, [sp, #28]
 8004864:	ee76 6a26 	vadd.f32	s13, s12, s13
 8004868:	4419      	add	r1, r3
 800486a:	9b06      	ldr	r3, [sp, #24]
 800486c:	edc5 6a00 	vstr	s13, [r5]
 8004870:	4499      	add	r9, r3
 8004872:	6ae3      	ldr	r3, [r4, #44]	; 0x2c
 8004874:	ecb8 7a01 	vldmia	r8!, {s14}
 8004878:	ecbe 6a01 	vldmia	lr!, {s12}
 800487c:	4403      	add	r3, r0
 800487e:	edd3 7a00 	vldr	s15, [r3]
 8004882:	9b01      	ldr	r3, [sp, #4]
 8004884:	eea7 6a27 	vfma.f32	s12, s14, s15
 8004888:	3004      	adds	r0, #4
 800488a:	4283      	cmp	r3, r0
 800488c:	ee76 6a26 	vadd.f32	s13, s12, s13
 8004890:	ece5 6a01 	vstmia	r5!, {s13}
 8004894:	f47f af38 	bne.w	8004708 <lstm_cell+0x614>
 8004898:	a926      	add	r1, sp, #152	; 0x98
 800489a:	4608      	mov	r0, r1
 800489c:	469b      	mov	fp, r3
 800489e:	463a      	mov	r2, r7
 80048a0:	e9d4 5305 	ldrd	r5, r3, [r4, #20]
 80048a4:	47a8      	blx	r5
 80048a6:	e9d4 530c 	ldrd	r5, r3, [r4, #48]	; 0x30
 80048aa:	a92e      	add	r1, sp, #184	; 0xb8
 80048ac:	a82a      	add	r0, sp, #168	; 0xa8
 80048ae:	463a      	mov	r2, r7
 80048b0:	47a8      	blx	r5
 80048b2:	9b15      	ldr	r3, [sp, #84]	; 0x54
 80048b4:	449b      	add	fp, r3
 80048b6:	4619      	mov	r1, r3
 80048b8:	4618      	mov	r0, r3
 80048ba:	6a23      	ldr	r3, [r4, #32]
 80048bc:	1a0a      	subs	r2, r1, r0
 80048be:	4413      	add	r3, r2
 80048c0:	ecf1 7a01 	vldmia	r1!, {s15}
 80048c4:	ed93 7a00 	vldr	s14, [r3]
 80048c8:	ee67 7a27 	vmul.f32	s15, s14, s15
 80048cc:	458b      	cmp	fp, r1
 80048ce:	edc3 7a00 	vstr	s15, [r3]
 80048d2:	d1f2      	bne.n	80048ba <lstm_cell+0x7c6>
 80048d4:	e9d4 2307 	ldrd	r2, r3, [r4, #28]
 80048d8:	e9c4 3207 	strd	r3, r2, [r4, #28]
 80048dc:	b033      	add	sp, #204	; 0xcc
 80048de:	e8bd 8ff0 	ldmia.w	sp!, {r4, r5, r6, r7, r8, r9, sl, fp, pc}
 80048e2:	464b      	mov	r3, r9
 80048e4:	463a      	mov	r2, r7
 80048e6:	e7a6      	b.n	8004836 <lstm_cell+0x742>
 80048e8:	4633      	mov	r3, r6
 80048ea:	9a00      	ldr	r2, [sp, #0]
 80048ec:	468a      	mov	sl, r1
 80048ee:	e755      	b.n	800479c <lstm_cell+0x6a8>
 80048f0:	462a      	mov	r2, r5
 80048f2:	9b03      	ldr	r3, [sp, #12]
 80048f4:	e5c5      	b.n	8004482 <lstm_cell+0x38e>
 80048f6:	4633      	mov	r3, r6
 80048f8:	9a00      	ldr	r2, [sp, #0]
 80048fa:	f8dd 9008 	ldr.w	r9, [sp, #8]
 80048fe:	e572      	b.n	80043e6 <lstm_cell+0x2f2>
 8004900:	462a      	mov	r2, r5
 8004902:	e50d      	b.n	8004320 <lstm_cell+0x22c>
 8004904:	4633      	mov	r3, r6
 8004906:	9a00      	ldr	r2, [sp, #0]
 8004908:	f8dd 9020 	ldr.w	r9, [sp, #32]
 800490c:	e4ba      	b.n	8004284 <lstm_cell+0x190>
 800490e:	a91a      	add	r1, sp, #104	; 0x68
 8004910:	4608      	mov	r0, r1
 8004912:	e9d4 6305 	ldrd	r6, r3, [r4, #20]
 8004916:	462a      	mov	r2, r5
 8004918:	47b0      	blx	r6
 800491a:	a91e      	add	r1, sp, #120	; 0x78
 800491c:	4608      	mov	r0, r1
 800491e:	e9d4 6305 	ldrd	r6, r3, [r4, #20]
 8004922:	462a      	mov	r2, r5
 8004924:	47b0      	blx	r6
 8004926:	a922      	add	r1, sp, #136	; 0x88
 8004928:	4608      	mov	r0, r1
 800492a:	e9d4 6303 	ldrd	r6, r3, [r4, #12]
 800492e:	462a      	mov	r2, r5
 8004930:	47b0      	blx	r6
 8004932:	a926      	add	r1, sp, #152	; 0x98
 8004934:	4608      	mov	r0, r1
 8004936:	e9d4 6305 	ldrd	r6, r3, [r4, #20]
 800493a:	462a      	mov	r2, r5
 800493c:	47b0      	blx	r6
 800493e:	462a      	mov	r2, r5
 8004940:	a92e      	add	r1, sp, #184	; 0xb8
 8004942:	e9d4 530c 	ldrd	r5, r3, [r4, #48]	; 0x30
 8004946:	a82a      	add	r0, sp, #168	; 0xa8
 8004948:	47a8      	blx	r5
 800494a:	e9d4 2307 	ldrd	r2, r3, [r4, #28]
 800494e:	e9c4 3207 	strd	r3, r2, [r4, #28]
 8004952:	b033      	add	sp, #204	; 0xcc
 8004954:	e8bd 8ff0 	ldmia.w	sp!, {r4, r5, r6, r7, r8, r9, sl, fp, pc}

08004958 <forward_lstm>:
 8004958:	6943      	ldr	r3, [r0, #20]
 800495a:	8819      	ldrh	r1, [r3, #0]
 800495c:	2900      	cmp	r1, #0
 800495e:	f000 80f4 	beq.w	8004b4a <forward_lstm+0x1f2>
 8004962:	e92d 4ff0 	stmdb	sp!, {r4, r5, r6, r7, r8, r9, sl, fp, lr}
 8004966:	685a      	ldr	r2, [r3, #4]
 8004968:	6853      	ldr	r3, [r2, #4]
 800496a:	b099      	sub	sp, #100	; 0x64
 800496c:	2b00      	cmp	r3, #0
 800496e:	f000 812f 	beq.w	8004bd0 <forward_lstm+0x278>
 8004972:	f8d3 a000 	ldr.w	sl, [r3]
 8004976:	2901      	cmp	r1, #1
 8004978:	f240 80da 	bls.w	8004b30 <forward_lstm+0x1d8>
 800497c:	6914      	ldr	r4, [r2, #16]
 800497e:	b104      	cbz	r4, 8004982 <forward_lstm+0x2a>
 8004980:	6824      	ldr	r4, [r4, #0]
 8004982:	2902      	cmp	r1, #2
 8004984:	f000 80d7 	beq.w	8004b36 <forward_lstm+0x1de>
 8004988:	69d3      	ldr	r3, [r2, #28]
 800498a:	2b00      	cmp	r3, #0
 800498c:	f000 811b 	beq.w	8004bc6 <forward_lstm+0x26e>
 8004990:	f112 0718 	adds.w	r7, r2, #24
 8004994:	681e      	ldr	r6, [r3, #0]
 8004996:	d007      	beq.n	80049a8 <forward_lstm+0x50>
 8004998:	8b15      	ldrh	r5, [r2, #24]
 800499a:	2d01      	cmp	r5, #1
 800499c:	f240 80d7 	bls.w	8004b4e <forward_lstm+0x1f6>
 80049a0:	2b00      	cmp	r3, #0
 80049a2:	f000 80d6 	beq.w	8004b52 <forward_lstm+0x1fa>
 80049a6:	685f      	ldr	r7, [r3, #4]
 80049a8:	f8da 500c 	ldr.w	r5, [sl, #12]
 80049ac:	f8d4 c00c 	ldr.w	ip, [r4, #12]
 80049b0:	f8d4 e018 	ldr.w	lr, [r4, #24]
 80049b4:	68ec      	ldr	r4, [r5, #12]
 80049b6:	f8d3 8010 	ldr.w	r8, [r3, #16]
 80049ba:	9400      	str	r4, [sp, #0]
 80049bc:	f8dc 400c 	ldr.w	r4, [ip, #12]
 80049c0:	9409      	str	r4, [sp, #36]	; 0x24
 80049c2:	f8de 4008 	ldr.w	r4, [lr, #8]
 80049c6:	9402      	str	r4, [sp, #8]
 80049c8:	f8d5 b004 	ldr.w	fp, [r5, #4]
 80049cc:	f8d0 9018 	ldr.w	r9, [r0, #24]
 80049d0:	e9d3 c402 	ldrd	ip, r4, [r3, #8]
 80049d4:	e9d3 e305 	ldrd	lr, r3, [r3, #20]
 80049d8:	f1b8 0f00 	cmp.w	r8, #0
 80049dc:	f000 8101 	beq.w	8004be2 <forward_lstm+0x28a>
 80049e0:	f8d8 8018 	ldr.w	r8, [r8, #24]
 80049e4:	f8d8 5008 	ldr.w	r5, [r8, #8]
 80049e8:	9501      	str	r5, [sp, #4]
 80049ea:	f1be 0f00 	cmp.w	lr, #0
 80049ee:	f000 80f5 	beq.w	8004bdc <forward_lstm+0x284>
 80049f2:	f8de e018 	ldr.w	lr, [lr, #24]
 80049f6:	f8de 5008 	ldr.w	r5, [lr, #8]
 80049fa:	9504      	str	r5, [sp, #16]
 80049fc:	2b00      	cmp	r3, #0
 80049fe:	f000 80eb 	beq.w	8004bd8 <forward_lstm+0x280>
 8004a02:	699b      	ldr	r3, [r3, #24]
 8004a04:	689b      	ldr	r3, [r3, #8]
 8004a06:	9305      	str	r3, [sp, #20]
 8004a08:	2903      	cmp	r1, #3
 8004a0a:	f000 8099 	beq.w	8004b40 <forward_lstm+0x1e8>
 8004a0e:	6a93      	ldr	r3, [r2, #40]	; 0x28
 8004a10:	2b00      	cmp	r3, #0
 8004a12:	f000 8093 	beq.w	8004b3c <forward_lstm+0x1e4>
 8004a16:	681b      	ldr	r3, [r3, #0]
 8004a18:	69b2      	ldr	r2, [r6, #24]
 8004a1a:	69b9      	ldr	r1, [r7, #24]
 8004a1c:	f8dc 6018 	ldr.w	r6, [ip, #24]
 8004a20:	699b      	ldr	r3, [r3, #24]
 8004a22:	4f71      	ldr	r7, [pc, #452]	; (8004be8 <forward_lstm+0x290>)
 8004a24:	689b      	ldr	r3, [r3, #8]
 8004a26:	4680      	mov	r8, r0
 8004a28:	69a0      	ldr	r0, [r4, #24]
 8004a2a:	6894      	ldr	r4, [r2, #8]
 8004a2c:	688a      	ldr	r2, [r1, #8]
 8004a2e:	68b1      	ldr	r1, [r6, #8]
 8004a30:	6880      	ldr	r0, [r0, #8]
 8004a32:	9206      	str	r2, [sp, #24]
 8004a34:	eb09 0649 	add.w	r6, r9, r9, lsl #1
 8004a38:	00b6      	lsls	r6, r6, #2
 8004a3a:	4632      	mov	r2, r6
 8004a3c:	9107      	str	r1, [sp, #28]
 8004a3e:	9008      	str	r0, [sp, #32]
 8004a40:	2100      	movs	r1, #0
 8004a42:	4618      	mov	r0, r3
 8004a44:	441e      	add	r6, r3
 8004a46:	f000 fb3d 	bl	80050c4 <memset>
 8004a4a:	e9d8 1208 	ldrd	r1, r2, [r8, #32]
 8004a4e:	4603      	mov	r3, r0
 8004a50:	f8d8 001c 	ldr.w	r0, [r8, #28]
 8004a54:	9d09      	ldr	r5, [sp, #36]	; 0x24
 8004a56:	9315      	str	r3, [sp, #84]	; 0x54
 8004a58:	2a00      	cmp	r2, #0
 8004a5a:	bf08      	it	eq
 8004a5c:	463a      	moveq	r2, r7
 8004a5e:	2800      	cmp	r0, #0
 8004a60:	bf08      	it	eq
 8004a62:	4638      	moveq	r0, r7
 8004a64:	2900      	cmp	r1, #0
 8004a66:	bf08      	it	eq
 8004a68:	4639      	moveq	r1, r7
 8004a6a:	ea4f 0789 	mov.w	r7, r9, lsl #2
 8004a6e:	2d01      	cmp	r5, #1
 8004a70:	9703      	str	r7, [sp, #12]
 8004a72:	463d      	mov	r5, r7
 8004a74:	441f      	add	r7, r3
 8004a76:	9b06      	ldr	r3, [sp, #24]
 8004a78:	930b      	str	r3, [sp, #44]	; 0x2c
 8004a7a:	9b08      	ldr	r3, [sp, #32]
 8004a7c:	930c      	str	r3, [sp, #48]	; 0x30
 8004a7e:	9b07      	ldr	r3, [sp, #28]
 8004a80:	9314      	str	r3, [sp, #80]	; 0x50
 8004a82:	9b01      	ldr	r3, [sp, #4]
 8004a84:	940a      	str	r4, [sp, #40]	; 0x28
 8004a86:	930e      	str	r3, [sp, #56]	; 0x38
 8004a88:	f898 4028 	ldrb.w	r4, [r8, #40]	; 0x28
 8004a8c:	9b04      	ldr	r3, [sp, #16]
 8004a8e:	f8ad 904e 	strh.w	r9, [sp, #78]	; 0x4e
 8004a92:	eb07 0c05 	add.w	ip, r7, r5
 8004a96:	bf98      	it	ls
 8004a98:	f04f 0900 	movls.w	r9, #0
 8004a9c:	9310      	str	r3, [sp, #64]	; 0x40
 8004a9e:	9b05      	ldr	r3, [sp, #20]
 8004aa0:	9317      	str	r3, [sp, #92]	; 0x5c
 8004aa2:	9216      	str	r2, [sp, #88]	; 0x58
 8004aa4:	f8ad b04c 	strh.w	fp, [sp, #76]	; 0x4c
 8004aa8:	ea4f 038b 	mov.w	r3, fp, lsl #2
 8004aac:	e9cd 7c11 	strd	r7, ip, [sp, #68]	; 0x44
 8004ab0:	900d      	str	r0, [sp, #52]	; 0x34
 8004ab2:	910f      	str	r1, [sp, #60]	; 0x3c
 8004ab4:	464a      	mov	r2, r9
 8004ab6:	2c00      	cmp	r4, #0
 8004ab8:	d045      	beq.n	8004b46 <forward_lstm+0x1ee>
 8004aba:	9900      	ldr	r1, [sp, #0]
 8004abc:	f04f 37ff 	mov.w	r7, #4294967295
 8004ac0:	1e4c      	subs	r4, r1, #1
 8004ac2:	f898 1029 	ldrb.w	r1, [r8, #41]	; 0x29
 8004ac6:	b149      	cbz	r1, 8004adc <forward_lstm+0x184>
 8004ac8:	9a00      	ldr	r2, [sp, #0]
 8004aca:	9902      	ldr	r1, [sp, #8]
 8004acc:	3a01      	subs	r2, #1
 8004ace:	fb09 f202 	mul.w	r2, r9, r2
 8004ad2:	eb01 0282 	add.w	r2, r1, r2, lsl #2
 8004ad6:	9202      	str	r2, [sp, #8]
 8004ad8:	f1c9 0200 	rsb	r2, r9, #0
 8004adc:	ea4f 0882 	mov.w	r8, r2, lsl #2
 8004ae0:	2a00      	cmp	r2, #0
 8004ae2:	d14b      	bne.n	8004b7c <forward_lstm+0x224>
 8004ae4:	f10d 0928 	add.w	r9, sp, #40	; 0x28
 8004ae8:	fb03 f207 	mul.w	r2, r3, r7
 8004aec:	fb03 fb04 	mul.w	fp, r3, r4
 8004af0:	464b      	mov	r3, r9
 8004af2:	9201      	str	r2, [sp, #4]
 8004af4:	46d1      	mov	r9, sl
 8004af6:	9d02      	ldr	r5, [sp, #8]
 8004af8:	469a      	mov	sl, r3
 8004afa:	e003      	b.n	8004b04 <forward_lstm+0x1ac>
 8004afc:	9b01      	ldr	r3, [sp, #4]
 8004afe:	2c00      	cmp	r4, #0
 8004b00:	449b      	add	fp, r3
 8004b02:	db0c      	blt.n	8004b1e <forward_lstm+0x1c6>
 8004b04:	f8d9 2018 	ldr.w	r2, [r9, #24]
 8004b08:	6890      	ldr	r0, [r2, #8]
 8004b0a:	4651      	mov	r1, sl
 8004b0c:	4458      	add	r0, fp
 8004b0e:	4632      	mov	r2, r6
 8004b10:	f7ff faf0 	bl	80040f4 <lstm_cell>
 8004b14:	9b00      	ldr	r3, [sp, #0]
 8004b16:	443c      	add	r4, r7
 8004b18:	429c      	cmp	r4, r3
 8004b1a:	4445      	add	r5, r8
 8004b1c:	dbee      	blt.n	8004afc <forward_lstm+0x1a4>
 8004b1e:	4628      	mov	r0, r5
 8004b20:	9a03      	ldr	r2, [sp, #12]
 8004b22:	9911      	ldr	r1, [sp, #68]	; 0x44
 8004b24:	9502      	str	r5, [sp, #8]
 8004b26:	f000 fabf 	bl	80050a8 <memcpy>
 8004b2a:	b019      	add	sp, #100	; 0x64
 8004b2c:	e8bd 8ff0 	ldmia.w	sp!, {r4, r5, r6, r7, r8, r9, sl, fp, pc}
 8004b30:	2300      	movs	r3, #0
 8004b32:	685b      	ldr	r3, [r3, #4]
 8004b34:	deff      	udf	#255	; 0xff
 8004b36:	2300      	movs	r3, #0
 8004b38:	685b      	ldr	r3, [r3, #4]
 8004b3a:	deff      	udf	#255	; 0xff
 8004b3c:	699b      	ldr	r3, [r3, #24]
 8004b3e:	deff      	udf	#255	; 0xff
 8004b40:	2300      	movs	r3, #0
 8004b42:	685b      	ldr	r3, [r3, #4]
 8004b44:	deff      	udf	#255	; 0xff
 8004b46:	2701      	movs	r7, #1
 8004b48:	e7bb      	b.n	8004ac2 <forward_lstm+0x16a>
 8004b4a:	684b      	ldr	r3, [r1, #4]
 8004b4c:	deff      	udf	#255	; 0xff
 8004b4e:	2b00      	cmp	r3, #0
 8004b50:	d140      	bne.n	8004bd4 <forward_lstm+0x27c>
 8004b52:	f8da 300c 	ldr.w	r3, [sl, #12]
 8004b56:	68e5      	ldr	r5, [r4, #12]
 8004b58:	69a4      	ldr	r4, [r4, #24]
 8004b5a:	68df      	ldr	r7, [r3, #12]
 8004b5c:	f8d3 b004 	ldr.w	fp, [r3, #4]
 8004b60:	68eb      	ldr	r3, [r5, #12]
 8004b62:	9309      	str	r3, [sp, #36]	; 0x24
 8004b64:	68a3      	ldr	r3, [r4, #8]
 8004b66:	9700      	str	r7, [sp, #0]
 8004b68:	2400      	movs	r4, #0
 8004b6a:	9302      	str	r3, [sp, #8]
 8004b6c:	f8d0 9018 	ldr.w	r9, [r0, #24]
 8004b70:	9401      	str	r4, [sp, #4]
 8004b72:	9404      	str	r4, [sp, #16]
 8004b74:	4627      	mov	r7, r4
 8004b76:	46a4      	mov	ip, r4
 8004b78:	9405      	str	r4, [sp, #20]
 8004b7a:	e745      	b.n	8004a08 <forward_lstm+0xb0>
 8004b7c:	f10d 0928 	add.w	r9, sp, #40	; 0x28
 8004b80:	fb03 f207 	mul.w	r2, r3, r7
 8004b84:	fb03 fb04 	mul.w	fp, r3, r4
 8004b88:	464b      	mov	r3, r9
 8004b8a:	9201      	str	r2, [sp, #4]
 8004b8c:	46d1      	mov	r9, sl
 8004b8e:	9d02      	ldr	r5, [sp, #8]
 8004b90:	469a      	mov	sl, r3
 8004b92:	e003      	b.n	8004b9c <forward_lstm+0x244>
 8004b94:	9b01      	ldr	r3, [sp, #4]
 8004b96:	2c00      	cmp	r4, #0
 8004b98:	449b      	add	fp, r3
 8004b9a:	dbc6      	blt.n	8004b2a <forward_lstm+0x1d2>
 8004b9c:	f8d9 2018 	ldr.w	r2, [r9, #24]
 8004ba0:	6890      	ldr	r0, [r2, #8]
 8004ba2:	4651      	mov	r1, sl
 8004ba4:	4632      	mov	r2, r6
 8004ba6:	4458      	add	r0, fp
 8004ba8:	f7ff faa4 	bl	80040f4 <lstm_cell>
 8004bac:	4628      	mov	r0, r5
 8004bae:	9a03      	ldr	r2, [sp, #12]
 8004bb0:	9911      	ldr	r1, [sp, #68]	; 0x44
 8004bb2:	f000 fa79 	bl	80050a8 <memcpy>
 8004bb6:	9b00      	ldr	r3, [sp, #0]
 8004bb8:	443c      	add	r4, r7
 8004bba:	429c      	cmp	r4, r3
 8004bbc:	4445      	add	r5, r8
 8004bbe:	dbe9      	blt.n	8004b94 <forward_lstm+0x23c>
 8004bc0:	b019      	add	sp, #100	; 0x64
 8004bc2:	e8bd 8ff0 	ldmia.w	sp!, {r4, r5, r6, r7, r8, r9, sl, fp, pc}
 8004bc6:	f112 0618 	adds.w	r6, r2, #24
 8004bca:	d0c2      	beq.n	8004b52 <forward_lstm+0x1fa>
 8004bcc:	461e      	mov	r6, r3
 8004bce:	e6e3      	b.n	8004998 <forward_lstm+0x40>
 8004bd0:	469a      	mov	sl, r3
 8004bd2:	e6d0      	b.n	8004976 <forward_lstm+0x1e>
 8004bd4:	2700      	movs	r7, #0
 8004bd6:	e6e7      	b.n	80049a8 <forward_lstm+0x50>
 8004bd8:	9305      	str	r3, [sp, #20]
 8004bda:	e715      	b.n	8004a08 <forward_lstm+0xb0>
 8004bdc:	f8cd e010 	str.w	lr, [sp, #16]
 8004be0:	e70c      	b.n	80049fc <forward_lstm+0xa4>
 8004be2:	f8cd 8004 	str.w	r8, [sp, #4]
 8004be6:	e700      	b.n	80049ea <forward_lstm+0x92>
 8004be8:	080040e5 	.word	0x080040e5

08004bec <nl_func_sigmoid_array_f32>:
 8004bec:	b570      	push	{r4, r5, r6, lr}
 8004bee:	f102 4280 	add.w	r2, r2, #1073741824	; 0x40000000
 8004bf2:	ed2d 8b02 	vpush	{d8}
 8004bf6:	3a01      	subs	r2, #1
 8004bf8:	688c      	ldr	r4, [r1, #8]
 8004bfa:	6885      	ldr	r5, [r0, #8]
 8004bfc:	0092      	lsls	r2, r2, #2
 8004bfe:	18a4      	adds	r4, r4, r2
 8004c00:	d218      	bcs.n	8004c34 <nl_func_sigmoid_array_f32+0x48>
 8004c02:	3204      	adds	r2, #4
 8004c04:	460e      	mov	r6, r1
 8004c06:	4415      	add	r5, r2
 8004c08:	3404      	adds	r4, #4
 8004c0a:	eeb7 8a00 	vmov.f32	s16, #112	; 0x3f800000  1.0
 8004c0e:	ed14 0a01 	vldr	s0, [r4, #-4]
 8004c12:	eeb1 0a40 	vneg.f32	s0, s0
 8004c16:	f003 f8e3 	bl	8007de0 <expf>
 8004c1a:	ee30 0a08 	vadd.f32	s0, s0, s16
 8004c1e:	1f22      	subs	r2, r4, #4
 8004c20:	eec8 7a00 	vdiv.f32	s15, s16, s0
 8004c24:	f1a4 0308 	sub.w	r3, r4, #8
 8004c28:	4614      	mov	r4, r2
 8004c2a:	ed65 7a01 	vstmdb	r5!, {s15}
 8004c2e:	68b2      	ldr	r2, [r6, #8]
 8004c30:	429a      	cmp	r2, r3
 8004c32:	d9ec      	bls.n	8004c0e <nl_func_sigmoid_array_f32+0x22>
 8004c34:	ecbd 8b02 	vpop	{d8}
 8004c38:	bd70      	pop	{r4, r5, r6, pc}
 8004c3a:	bf00      	nop

08004c3c <nl_func_relu_array_f32>:
 8004c3c:	f102 4280 	add.w	r2, r2, #1073741824	; 0x40000000
 8004c40:	3a01      	subs	r2, #1
 8004c42:	688b      	ldr	r3, [r1, #8]
 8004c44:	6880      	ldr	r0, [r0, #8]
 8004c46:	0092      	lsls	r2, r2, #2
 8004c48:	189b      	adds	r3, r3, r2
 8004c4a:	d21a      	bcs.n	8004c82 <nl_func_relu_array_f32+0x46>
 8004c4c:	b410      	push	{r4}
 8004c4e:	3204      	adds	r2, #4
 8004c50:	ed9f 7a0c 	vldr	s14, [pc, #48]	; 8004c84 <nl_func_relu_array_f32+0x48>
 8004c54:	4410      	add	r0, r2
 8004c56:	3304      	adds	r3, #4
 8004c58:	ed53 7a01 	vldr	s15, [r3, #-4]
 8004c5c:	eef5 7ac0 	vcmpe.f32	s15, #0.0
 8004c60:	eef1 fa10 	vmrs	APSR_nzcv, fpscr
 8004c64:	bfb8      	it	lt
 8004c66:	eef0 7a47 	vmovlt.f32	s15, s14
 8004c6a:	ed60 7a01 	vstmdb	r0!, {s15}
 8004c6e:	688c      	ldr	r4, [r1, #8]
 8004c70:	f1a3 0208 	sub.w	r2, r3, #8
 8004c74:	4294      	cmp	r4, r2
 8004c76:	f1a3 0304 	sub.w	r3, r3, #4
 8004c7a:	d9ed      	bls.n	8004c58 <nl_func_relu_array_f32+0x1c>
 8004c7c:	f85d 4b04 	ldr.w	r4, [sp], #4
 8004c80:	4770      	bx	lr
 8004c82:	4770      	bx	lr
 8004c84:	00000000 	.word	0x00000000

08004c88 <nl_func_relu_generic_array_f32>:
 8004c88:	b430      	push	{r4, r5}
 8004c8a:	edd3 6a02 	vldr	s13, [r3, #8]
 8004c8e:	6880      	ldr	r0, [r0, #8]
 8004c90:	688c      	ldr	r4, [r1, #8]
 8004c92:	ed93 7a00 	vldr	s14, [r3]
 8004c96:	ed93 6a01 	vldr	s12, [r3, #4]
 8004c9a:	f102 4280 	add.w	r2, r2, #1073741824	; 0x40000000
 8004c9e:	3a01      	subs	r2, #1
 8004ca0:	eef5 6ac0 	vcmpe.f32	s13, #0.0
 8004ca4:	0092      	lsls	r2, r2, #2
 8004ca6:	eef1 fa10 	vmrs	APSR_nzcv, fpscr
 8004caa:	4410      	add	r0, r2
 8004cac:	4422      	add	r2, r4
 8004cae:	d421      	bmi.n	8004cf4 <nl_func_relu_generic_array_f32+0x6c>
 8004cb0:	42a2      	cmp	r2, r4
 8004cb2:	d33d      	bcc.n	8004d30 <nl_func_relu_generic_array_f32+0xa8>
 8004cb4:	1d13      	adds	r3, r2, #4
 8004cb6:	1d02      	adds	r2, r0, #4
 8004cb8:	e010      	b.n	8004cdc <nl_func_relu_generic_array_f32+0x54>
 8004cba:	eeb4 7ae7 	vcmpe.f32	s14, s15
 8004cbe:	eef1 fa10 	vmrs	APSR_nzcv, fpscr
 8004cc2:	ee77 5ac7 	vsub.f32	s11, s15, s14
 8004cc6:	dd01      	ble.n	8004ccc <nl_func_relu_generic_array_f32+0x44>
 8004cc8:	ee65 7a86 	vmul.f32	s15, s11, s12
 8004ccc:	ed62 7a01 	vstmdb	r2!, {s15}
 8004cd0:	6888      	ldr	r0, [r1, #8]
 8004cd2:	f1a3 0408 	sub.w	r4, r3, #8
 8004cd6:	4284      	cmp	r4, r0
 8004cd8:	462b      	mov	r3, r5
 8004cda:	d329      	bcc.n	8004d30 <nl_func_relu_generic_array_f32+0xa8>
 8004cdc:	ed53 7a01 	vldr	s15, [r3, #-4]
 8004ce0:	eef4 6ae7 	vcmpe.f32	s13, s15
 8004ce4:	eef1 fa10 	vmrs	APSR_nzcv, fpscr
 8004ce8:	f1a3 0504 	sub.w	r5, r3, #4
 8004cec:	dce5      	bgt.n	8004cba <nl_func_relu_generic_array_f32+0x32>
 8004cee:	eef0 7a66 	vmov.f32	s15, s13
 8004cf2:	e7eb      	b.n	8004ccc <nl_func_relu_generic_array_f32+0x44>
 8004cf4:	eeb5 6a40 	vcmp.f32	s12, #0.0
 8004cf8:	eef1 fa10 	vmrs	APSR_nzcv, fpscr
 8004cfc:	d01a      	beq.n	8004d34 <nl_func_relu_generic_array_f32+0xac>
 8004cfe:	42a2      	cmp	r2, r4
 8004d00:	d316      	bcc.n	8004d30 <nl_func_relu_generic_array_f32+0xa8>
 8004d02:	1d13      	adds	r3, r2, #4
 8004d04:	1d02      	adds	r2, r0, #4
 8004d06:	ed53 7a01 	vldr	s15, [r3, #-4]
 8004d0a:	ee77 6ac7 	vsub.f32	s13, s15, s14
 8004d0e:	eef4 7ac7 	vcmpe.f32	s15, s14
 8004d12:	f1a3 0408 	sub.w	r4, r3, #8
 8004d16:	eef1 fa10 	vmrs	APSR_nzcv, fpscr
 8004d1a:	f1a3 0004 	sub.w	r0, r3, #4
 8004d1e:	ee66 6a86 	vmul.f32	s13, s13, s12
 8004d22:	4623      	mov	r3, r4
 8004d24:	d51e      	bpl.n	8004d64 <nl_func_relu_generic_array_f32+0xdc>
 8004d26:	ed62 6a01 	vstmdb	r2!, {s13}
 8004d2a:	688b      	ldr	r3, [r1, #8]
 8004d2c:	42a3      	cmp	r3, r4
 8004d2e:	d91e      	bls.n	8004d6e <nl_func_relu_generic_array_f32+0xe6>
 8004d30:	bc30      	pop	{r4, r5}
 8004d32:	4770      	bx	lr
 8004d34:	42a2      	cmp	r2, r4
 8004d36:	d3fb      	bcc.n	8004d30 <nl_func_relu_generic_array_f32+0xa8>
 8004d38:	1d13      	adds	r3, r2, #4
 8004d3a:	2500      	movs	r5, #0
 8004d3c:	1d02      	adds	r2, r0, #4
 8004d3e:	ed53 7a01 	vldr	s15, [r3, #-4]
 8004d42:	eeb4 7ae7 	vcmpe.f32	s14, s15
 8004d46:	f1a3 0408 	sub.w	r4, r3, #8
 8004d4a:	eef1 fa10 	vmrs	APSR_nzcv, fpscr
 8004d4e:	f1a3 0004 	sub.w	r0, r3, #4
 8004d52:	4623      	mov	r3, r4
 8004d54:	d80d      	bhi.n	8004d72 <nl_func_relu_generic_array_f32+0xea>
 8004d56:	ed62 7a01 	vstmdb	r2!, {s15}
 8004d5a:	688b      	ldr	r3, [r1, #8]
 8004d5c:	42a3      	cmp	r3, r4
 8004d5e:	d8e7      	bhi.n	8004d30 <nl_func_relu_generic_array_f32+0xa8>
 8004d60:	4603      	mov	r3, r0
 8004d62:	e7ec      	b.n	8004d3e <nl_func_relu_generic_array_f32+0xb6>
 8004d64:	ed62 7a01 	vstmdb	r2!, {s15}
 8004d68:	688c      	ldr	r4, [r1, #8]
 8004d6a:	429c      	cmp	r4, r3
 8004d6c:	d8e0      	bhi.n	8004d30 <nl_func_relu_generic_array_f32+0xa8>
 8004d6e:	4603      	mov	r3, r0
 8004d70:	e7c9      	b.n	8004d06 <nl_func_relu_generic_array_f32+0x7e>
 8004d72:	f842 5d04 	str.w	r5, [r2, #-4]!
 8004d76:	688c      	ldr	r4, [r1, #8]
 8004d78:	429c      	cmp	r4, r3
 8004d7a:	d8d9      	bhi.n	8004d30 <nl_func_relu_generic_array_f32+0xa8>
 8004d7c:	4603      	mov	r3, r0
 8004d7e:	e7de      	b.n	8004d3e <nl_func_relu_generic_array_f32+0xb6>

08004d80 <forward_relu>:
 8004d80:	6942      	ldr	r2, [r0, #20]
 8004d82:	8813      	ldrh	r3, [r2, #0]
 8004d84:	b33b      	cbz	r3, 8004dd6 <forward_relu+0x56>
 8004d86:	b470      	push	{r4, r5, r6}
 8004d88:	6852      	ldr	r2, [r2, #4]
 8004d8a:	6856      	ldr	r6, [r2, #4]
 8004d8c:	b106      	cbz	r6, 8004d90 <forward_relu+0x10>
 8004d8e:	6836      	ldr	r6, [r6, #0]
 8004d90:	2b01      	cmp	r3, #1
 8004d92:	d91d      	bls.n	8004dd0 <forward_relu+0x50>
 8004d94:	6913      	ldr	r3, [r2, #16]
 8004d96:	b103      	cbz	r3, 8004d9a <forward_relu+0x1a>
 8004d98:	681b      	ldr	r3, [r3, #0]
 8004d9a:	6982      	ldr	r2, [r0, #24]
 8004d9c:	68b4      	ldr	r4, [r6, #8]
 8004d9e:	6998      	ldr	r0, [r3, #24]
 8004da0:	69b1      	ldr	r1, [r6, #24]
 8004da2:	f3c4 2417 	ubfx	r4, r4, #8, #24
 8004da6:	2a00      	cmp	r2, #0
 8004da8:	d041      	beq.n	8004e2e <forward_relu+0xae>
 8004daa:	e9d2 5301 	ldrd	r5, r3, [r2, #4]
 8004dae:	2d01      	cmp	r5, #1
 8004db0:	d013      	beq.n	8004dda <forward_relu+0x5a>
 8004db2:	2c00      	cmp	r4, #0
 8004db4:	d06f      	beq.n	8004e96 <forward_relu+0x116>
 8004db6:	68f6      	ldr	r6, [r6, #12]
 8004db8:	2201      	movs	r2, #1
 8004dba:	eb06 0484 	add.w	r4, r6, r4, lsl #2
 8004dbe:	f854 5d04 	ldr.w	r5, [r4, #-4]!
 8004dc2:	42a6      	cmp	r6, r4
 8004dc4:	fb05 f202 	mul.w	r2, r5, r2
 8004dc8:	d1f9      	bne.n	8004dbe <forward_relu+0x3e>
 8004dca:	bc70      	pop	{r4, r5, r6}
 8004dcc:	f7ff bf5c 	b.w	8004c88 <nl_func_relu_generic_array_f32>
 8004dd0:	2300      	movs	r3, #0
 8004dd2:	685b      	ldr	r3, [r3, #4]
 8004dd4:	deff      	udf	#255	; 0xff
 8004dd6:	685b      	ldr	r3, [r3, #4]
 8004dd8:	deff      	udf	#255	; 0xff
 8004dda:	6880      	ldr	r0, [r0, #8]
 8004ddc:	688a      	ldr	r2, [r1, #8]
 8004dde:	ed93 7a00 	vldr	s14, [r3]
 8004de2:	b184      	cbz	r4, 8004e06 <forward_relu+0x86>
 8004de4:	68f6      	ldr	r6, [r6, #12]
 8004de6:	462b      	mov	r3, r5
 8004de8:	eb06 0484 	add.w	r4, r6, r4, lsl #2
 8004dec:	f854 5d04 	ldr.w	r5, [r4, #-4]!
 8004df0:	42a6      	cmp	r6, r4
 8004df2:	fb05 f303 	mul.w	r3, r5, r3
 8004df6:	d1f9      	bne.n	8004dec <forward_relu+0x6c>
 8004df8:	f103 4380 	add.w	r3, r3, #1073741824	; 0x40000000
 8004dfc:	3b01      	subs	r3, #1
 8004dfe:	009b      	lsls	r3, r3, #2
 8004e00:	18d2      	adds	r2, r2, r3
 8004e02:	4418      	add	r0, r3
 8004e04:	d23d      	bcs.n	8004e82 <forward_relu+0x102>
 8004e06:	1d13      	adds	r3, r2, #4
 8004e08:	2500      	movs	r5, #0
 8004e0a:	1d02      	adds	r2, r0, #4
 8004e0c:	ed53 7a01 	vldr	s15, [r3, #-4]
 8004e10:	eeb4 7ae7 	vcmpe.f32	s14, s15
 8004e14:	eef1 fa10 	vmrs	APSR_nzcv, fpscr
 8004e18:	f1a3 0004 	sub.w	r0, r3, #4
 8004e1c:	d833      	bhi.n	8004e86 <forward_relu+0x106>
 8004e1e:	ed62 7a01 	vstmdb	r2!, {s15}
 8004e22:	688c      	ldr	r4, [r1, #8]
 8004e24:	3b08      	subs	r3, #8
 8004e26:	429c      	cmp	r4, r3
 8004e28:	d82b      	bhi.n	8004e82 <forward_relu+0x102>
 8004e2a:	4603      	mov	r3, r0
 8004e2c:	e7ee      	b.n	8004e0c <forward_relu+0x8c>
 8004e2e:	6880      	ldr	r0, [r0, #8]
 8004e30:	688b      	ldr	r3, [r1, #8]
 8004e32:	b184      	cbz	r4, 8004e56 <forward_relu+0xd6>
 8004e34:	68f6      	ldr	r6, [r6, #12]
 8004e36:	2201      	movs	r2, #1
 8004e38:	eb06 0484 	add.w	r4, r6, r4, lsl #2
 8004e3c:	f854 5d04 	ldr.w	r5, [r4, #-4]!
 8004e40:	42a6      	cmp	r6, r4
 8004e42:	fb05 f202 	mul.w	r2, r5, r2
 8004e46:	d1f9      	bne.n	8004e3c <forward_relu+0xbc>
 8004e48:	f102 4280 	add.w	r2, r2, #1073741824	; 0x40000000
 8004e4c:	3a01      	subs	r2, #1
 8004e4e:	0092      	lsls	r2, r2, #2
 8004e50:	189b      	adds	r3, r3, r2
 8004e52:	4410      	add	r0, r2
 8004e54:	d215      	bcs.n	8004e82 <forward_relu+0x102>
 8004e56:	ed9f 7a11 	vldr	s14, [pc, #68]	; 8004e9c <forward_relu+0x11c>
 8004e5a:	3304      	adds	r3, #4
 8004e5c:	3004      	adds	r0, #4
 8004e5e:	ed53 7a01 	vldr	s15, [r3, #-4]
 8004e62:	eef5 7ac0 	vcmpe.f32	s15, #0.0
 8004e66:	eef1 fa10 	vmrs	APSR_nzcv, fpscr
 8004e6a:	bfb8      	it	lt
 8004e6c:	eef0 7a47 	vmovlt.f32	s15, s14
 8004e70:	ed60 7a01 	vstmdb	r0!, {s15}
 8004e74:	688c      	ldr	r4, [r1, #8]
 8004e76:	f1a3 0208 	sub.w	r2, r3, #8
 8004e7a:	4294      	cmp	r4, r2
 8004e7c:	f1a3 0304 	sub.w	r3, r3, #4
 8004e80:	d9ed      	bls.n	8004e5e <forward_relu+0xde>
 8004e82:	bc70      	pop	{r4, r5, r6}
 8004e84:	4770      	bx	lr
 8004e86:	f842 5d04 	str.w	r5, [r2, #-4]!
 8004e8a:	688c      	ldr	r4, [r1, #8]
 8004e8c:	3b08      	subs	r3, #8
 8004e8e:	429c      	cmp	r4, r3
 8004e90:	d8f7      	bhi.n	8004e82 <forward_relu+0x102>
 8004e92:	4603      	mov	r3, r0
 8004e94:	e7ba      	b.n	8004e0c <forward_relu+0x8c>
 8004e96:	2201      	movs	r2, #1
 8004e98:	e797      	b.n	8004dca <forward_relu+0x4a>
 8004e9a:	bf00      	nop
 8004e9c:	00000000 	.word	0x00000000

08004ea0 <ai_check_custom_types>:
 8004ea0:	4b13      	ldr	r3, [pc, #76]	; (8004ef0 <ai_check_custom_types+0x50>)
 8004ea2:	b082      	sub	sp, #8
 8004ea4:	681b      	ldr	r3, [r3, #0]
 8004ea6:	9301      	str	r3, [sp, #4]
 8004ea8:	b118      	cbz	r0, 8004eb2 <ai_check_custom_types+0x12>
 8004eaa:	7803      	ldrb	r3, [r0, #0]
 8004eac:	2b03      	cmp	r3, #3
 8004eae:	d002      	beq.n	8004eb6 <ai_check_custom_types+0x16>
 8004eb0:	2000      	movs	r0, #0
 8004eb2:	b002      	add	sp, #8
 8004eb4:	4770      	bx	lr
 8004eb6:	f89d 2004 	ldrb.w	r2, [sp, #4]
 8004eba:	4293      	cmp	r3, r2
 8004ebc:	d004      	beq.n	8004ec8 <ai_check_custom_types+0x28>
 8004ebe:	2001      	movs	r0, #1
 8004ec0:	f080 0001 	eor.w	r0, r0, #1
 8004ec4:	b002      	add	sp, #8
 8004ec6:	4770      	bx	lr
 8004ec8:	7842      	ldrb	r2, [r0, #1]
 8004eca:	f89d 3005 	ldrb.w	r3, [sp, #5]
 8004ece:	429a      	cmp	r2, r3
 8004ed0:	f100 0001 	add.w	r0, r0, #1
 8004ed4:	d1f3      	bne.n	8004ebe <ai_check_custom_types+0x1e>
 8004ed6:	f810 2f01 	ldrb.w	r2, [r0, #1]!
 8004eda:	f89d 3006 	ldrb.w	r3, [sp, #6]
 8004ede:	429a      	cmp	r2, r3
 8004ee0:	d1ed      	bne.n	8004ebe <ai_check_custom_types+0x1e>
 8004ee2:	7842      	ldrb	r2, [r0, #1]
 8004ee4:	f89d 3007 	ldrb.w	r3, [sp, #7]
 8004ee8:	429a      	cmp	r2, r3
 8004eea:	d1e8      	bne.n	8004ebe <ai_check_custom_types+0x1e>
 8004eec:	2000      	movs	r0, #0
 8004eee:	e7e7      	b.n	8004ec0 <ai_check_custom_types+0x20>
 8004ef0:	08008050 	.word	0x08008050

08004ef4 <ai_layers_forward_all>:
 8004ef4:	b5f8      	push	{r3, r4, r5, r6, r7, lr}
 8004ef6:	6d86      	ldr	r6, [r0, #88]	; 0x58
 8004ef8:	6d05      	ldr	r5, [r0, #80]	; 0x50
 8004efa:	4604      	mov	r4, r0
 8004efc:	b31e      	cbz	r6, 8004f46 <ai_layers_forward_all+0x52>
 8004efe:	b1cd      	cbz	r5, 8004f34 <ai_layers_forward_all+0x40>
 8004f00:	6545      	str	r5, [r0, #84]	; 0x54
 8004f02:	4629      	mov	r1, r5
 8004f04:	6dc2      	ldr	r2, [r0, #92]	; 0x5c
 8004f06:	2001      	movs	r0, #1
 8004f08:	47b0      	blx	r6
 8004f0a:	6d61      	ldr	r1, [r4, #84]	; 0x54
 8004f0c:	2700      	movs	r7, #0
 8004f0e:	6de2      	ldr	r2, [r4, #92]	; 0x5c
 8004f10:	2002      	movs	r0, #2
 8004f12:	47b0      	blx	r6
 8004f14:	6d65      	ldr	r5, [r4, #84]	; 0x54
 8004f16:	692b      	ldr	r3, [r5, #16]
 8004f18:	4628      	mov	r0, r5
 8004f1a:	4798      	blx	r3
 8004f1c:	68eb      	ldr	r3, [r5, #12]
 8004f1e:	429d      	cmp	r5, r3
 8004f20:	f04f 0003 	mov.w	r0, #3
 8004f24:	4619      	mov	r1, r3
 8004f26:	d006      	beq.n	8004f36 <ai_layers_forward_all+0x42>
 8004f28:	6563      	str	r3, [r4, #84]	; 0x54
 8004f2a:	6de2      	ldr	r2, [r4, #92]	; 0x5c
 8004f2c:	47b0      	blx	r6
 8004f2e:	6d61      	ldr	r1, [r4, #84]	; 0x54
 8004f30:	2900      	cmp	r1, #0
 8004f32:	d1ec      	bne.n	8004f0e <ai_layers_forward_all+0x1a>
 8004f34:	bdf8      	pop	{r3, r4, r5, r6, r7, pc}
 8004f36:	2100      	movs	r1, #0
 8004f38:	6567      	str	r7, [r4, #84]	; 0x54
 8004f3a:	6de2      	ldr	r2, [r4, #92]	; 0x5c
 8004f3c:	47b0      	blx	r6
 8004f3e:	6d61      	ldr	r1, [r4, #84]	; 0x54
 8004f40:	2900      	cmp	r1, #0
 8004f42:	d1e4      	bne.n	8004f0e <ai_layers_forward_all+0x1a>
 8004f44:	bdf8      	pop	{r3, r4, r5, r6, r7, pc}
 8004f46:	2d00      	cmp	r5, #0
 8004f48:	d0f4      	beq.n	8004f34 <ai_layers_forward_all+0x40>
 8004f4a:	6545      	str	r5, [r0, #84]	; 0x54
 8004f4c:	692b      	ldr	r3, [r5, #16]
 8004f4e:	4628      	mov	r0, r5
 8004f50:	4798      	blx	r3
 8004f52:	68eb      	ldr	r3, [r5, #12]
 8004f54:	42ab      	cmp	r3, r5
 8004f56:	d004      	beq.n	8004f62 <ai_layers_forward_all+0x6e>
 8004f58:	6563      	str	r3, [r4, #84]	; 0x54
 8004f5a:	461d      	mov	r5, r3
 8004f5c:	2b00      	cmp	r3, #0
 8004f5e:	d1f5      	bne.n	8004f4c <ai_layers_forward_all+0x58>
 8004f60:	e7e8      	b.n	8004f34 <ai_layers_forward_all+0x40>
 8004f62:	2300      	movs	r3, #0
 8004f64:	6563      	str	r3, [r4, #84]	; 0x54
 8004f66:	bdf8      	pop	{r3, r4, r5, r6, r7, pc}

08004f68 <ai_array_to_buffer_fmt>:
 8004f68:	f3c0 4343 	ubfx	r3, r0, #17, #4
 8004f6c:	2b02      	cmp	r3, #2
 8004f6e:	d01f      	beq.n	8004fb0 <ai_array_to_buffer_fmt+0x48>
 8004f70:	4a1c      	ldr	r2, [pc, #112]	; (8004fe4 <ai_array_to_buffer_fmt+0x7c>)
 8004f72:	f020 437e 	bic.w	r3, r0, #4261412864	; 0xfe000000
 8004f76:	4293      	cmp	r3, r2
 8004f78:	d00a      	beq.n	8004f90 <ai_array_to_buffer_fmt+0x28>
 8004f7a:	dc0d      	bgt.n	8004f98 <ai_array_to_buffer_fmt+0x30>
 8004f7c:	4a1a      	ldr	r2, [pc, #104]	; (8004fe8 <ai_array_to_buffer_fmt+0x80>)
 8004f7e:	4293      	cmp	r3, r2
 8004f80:	d006      	beq.n	8004f90 <ai_array_to_buffer_fmt+0x28>
 8004f82:	dd1d      	ble.n	8004fc0 <ai_array_to_buffer_fmt+0x58>
 8004f84:	4a19      	ldr	r2, [pc, #100]	; (8004fec <ai_array_to_buffer_fmt+0x84>)
 8004f86:	4293      	cmp	r3, r2
 8004f88:	d002      	beq.n	8004f90 <ai_array_to_buffer_fmt+0x28>
 8004f8a:	320f      	adds	r2, #15
 8004f8c:	4293      	cmp	r3, r2
 8004f8e:	d10d      	bne.n	8004fac <ai_array_to_buffer_fmt+0x44>
 8004f90:	f000 40d0 	and.w	r0, r0, #1744830464	; 0x68000000
 8004f94:	4318      	orrs	r0, r3
 8004f96:	4770      	bx	lr
 8004f98:	4a15      	ldr	r2, [pc, #84]	; (8004ff0 <ai_array_to_buffer_fmt+0x88>)
 8004f9a:	4293      	cmp	r3, r2
 8004f9c:	d0f8      	beq.n	8004f90 <ai_array_to_buffer_fmt+0x28>
 8004f9e:	dd18      	ble.n	8004fd2 <ai_array_to_buffer_fmt+0x6a>
 8004fa0:	4a14      	ldr	r2, [pc, #80]	; (8004ff4 <ai_array_to_buffer_fmt+0x8c>)
 8004fa2:	4293      	cmp	r3, r2
 8004fa4:	d0f4      	beq.n	8004f90 <ai_array_to_buffer_fmt+0x28>
 8004fa6:	4a14      	ldr	r2, [pc, #80]	; (8004ff8 <ai_array_to_buffer_fmt+0x90>)
 8004fa8:	4293      	cmp	r3, r2
 8004faa:	d0f1      	beq.n	8004f90 <ai_array_to_buffer_fmt+0x28>
 8004fac:	2340      	movs	r3, #64	; 0x40
 8004fae:	e7ef      	b.n	8004f90 <ai_array_to_buffer_fmt+0x28>
 8004fb0:	4b12      	ldr	r3, [pc, #72]	; (8004ffc <ai_array_to_buffer_fmt+0x94>)
 8004fb2:	4003      	ands	r3, r0
 8004fb4:	f443 2380 	orr.w	r3, r3, #262144	; 0x40000
 8004fb8:	f000 40d0 	and.w	r0, r0, #1744830464	; 0x68000000
 8004fbc:	4318      	orrs	r0, r3
 8004fbe:	4770      	bx	lr
 8004fc0:	f2a2 4207 	subw	r2, r2, #1031	; 0x407
 8004fc4:	4293      	cmp	r3, r2
 8004fc6:	d0e3      	beq.n	8004f90 <ai_array_to_buffer_fmt+0x28>
 8004fc8:	f502 6280 	add.w	r2, r2, #1024	; 0x400
 8004fcc:	4293      	cmp	r3, r2
 8004fce:	d0df      	beq.n	8004f90 <ai_array_to_buffer_fmt+0x28>
 8004fd0:	e7ec      	b.n	8004fac <ai_array_to_buffer_fmt+0x44>
 8004fd2:	f5a2 6280 	sub.w	r2, r2, #1024	; 0x400
 8004fd6:	4293      	cmp	r3, r2
 8004fd8:	d0da      	beq.n	8004f90 <ai_array_to_buffer_fmt+0x28>
 8004fda:	3207      	adds	r2, #7
 8004fdc:	4293      	cmp	r3, r2
 8004fde:	d0d7      	beq.n	8004f90 <ai_array_to_buffer_fmt+0x28>
 8004fe0:	e7e4      	b.n	8004fac <ai_array_to_buffer_fmt+0x44>
 8004fe2:	bf00      	nop
 8004fe4:	00840040 	.word	0x00840040
 8004fe8:	00040447 	.word	0x00040447
 8004fec:	00040840 	.word	0x00040840
 8004ff0:	00840840 	.word	0x00840840
 8004ff4:	0084084f 	.word	0x0084084f
 8004ff8:	01821040 	.word	0x01821040
 8004ffc:	00803fff 	.word	0x00803fff

08005000 <ai_array_get_byte_size>:
 8005000:	b1c1      	cbz	r1, 8005034 <ai_array_get_byte_size+0x34>
 8005002:	f3c0 3282 	ubfx	r2, r0, #14, #3
 8005006:	f3c0 13c6 	ubfx	r3, r0, #7, #7
 800500a:	4413      	add	r3, r2
 800500c:	fb01 f103 	mul.w	r1, r1, r3
 8005010:	f3c0 5241 	ubfx	r2, r0, #21, #2
 8005014:	3107      	adds	r1, #7
 8005016:	f3c0 4043 	ubfx	r0, r0, #17, #4
 800501a:	f021 0107 	bic.w	r1, r1, #7
 800501e:	2804      	cmp	r0, #4
 8005020:	fa21 f102 	lsr.w	r1, r1, r2
 8005024:	d008      	beq.n	8005038 <ai_array_get_byte_size+0x38>
 8005026:	2808      	cmp	r0, #8
 8005028:	d101      	bne.n	800502e <ai_array_get_byte_size+0x2e>
 800502a:	eb01 2103 	add.w	r1, r1, r3, lsl #8
 800502e:	3107      	adds	r1, #7
 8005030:	08c8      	lsrs	r0, r1, #3
 8005032:	4770      	bx	lr
 8005034:	4608      	mov	r0, r1
 8005036:	4770      	bx	lr
 8005038:	eb01 1103 	add.w	r1, r1, r3, lsl #4
 800503c:	3107      	adds	r1, #7
 800503e:	08c8      	lsrs	r0, r1, #3
 8005040:	4770      	bx	lr
 8005042:	bf00      	nop

08005044 <__errno>:
 8005044:	4b01      	ldr	r3, [pc, #4]	; (800504c <__errno+0x8>)
 8005046:	6818      	ldr	r0, [r3, #0]
 8005048:	4770      	bx	lr
 800504a:	bf00      	nop
 800504c:	20000654 	.word	0x20000654

08005050 <__libc_init_array>:
 8005050:	b570      	push	{r4, r5, r6, lr}
 8005052:	4d0d      	ldr	r5, [pc, #52]	; (8005088 <__libc_init_array+0x38>)
 8005054:	4c0d      	ldr	r4, [pc, #52]	; (800508c <__libc_init_array+0x3c>)
 8005056:	1b64      	subs	r4, r4, r5
 8005058:	10a4      	asrs	r4, r4, #2
 800505a:	2600      	movs	r6, #0
 800505c:	42a6      	cmp	r6, r4
 800505e:	d109      	bne.n	8005074 <__libc_init_array+0x24>
 8005060:	4d0b      	ldr	r5, [pc, #44]	; (8005090 <__libc_init_array+0x40>)
 8005062:	4c0c      	ldr	r4, [pc, #48]	; (8005094 <__libc_init_array+0x44>)
 8005064:	f002 ffdc 	bl	8008020 <_init>
 8005068:	1b64      	subs	r4, r4, r5
 800506a:	10a4      	asrs	r4, r4, #2
 800506c:	2600      	movs	r6, #0
 800506e:	42a6      	cmp	r6, r4
 8005070:	d105      	bne.n	800507e <__libc_init_array+0x2e>
 8005072:	bd70      	pop	{r4, r5, r6, pc}
 8005074:	f855 3b04 	ldr.w	r3, [r5], #4
 8005078:	4798      	blx	r3
 800507a:	3601      	adds	r6, #1
 800507c:	e7ee      	b.n	800505c <__libc_init_array+0xc>
 800507e:	f855 3b04 	ldr.w	r3, [r5], #4
 8005082:	4798      	blx	r3
 8005084:	3601      	adds	r6, #1
 8005086:	e7f2      	b.n	800506e <__libc_init_array+0x1e>
 8005088:	0803a72c 	.word	0x0803a72c
 800508c:	0803a72c 	.word	0x0803a72c
 8005090:	0803a72c 	.word	0x0803a72c
 8005094:	0803a730 	.word	0x0803a730

08005098 <malloc>:
 8005098:	4b02      	ldr	r3, [pc, #8]	; (80050a4 <malloc+0xc>)
 800509a:	4601      	mov	r1, r0
 800509c:	6818      	ldr	r0, [r3, #0]
 800509e:	f000 b869 	b.w	8005174 <_malloc_r>
 80050a2:	bf00      	nop
 80050a4:	20000654 	.word	0x20000654

080050a8 <memcpy>:
 80050a8:	440a      	add	r2, r1
 80050aa:	4291      	cmp	r1, r2
 80050ac:	f100 33ff 	add.w	r3, r0, #4294967295
 80050b0:	d100      	bne.n	80050b4 <memcpy+0xc>
 80050b2:	4770      	bx	lr
 80050b4:	b510      	push	{r4, lr}
 80050b6:	f811 4b01 	ldrb.w	r4, [r1], #1
 80050ba:	f803 4f01 	strb.w	r4, [r3, #1]!
 80050be:	4291      	cmp	r1, r2
 80050c0:	d1f9      	bne.n	80050b6 <memcpy+0xe>
 80050c2:	bd10      	pop	{r4, pc}

080050c4 <memset>:
 80050c4:	4402      	add	r2, r0
 80050c6:	4603      	mov	r3, r0
 80050c8:	4293      	cmp	r3, r2
 80050ca:	d100      	bne.n	80050ce <memset+0xa>
 80050cc:	4770      	bx	lr
 80050ce:	f803 1b01 	strb.w	r1, [r3], #1
 80050d2:	e7f9      	b.n	80050c8 <memset+0x4>

080050d4 <_free_r>:
 80050d4:	b537      	push	{r0, r1, r2, r4, r5, lr}
 80050d6:	2900      	cmp	r1, #0
 80050d8:	d048      	beq.n	800516c <_free_r+0x98>
 80050da:	f851 3c04 	ldr.w	r3, [r1, #-4]
 80050de:	9001      	str	r0, [sp, #4]
 80050e0:	2b00      	cmp	r3, #0
 80050e2:	f1a1 0404 	sub.w	r4, r1, #4
 80050e6:	bfb8      	it	lt
 80050e8:	18e4      	addlt	r4, r4, r3
 80050ea:	f001 fbbd 	bl	8006868 <__malloc_lock>
 80050ee:	4a20      	ldr	r2, [pc, #128]	; (8005170 <_free_r+0x9c>)
 80050f0:	9801      	ldr	r0, [sp, #4]
 80050f2:	6813      	ldr	r3, [r2, #0]
 80050f4:	4615      	mov	r5, r2
 80050f6:	b933      	cbnz	r3, 8005106 <_free_r+0x32>
 80050f8:	6063      	str	r3, [r4, #4]
 80050fa:	6014      	str	r4, [r2, #0]
 80050fc:	b003      	add	sp, #12
 80050fe:	e8bd 4030 	ldmia.w	sp!, {r4, r5, lr}
 8005102:	f001 bbb7 	b.w	8006874 <__malloc_unlock>
 8005106:	42a3      	cmp	r3, r4
 8005108:	d90b      	bls.n	8005122 <_free_r+0x4e>
 800510a:	6821      	ldr	r1, [r4, #0]
 800510c:	1862      	adds	r2, r4, r1
 800510e:	4293      	cmp	r3, r2
 8005110:	bf04      	itt	eq
 8005112:	681a      	ldreq	r2, [r3, #0]
 8005114:	685b      	ldreq	r3, [r3, #4]
 8005116:	6063      	str	r3, [r4, #4]
 8005118:	bf04      	itt	eq
 800511a:	1852      	addeq	r2, r2, r1
 800511c:	6022      	streq	r2, [r4, #0]
 800511e:	602c      	str	r4, [r5, #0]
 8005120:	e7ec      	b.n	80050fc <_free_r+0x28>
 8005122:	461a      	mov	r2, r3
 8005124:	685b      	ldr	r3, [r3, #4]
 8005126:	b10b      	cbz	r3, 800512c <_free_r+0x58>
 8005128:	42a3      	cmp	r3, r4
 800512a:	d9fa      	bls.n	8005122 <_free_r+0x4e>
 800512c:	6811      	ldr	r1, [r2, #0]
 800512e:	1855      	adds	r5, r2, r1
 8005130:	42a5      	cmp	r5, r4
 8005132:	d10b      	bne.n	800514c <_free_r+0x78>
 8005134:	6824      	ldr	r4, [r4, #0]
 8005136:	4421      	add	r1, r4
 8005138:	1854      	adds	r4, r2, r1
 800513a:	42a3      	cmp	r3, r4
 800513c:	6011      	str	r1, [r2, #0]
 800513e:	d1dd      	bne.n	80050fc <_free_r+0x28>
 8005140:	681c      	ldr	r4, [r3, #0]
 8005142:	685b      	ldr	r3, [r3, #4]
 8005144:	6053      	str	r3, [r2, #4]
 8005146:	4421      	add	r1, r4
 8005148:	6011      	str	r1, [r2, #0]
 800514a:	e7d7      	b.n	80050fc <_free_r+0x28>
 800514c:	d902      	bls.n	8005154 <_free_r+0x80>
 800514e:	230c      	movs	r3, #12
 8005150:	6003      	str	r3, [r0, #0]
 8005152:	e7d3      	b.n	80050fc <_free_r+0x28>
 8005154:	6825      	ldr	r5, [r4, #0]
 8005156:	1961      	adds	r1, r4, r5
 8005158:	428b      	cmp	r3, r1
 800515a:	bf04      	itt	eq
 800515c:	6819      	ldreq	r1, [r3, #0]
 800515e:	685b      	ldreq	r3, [r3, #4]
 8005160:	6063      	str	r3, [r4, #4]
 8005162:	bf04      	itt	eq
 8005164:	1949      	addeq	r1, r1, r5
 8005166:	6021      	streq	r1, [r4, #0]
 8005168:	6054      	str	r4, [r2, #4]
 800516a:	e7c7      	b.n	80050fc <_free_r+0x28>
 800516c:	b003      	add	sp, #12
 800516e:	bd30      	pop	{r4, r5, pc}
 8005170:	200008b8 	.word	0x200008b8

08005174 <_malloc_r>:
 8005174:	b5f8      	push	{r3, r4, r5, r6, r7, lr}
 8005176:	1ccd      	adds	r5, r1, #3
 8005178:	f025 0503 	bic.w	r5, r5, #3
 800517c:	3508      	adds	r5, #8
 800517e:	2d0c      	cmp	r5, #12
 8005180:	bf38      	it	cc
 8005182:	250c      	movcc	r5, #12
 8005184:	2d00      	cmp	r5, #0
 8005186:	4606      	mov	r6, r0
 8005188:	db01      	blt.n	800518e <_malloc_r+0x1a>
 800518a:	42a9      	cmp	r1, r5
 800518c:	d903      	bls.n	8005196 <_malloc_r+0x22>
 800518e:	230c      	movs	r3, #12
 8005190:	6033      	str	r3, [r6, #0]
 8005192:	2000      	movs	r0, #0
 8005194:	bdf8      	pop	{r3, r4, r5, r6, r7, pc}
 8005196:	f001 fb67 	bl	8006868 <__malloc_lock>
 800519a:	4921      	ldr	r1, [pc, #132]	; (8005220 <_malloc_r+0xac>)
 800519c:	680a      	ldr	r2, [r1, #0]
 800519e:	4614      	mov	r4, r2
 80051a0:	b99c      	cbnz	r4, 80051ca <_malloc_r+0x56>
 80051a2:	4f20      	ldr	r7, [pc, #128]	; (8005224 <_malloc_r+0xb0>)
 80051a4:	683b      	ldr	r3, [r7, #0]
 80051a6:	b923      	cbnz	r3, 80051b2 <_malloc_r+0x3e>
 80051a8:	4621      	mov	r1, r4
 80051aa:	4630      	mov	r0, r6
 80051ac:	f000 fca6 	bl	8005afc <_sbrk_r>
 80051b0:	6038      	str	r0, [r7, #0]
 80051b2:	4629      	mov	r1, r5
 80051b4:	4630      	mov	r0, r6
 80051b6:	f000 fca1 	bl	8005afc <_sbrk_r>
 80051ba:	1c43      	adds	r3, r0, #1
 80051bc:	d123      	bne.n	8005206 <_malloc_r+0x92>
 80051be:	230c      	movs	r3, #12
 80051c0:	6033      	str	r3, [r6, #0]
 80051c2:	4630      	mov	r0, r6
 80051c4:	f001 fb56 	bl	8006874 <__malloc_unlock>
 80051c8:	e7e3      	b.n	8005192 <_malloc_r+0x1e>
 80051ca:	6823      	ldr	r3, [r4, #0]
 80051cc:	1b5b      	subs	r3, r3, r5
 80051ce:	d417      	bmi.n	8005200 <_malloc_r+0x8c>
 80051d0:	2b0b      	cmp	r3, #11
 80051d2:	d903      	bls.n	80051dc <_malloc_r+0x68>
 80051d4:	6023      	str	r3, [r4, #0]
 80051d6:	441c      	add	r4, r3
 80051d8:	6025      	str	r5, [r4, #0]
 80051da:	e004      	b.n	80051e6 <_malloc_r+0x72>
 80051dc:	6863      	ldr	r3, [r4, #4]
 80051de:	42a2      	cmp	r2, r4
 80051e0:	bf0c      	ite	eq
 80051e2:	600b      	streq	r3, [r1, #0]
 80051e4:	6053      	strne	r3, [r2, #4]
 80051e6:	4630      	mov	r0, r6
 80051e8:	f001 fb44 	bl	8006874 <__malloc_unlock>
 80051ec:	f104 000b 	add.w	r0, r4, #11
 80051f0:	1d23      	adds	r3, r4, #4
 80051f2:	f020 0007 	bic.w	r0, r0, #7
 80051f6:	1ac2      	subs	r2, r0, r3
 80051f8:	d0cc      	beq.n	8005194 <_malloc_r+0x20>
 80051fa:	1a1b      	subs	r3, r3, r0
 80051fc:	50a3      	str	r3, [r4, r2]
 80051fe:	e7c9      	b.n	8005194 <_malloc_r+0x20>
 8005200:	4622      	mov	r2, r4
 8005202:	6864      	ldr	r4, [r4, #4]
 8005204:	e7cc      	b.n	80051a0 <_malloc_r+0x2c>
 8005206:	1cc4      	adds	r4, r0, #3
 8005208:	f024 0403 	bic.w	r4, r4, #3
 800520c:	42a0      	cmp	r0, r4
 800520e:	d0e3      	beq.n	80051d8 <_malloc_r+0x64>
 8005210:	1a21      	subs	r1, r4, r0
 8005212:	4630      	mov	r0, r6
 8005214:	f000 fc72 	bl	8005afc <_sbrk_r>
 8005218:	3001      	adds	r0, #1
 800521a:	d1dd      	bne.n	80051d8 <_malloc_r+0x64>
 800521c:	e7cf      	b.n	80051be <_malloc_r+0x4a>
 800521e:	bf00      	nop
 8005220:	200008b8 	.word	0x200008b8
 8005224:	200008bc 	.word	0x200008bc

08005228 <__cvt>:
 8005228:	e92d 47ff 	stmdb	sp!, {r0, r1, r2, r3, r4, r5, r6, r7, r8, r9, sl, lr}
 800522c:	ec55 4b10 	vmov	r4, r5, d0
 8005230:	2d00      	cmp	r5, #0
 8005232:	460e      	mov	r6, r1
 8005234:	4619      	mov	r1, r3
 8005236:	462b      	mov	r3, r5
 8005238:	bfbb      	ittet	lt
 800523a:	f105 4300 	addlt.w	r3, r5, #2147483648	; 0x80000000
 800523e:	461d      	movlt	r5, r3
 8005240:	2300      	movge	r3, #0
 8005242:	232d      	movlt	r3, #45	; 0x2d
 8005244:	700b      	strb	r3, [r1, #0]
 8005246:	9b0d      	ldr	r3, [sp, #52]	; 0x34
 8005248:	f8dd a030 	ldr.w	sl, [sp, #48]	; 0x30
 800524c:	4691      	mov	r9, r2
 800524e:	f023 0820 	bic.w	r8, r3, #32
 8005252:	bfbc      	itt	lt
 8005254:	4622      	movlt	r2, r4
 8005256:	4614      	movlt	r4, r2
 8005258:	f1b8 0f46 	cmp.w	r8, #70	; 0x46
 800525c:	d005      	beq.n	800526a <__cvt+0x42>
 800525e:	f1b8 0f45 	cmp.w	r8, #69	; 0x45
 8005262:	d100      	bne.n	8005266 <__cvt+0x3e>
 8005264:	3601      	adds	r6, #1
 8005266:	2102      	movs	r1, #2
 8005268:	e000      	b.n	800526c <__cvt+0x44>
 800526a:	2103      	movs	r1, #3
 800526c:	ab03      	add	r3, sp, #12
 800526e:	9301      	str	r3, [sp, #4]
 8005270:	ab02      	add	r3, sp, #8
 8005272:	9300      	str	r3, [sp, #0]
 8005274:	ec45 4b10 	vmov	d0, r4, r5
 8005278:	4653      	mov	r3, sl
 800527a:	4632      	mov	r2, r6
 800527c:	f000 fd04 	bl	8005c88 <_dtoa_r>
 8005280:	f1b8 0f47 	cmp.w	r8, #71	; 0x47
 8005284:	4607      	mov	r7, r0
 8005286:	d102      	bne.n	800528e <__cvt+0x66>
 8005288:	f019 0f01 	tst.w	r9, #1
 800528c:	d022      	beq.n	80052d4 <__cvt+0xac>
 800528e:	f1b8 0f46 	cmp.w	r8, #70	; 0x46
 8005292:	eb07 0906 	add.w	r9, r7, r6
 8005296:	d110      	bne.n	80052ba <__cvt+0x92>
 8005298:	783b      	ldrb	r3, [r7, #0]
 800529a:	2b30      	cmp	r3, #48	; 0x30
 800529c:	d10a      	bne.n	80052b4 <__cvt+0x8c>
 800529e:	2200      	movs	r2, #0
 80052a0:	2300      	movs	r3, #0
 80052a2:	4620      	mov	r0, r4
 80052a4:	4629      	mov	r1, r5
 80052a6:	f7fb fc27 	bl	8000af8 <__aeabi_dcmpeq>
 80052aa:	b918      	cbnz	r0, 80052b4 <__cvt+0x8c>
 80052ac:	f1c6 0601 	rsb	r6, r6, #1
 80052b0:	f8ca 6000 	str.w	r6, [sl]
 80052b4:	f8da 3000 	ldr.w	r3, [sl]
 80052b8:	4499      	add	r9, r3
 80052ba:	2200      	movs	r2, #0
 80052bc:	2300      	movs	r3, #0
 80052be:	4620      	mov	r0, r4
 80052c0:	4629      	mov	r1, r5
 80052c2:	f7fb fc19 	bl	8000af8 <__aeabi_dcmpeq>
 80052c6:	b108      	cbz	r0, 80052cc <__cvt+0xa4>
 80052c8:	f8cd 900c 	str.w	r9, [sp, #12]
 80052cc:	2230      	movs	r2, #48	; 0x30
 80052ce:	9b03      	ldr	r3, [sp, #12]
 80052d0:	454b      	cmp	r3, r9
 80052d2:	d307      	bcc.n	80052e4 <__cvt+0xbc>
 80052d4:	9b03      	ldr	r3, [sp, #12]
 80052d6:	9a0e      	ldr	r2, [sp, #56]	; 0x38
 80052d8:	1bdb      	subs	r3, r3, r7
 80052da:	4638      	mov	r0, r7
 80052dc:	6013      	str	r3, [r2, #0]
 80052de:	b004      	add	sp, #16
 80052e0:	e8bd 87f0 	ldmia.w	sp!, {r4, r5, r6, r7, r8, r9, sl, pc}
 80052e4:	1c59      	adds	r1, r3, #1
 80052e6:	9103      	str	r1, [sp, #12]
 80052e8:	701a      	strb	r2, [r3, #0]
 80052ea:	e7f0      	b.n	80052ce <__cvt+0xa6>

080052ec <__exponent>:
 80052ec:	b5f7      	push	{r0, r1, r2, r4, r5, r6, r7, lr}
 80052ee:	4603      	mov	r3, r0
 80052f0:	2900      	cmp	r1, #0
 80052f2:	bfb8      	it	lt
 80052f4:	4249      	neglt	r1, r1
 80052f6:	f803 2b02 	strb.w	r2, [r3], #2
 80052fa:	bfb4      	ite	lt
 80052fc:	222d      	movlt	r2, #45	; 0x2d
 80052fe:	222b      	movge	r2, #43	; 0x2b
 8005300:	2909      	cmp	r1, #9
 8005302:	7042      	strb	r2, [r0, #1]
 8005304:	dd2a      	ble.n	800535c <__exponent+0x70>
 8005306:	f10d 0407 	add.w	r4, sp, #7
 800530a:	46a4      	mov	ip, r4
 800530c:	270a      	movs	r7, #10
 800530e:	46a6      	mov	lr, r4
 8005310:	460a      	mov	r2, r1
 8005312:	fb91 f6f7 	sdiv	r6, r1, r7
 8005316:	fb07 1516 	mls	r5, r7, r6, r1
 800531a:	3530      	adds	r5, #48	; 0x30
 800531c:	2a63      	cmp	r2, #99	; 0x63
 800531e:	f104 34ff 	add.w	r4, r4, #4294967295
 8005322:	f80e 5c01 	strb.w	r5, [lr, #-1]
 8005326:	4631      	mov	r1, r6
 8005328:	dcf1      	bgt.n	800530e <__exponent+0x22>
 800532a:	3130      	adds	r1, #48	; 0x30
 800532c:	f1ae 0502 	sub.w	r5, lr, #2
 8005330:	f804 1c01 	strb.w	r1, [r4, #-1]
 8005334:	1c44      	adds	r4, r0, #1
 8005336:	4629      	mov	r1, r5
 8005338:	4561      	cmp	r1, ip
 800533a:	d30a      	bcc.n	8005352 <__exponent+0x66>
 800533c:	f10d 0209 	add.w	r2, sp, #9
 8005340:	eba2 020e 	sub.w	r2, r2, lr
 8005344:	4565      	cmp	r5, ip
 8005346:	bf88      	it	hi
 8005348:	2200      	movhi	r2, #0
 800534a:	4413      	add	r3, r2
 800534c:	1a18      	subs	r0, r3, r0
 800534e:	b003      	add	sp, #12
 8005350:	bdf0      	pop	{r4, r5, r6, r7, pc}
 8005352:	f811 2b01 	ldrb.w	r2, [r1], #1
 8005356:	f804 2f01 	strb.w	r2, [r4, #1]!
 800535a:	e7ed      	b.n	8005338 <__exponent+0x4c>
 800535c:	2330      	movs	r3, #48	; 0x30
 800535e:	3130      	adds	r1, #48	; 0x30
 8005360:	7083      	strb	r3, [r0, #2]
 8005362:	70c1      	strb	r1, [r0, #3]
 8005364:	1d03      	adds	r3, r0, #4
 8005366:	e7f1      	b.n	800534c <__exponent+0x60>

08005368 <_printf_float>:
 8005368:	e92d 4ff0 	stmdb	sp!, {r4, r5, r6, r7, r8, r9, sl, fp, lr}
 800536c:	ed2d 8b02 	vpush	{d8}
 8005370:	b08d      	sub	sp, #52	; 0x34
 8005372:	460c      	mov	r4, r1
 8005374:	f8dd 8060 	ldr.w	r8, [sp, #96]	; 0x60
 8005378:	4616      	mov	r6, r2
 800537a:	461f      	mov	r7, r3
 800537c:	4605      	mov	r5, r0
 800537e:	f001 fa6f 	bl	8006860 <_localeconv_r>
 8005382:	f8d0 a000 	ldr.w	sl, [r0]
 8005386:	4650      	mov	r0, sl
 8005388:	f7fa ff3a 	bl	8000200 <strlen>
 800538c:	2300      	movs	r3, #0
 800538e:	930a      	str	r3, [sp, #40]	; 0x28
 8005390:	6823      	ldr	r3, [r4, #0]
 8005392:	9305      	str	r3, [sp, #20]
 8005394:	f8d8 3000 	ldr.w	r3, [r8]
 8005398:	f894 b018 	ldrb.w	fp, [r4, #24]
 800539c:	3307      	adds	r3, #7
 800539e:	f023 0307 	bic.w	r3, r3, #7
 80053a2:	f103 0208 	add.w	r2, r3, #8
 80053a6:	f8c8 2000 	str.w	r2, [r8]
 80053aa:	e9d3 2300 	ldrd	r2, r3, [r3]
 80053ae:	e9c4 2312 	strd	r2, r3, [r4, #72]	; 0x48
 80053b2:	e9d4 8912 	ldrd	r8, r9, [r4, #72]	; 0x48
 80053b6:	f029 4300 	bic.w	r3, r9, #2147483648	; 0x80000000
 80053ba:	9307      	str	r3, [sp, #28]
 80053bc:	f8cd 8018 	str.w	r8, [sp, #24]
 80053c0:	ee08 0a10 	vmov	s16, r0
 80053c4:	4b9f      	ldr	r3, [pc, #636]	; (8005644 <_printf_float+0x2dc>)
 80053c6:	e9dd 0106 	ldrd	r0, r1, [sp, #24]
 80053ca:	f04f 32ff 	mov.w	r2, #4294967295
 80053ce:	f7fb fbc5 	bl	8000b5c <__aeabi_dcmpun>
 80053d2:	bb88      	cbnz	r0, 8005438 <_printf_float+0xd0>
 80053d4:	e9dd 0106 	ldrd	r0, r1, [sp, #24]
 80053d8:	4b9a      	ldr	r3, [pc, #616]	; (8005644 <_printf_float+0x2dc>)
 80053da:	f04f 32ff 	mov.w	r2, #4294967295
 80053de:	f7fb fb9f 	bl	8000b20 <__aeabi_dcmple>
 80053e2:	bb48      	cbnz	r0, 8005438 <_printf_float+0xd0>
 80053e4:	2200      	movs	r2, #0
 80053e6:	2300      	movs	r3, #0
 80053e8:	4640      	mov	r0, r8
 80053ea:	4649      	mov	r1, r9
 80053ec:	f7fb fb8e 	bl	8000b0c <__aeabi_dcmplt>
 80053f0:	b110      	cbz	r0, 80053f8 <_printf_float+0x90>
 80053f2:	232d      	movs	r3, #45	; 0x2d
 80053f4:	f884 3043 	strb.w	r3, [r4, #67]	; 0x43
 80053f8:	4b93      	ldr	r3, [pc, #588]	; (8005648 <_printf_float+0x2e0>)
 80053fa:	4894      	ldr	r0, [pc, #592]	; (800564c <_printf_float+0x2e4>)
 80053fc:	f1bb 0f47 	cmp.w	fp, #71	; 0x47
 8005400:	bf94      	ite	ls
 8005402:	4698      	movls	r8, r3
 8005404:	4680      	movhi	r8, r0
 8005406:	2303      	movs	r3, #3
 8005408:	6123      	str	r3, [r4, #16]
 800540a:	9b05      	ldr	r3, [sp, #20]
 800540c:	f023 0204 	bic.w	r2, r3, #4
 8005410:	6022      	str	r2, [r4, #0]
 8005412:	f04f 0900 	mov.w	r9, #0
 8005416:	9700      	str	r7, [sp, #0]
 8005418:	4633      	mov	r3, r6
 800541a:	aa0b      	add	r2, sp, #44	; 0x2c
 800541c:	4621      	mov	r1, r4
 800541e:	4628      	mov	r0, r5
 8005420:	f000 f9d8 	bl	80057d4 <_printf_common>
 8005424:	3001      	adds	r0, #1
 8005426:	f040 8090 	bne.w	800554a <_printf_float+0x1e2>
 800542a:	f04f 30ff 	mov.w	r0, #4294967295
 800542e:	b00d      	add	sp, #52	; 0x34
 8005430:	ecbd 8b02 	vpop	{d8}
 8005434:	e8bd 8ff0 	ldmia.w	sp!, {r4, r5, r6, r7, r8, r9, sl, fp, pc}
 8005438:	4642      	mov	r2, r8
 800543a:	464b      	mov	r3, r9
 800543c:	4640      	mov	r0, r8
 800543e:	4649      	mov	r1, r9
 8005440:	f7fb fb8c 	bl	8000b5c <__aeabi_dcmpun>
 8005444:	b140      	cbz	r0, 8005458 <_printf_float+0xf0>
 8005446:	464b      	mov	r3, r9
 8005448:	2b00      	cmp	r3, #0
 800544a:	bfbc      	itt	lt
 800544c:	232d      	movlt	r3, #45	; 0x2d
 800544e:	f884 3043 	strblt.w	r3, [r4, #67]	; 0x43
 8005452:	487f      	ldr	r0, [pc, #508]	; (8005650 <_printf_float+0x2e8>)
 8005454:	4b7f      	ldr	r3, [pc, #508]	; (8005654 <_printf_float+0x2ec>)
 8005456:	e7d1      	b.n	80053fc <_printf_float+0x94>
 8005458:	6863      	ldr	r3, [r4, #4]
 800545a:	f00b 02df 	and.w	r2, fp, #223	; 0xdf
 800545e:	9206      	str	r2, [sp, #24]
 8005460:	1c5a      	adds	r2, r3, #1
 8005462:	d13f      	bne.n	80054e4 <_printf_float+0x17c>
 8005464:	2306      	movs	r3, #6
 8005466:	6063      	str	r3, [r4, #4]
 8005468:	9b05      	ldr	r3, [sp, #20]
 800546a:	6861      	ldr	r1, [r4, #4]
 800546c:	f443 6280 	orr.w	r2, r3, #1024	; 0x400
 8005470:	2300      	movs	r3, #0
 8005472:	9303      	str	r3, [sp, #12]
 8005474:	ab0a      	add	r3, sp, #40	; 0x28
 8005476:	e9cd b301 	strd	fp, r3, [sp, #4]
 800547a:	ab09      	add	r3, sp, #36	; 0x24
 800547c:	ec49 8b10 	vmov	d0, r8, r9
 8005480:	9300      	str	r3, [sp, #0]
 8005482:	6022      	str	r2, [r4, #0]
 8005484:	f10d 0323 	add.w	r3, sp, #35	; 0x23
 8005488:	4628      	mov	r0, r5
 800548a:	f7ff fecd 	bl	8005228 <__cvt>
 800548e:	9b06      	ldr	r3, [sp, #24]
 8005490:	9909      	ldr	r1, [sp, #36]	; 0x24
 8005492:	2b47      	cmp	r3, #71	; 0x47
 8005494:	4680      	mov	r8, r0
 8005496:	d108      	bne.n	80054aa <_printf_float+0x142>
 8005498:	1cc8      	adds	r0, r1, #3
 800549a:	db02      	blt.n	80054a2 <_printf_float+0x13a>
 800549c:	6863      	ldr	r3, [r4, #4]
 800549e:	4299      	cmp	r1, r3
 80054a0:	dd41      	ble.n	8005526 <_printf_float+0x1be>
 80054a2:	f1ab 0b02 	sub.w	fp, fp, #2
 80054a6:	fa5f fb8b 	uxtb.w	fp, fp
 80054aa:	f1bb 0f65 	cmp.w	fp, #101	; 0x65
 80054ae:	d820      	bhi.n	80054f2 <_printf_float+0x18a>
 80054b0:	3901      	subs	r1, #1
 80054b2:	465a      	mov	r2, fp
 80054b4:	f104 0050 	add.w	r0, r4, #80	; 0x50
 80054b8:	9109      	str	r1, [sp, #36]	; 0x24
 80054ba:	f7ff ff17 	bl	80052ec <__exponent>
 80054be:	9a0a      	ldr	r2, [sp, #40]	; 0x28
 80054c0:	1813      	adds	r3, r2, r0
 80054c2:	2a01      	cmp	r2, #1
 80054c4:	4681      	mov	r9, r0
 80054c6:	6123      	str	r3, [r4, #16]
 80054c8:	dc02      	bgt.n	80054d0 <_printf_float+0x168>
 80054ca:	6822      	ldr	r2, [r4, #0]
 80054cc:	07d2      	lsls	r2, r2, #31
 80054ce:	d501      	bpl.n	80054d4 <_printf_float+0x16c>
 80054d0:	3301      	adds	r3, #1
 80054d2:	6123      	str	r3, [r4, #16]
 80054d4:	f89d 3023 	ldrb.w	r3, [sp, #35]	; 0x23
 80054d8:	2b00      	cmp	r3, #0
 80054da:	d09c      	beq.n	8005416 <_printf_float+0xae>
 80054dc:	232d      	movs	r3, #45	; 0x2d
 80054de:	f884 3043 	strb.w	r3, [r4, #67]	; 0x43
 80054e2:	e798      	b.n	8005416 <_printf_float+0xae>
 80054e4:	9a06      	ldr	r2, [sp, #24]
 80054e6:	2a47      	cmp	r2, #71	; 0x47
 80054e8:	d1be      	bne.n	8005468 <_printf_float+0x100>
 80054ea:	2b00      	cmp	r3, #0
 80054ec:	d1bc      	bne.n	8005468 <_printf_float+0x100>
 80054ee:	2301      	movs	r3, #1
 80054f0:	e7b9      	b.n	8005466 <_printf_float+0xfe>
 80054f2:	f1bb 0f66 	cmp.w	fp, #102	; 0x66
 80054f6:	d118      	bne.n	800552a <_printf_float+0x1c2>
 80054f8:	2900      	cmp	r1, #0
 80054fa:	6863      	ldr	r3, [r4, #4]
 80054fc:	dd0b      	ble.n	8005516 <_printf_float+0x1ae>
 80054fe:	6121      	str	r1, [r4, #16]
 8005500:	b913      	cbnz	r3, 8005508 <_printf_float+0x1a0>
 8005502:	6822      	ldr	r2, [r4, #0]
 8005504:	07d0      	lsls	r0, r2, #31
 8005506:	d502      	bpl.n	800550e <_printf_float+0x1a6>
 8005508:	3301      	adds	r3, #1
 800550a:	440b      	add	r3, r1
 800550c:	6123      	str	r3, [r4, #16]
 800550e:	65a1      	str	r1, [r4, #88]	; 0x58
 8005510:	f04f 0900 	mov.w	r9, #0
 8005514:	e7de      	b.n	80054d4 <_printf_float+0x16c>
 8005516:	b913      	cbnz	r3, 800551e <_printf_float+0x1b6>
 8005518:	6822      	ldr	r2, [r4, #0]
 800551a:	07d2      	lsls	r2, r2, #31
 800551c:	d501      	bpl.n	8005522 <_printf_float+0x1ba>
 800551e:	3302      	adds	r3, #2
 8005520:	e7f4      	b.n	800550c <_printf_float+0x1a4>
 8005522:	2301      	movs	r3, #1
 8005524:	e7f2      	b.n	800550c <_printf_float+0x1a4>
 8005526:	f04f 0b67 	mov.w	fp, #103	; 0x67
 800552a:	9b0a      	ldr	r3, [sp, #40]	; 0x28
 800552c:	4299      	cmp	r1, r3
 800552e:	db05      	blt.n	800553c <_printf_float+0x1d4>
 8005530:	6823      	ldr	r3, [r4, #0]
 8005532:	6121      	str	r1, [r4, #16]
 8005534:	07d8      	lsls	r0, r3, #31
 8005536:	d5ea      	bpl.n	800550e <_printf_float+0x1a6>
 8005538:	1c4b      	adds	r3, r1, #1
 800553a:	e7e7      	b.n	800550c <_printf_float+0x1a4>
 800553c:	2900      	cmp	r1, #0
 800553e:	bfd4      	ite	le
 8005540:	f1c1 0202 	rsble	r2, r1, #2
 8005544:	2201      	movgt	r2, #1
 8005546:	4413      	add	r3, r2
 8005548:	e7e0      	b.n	800550c <_printf_float+0x1a4>
 800554a:	6823      	ldr	r3, [r4, #0]
 800554c:	055a      	lsls	r2, r3, #21
 800554e:	d407      	bmi.n	8005560 <_printf_float+0x1f8>
 8005550:	6923      	ldr	r3, [r4, #16]
 8005552:	4642      	mov	r2, r8
 8005554:	4631      	mov	r1, r6
 8005556:	4628      	mov	r0, r5
 8005558:	47b8      	blx	r7
 800555a:	3001      	adds	r0, #1
 800555c:	d12c      	bne.n	80055b8 <_printf_float+0x250>
 800555e:	e764      	b.n	800542a <_printf_float+0xc2>
 8005560:	f1bb 0f65 	cmp.w	fp, #101	; 0x65
 8005564:	f240 80e0 	bls.w	8005728 <_printf_float+0x3c0>
 8005568:	e9d4 0112 	ldrd	r0, r1, [r4, #72]	; 0x48
 800556c:	2200      	movs	r2, #0
 800556e:	2300      	movs	r3, #0
 8005570:	f7fb fac2 	bl	8000af8 <__aeabi_dcmpeq>
 8005574:	2800      	cmp	r0, #0
 8005576:	d034      	beq.n	80055e2 <_printf_float+0x27a>
 8005578:	4a37      	ldr	r2, [pc, #220]	; (8005658 <_printf_float+0x2f0>)
 800557a:	2301      	movs	r3, #1
 800557c:	4631      	mov	r1, r6
 800557e:	4628      	mov	r0, r5
 8005580:	47b8      	blx	r7
 8005582:	3001      	adds	r0, #1
 8005584:	f43f af51 	beq.w	800542a <_printf_float+0xc2>
 8005588:	e9dd 2309 	ldrd	r2, r3, [sp, #36]	; 0x24
 800558c:	429a      	cmp	r2, r3
 800558e:	db02      	blt.n	8005596 <_printf_float+0x22e>
 8005590:	6823      	ldr	r3, [r4, #0]
 8005592:	07d8      	lsls	r0, r3, #31
 8005594:	d510      	bpl.n	80055b8 <_printf_float+0x250>
 8005596:	ee18 3a10 	vmov	r3, s16
 800559a:	4652      	mov	r2, sl
 800559c:	4631      	mov	r1, r6
 800559e:	4628      	mov	r0, r5
 80055a0:	47b8      	blx	r7
 80055a2:	3001      	adds	r0, #1
 80055a4:	f43f af41 	beq.w	800542a <_printf_float+0xc2>
 80055a8:	f04f 0800 	mov.w	r8, #0
 80055ac:	f104 091a 	add.w	r9, r4, #26
 80055b0:	9b0a      	ldr	r3, [sp, #40]	; 0x28
 80055b2:	3b01      	subs	r3, #1
 80055b4:	4543      	cmp	r3, r8
 80055b6:	dc09      	bgt.n	80055cc <_printf_float+0x264>
 80055b8:	6823      	ldr	r3, [r4, #0]
 80055ba:	079b      	lsls	r3, r3, #30
 80055bc:	f100 8105 	bmi.w	80057ca <_printf_float+0x462>
 80055c0:	68e0      	ldr	r0, [r4, #12]
 80055c2:	9b0b      	ldr	r3, [sp, #44]	; 0x2c
 80055c4:	4298      	cmp	r0, r3
 80055c6:	bfb8      	it	lt
 80055c8:	4618      	movlt	r0, r3
 80055ca:	e730      	b.n	800542e <_printf_float+0xc6>
 80055cc:	2301      	movs	r3, #1
 80055ce:	464a      	mov	r2, r9
 80055d0:	4631      	mov	r1, r6
 80055d2:	4628      	mov	r0, r5
 80055d4:	47b8      	blx	r7
 80055d6:	3001      	adds	r0, #1
 80055d8:	f43f af27 	beq.w	800542a <_printf_float+0xc2>
 80055dc:	f108 0801 	add.w	r8, r8, #1
 80055e0:	e7e6      	b.n	80055b0 <_printf_float+0x248>
 80055e2:	9b09      	ldr	r3, [sp, #36]	; 0x24
 80055e4:	2b00      	cmp	r3, #0
 80055e6:	dc39      	bgt.n	800565c <_printf_float+0x2f4>
 80055e8:	4a1b      	ldr	r2, [pc, #108]	; (8005658 <_printf_float+0x2f0>)
 80055ea:	2301      	movs	r3, #1
 80055ec:	4631      	mov	r1, r6
 80055ee:	4628      	mov	r0, r5
 80055f0:	47b8      	blx	r7
 80055f2:	3001      	adds	r0, #1
 80055f4:	f43f af19 	beq.w	800542a <_printf_float+0xc2>
 80055f8:	e9dd 2309 	ldrd	r2, r3, [sp, #36]	; 0x24
 80055fc:	4313      	orrs	r3, r2
 80055fe:	d102      	bne.n	8005606 <_printf_float+0x29e>
 8005600:	6823      	ldr	r3, [r4, #0]
 8005602:	07d9      	lsls	r1, r3, #31
 8005604:	d5d8      	bpl.n	80055b8 <_printf_float+0x250>
 8005606:	ee18 3a10 	vmov	r3, s16
 800560a:	4652      	mov	r2, sl
 800560c:	4631      	mov	r1, r6
 800560e:	4628      	mov	r0, r5
 8005610:	47b8      	blx	r7
 8005612:	3001      	adds	r0, #1
 8005614:	f43f af09 	beq.w	800542a <_printf_float+0xc2>
 8005618:	f04f 0900 	mov.w	r9, #0
 800561c:	f104 0a1a 	add.w	sl, r4, #26
 8005620:	9b09      	ldr	r3, [sp, #36]	; 0x24
 8005622:	425b      	negs	r3, r3
 8005624:	454b      	cmp	r3, r9
 8005626:	dc01      	bgt.n	800562c <_printf_float+0x2c4>
 8005628:	9b0a      	ldr	r3, [sp, #40]	; 0x28
 800562a:	e792      	b.n	8005552 <_printf_float+0x1ea>
 800562c:	2301      	movs	r3, #1
 800562e:	4652      	mov	r2, sl
 8005630:	4631      	mov	r1, r6
 8005632:	4628      	mov	r0, r5
 8005634:	47b8      	blx	r7
 8005636:	3001      	adds	r0, #1
 8005638:	f43f aef7 	beq.w	800542a <_printf_float+0xc2>
 800563c:	f109 0901 	add.w	r9, r9, #1
 8005640:	e7ee      	b.n	8005620 <_printf_float+0x2b8>
 8005642:	bf00      	nop
 8005644:	7fefffff 	.word	0x7fefffff
 8005648:	0803a32c 	.word	0x0803a32c
 800564c:	0803a330 	.word	0x0803a330
 8005650:	0803a338 	.word	0x0803a338
 8005654:	0803a334 	.word	0x0803a334
 8005658:	0803a33c 	.word	0x0803a33c
 800565c:	9a0a      	ldr	r2, [sp, #40]	; 0x28
 800565e:	6da3      	ldr	r3, [r4, #88]	; 0x58
 8005660:	429a      	cmp	r2, r3
 8005662:	bfa8      	it	ge
 8005664:	461a      	movge	r2, r3
 8005666:	2a00      	cmp	r2, #0
 8005668:	4691      	mov	r9, r2
 800566a:	dc37      	bgt.n	80056dc <_printf_float+0x374>
 800566c:	f04f 0b00 	mov.w	fp, #0
 8005670:	ea29 79e9 	bic.w	r9, r9, r9, asr #31
 8005674:	f104 021a 	add.w	r2, r4, #26
 8005678:	6da3      	ldr	r3, [r4, #88]	; 0x58
 800567a:	9305      	str	r3, [sp, #20]
 800567c:	eba3 0309 	sub.w	r3, r3, r9
 8005680:	455b      	cmp	r3, fp
 8005682:	dc33      	bgt.n	80056ec <_printf_float+0x384>
 8005684:	e9dd 2309 	ldrd	r2, r3, [sp, #36]	; 0x24
 8005688:	429a      	cmp	r2, r3
 800568a:	db3b      	blt.n	8005704 <_printf_float+0x39c>
 800568c:	6823      	ldr	r3, [r4, #0]
 800568e:	07da      	lsls	r2, r3, #31
 8005690:	d438      	bmi.n	8005704 <_printf_float+0x39c>
 8005692:	9a0a      	ldr	r2, [sp, #40]	; 0x28
 8005694:	9b05      	ldr	r3, [sp, #20]
 8005696:	9909      	ldr	r1, [sp, #36]	; 0x24
 8005698:	1ad3      	subs	r3, r2, r3
 800569a:	eba2 0901 	sub.w	r9, r2, r1
 800569e:	4599      	cmp	r9, r3
 80056a0:	bfa8      	it	ge
 80056a2:	4699      	movge	r9, r3
 80056a4:	f1b9 0f00 	cmp.w	r9, #0
 80056a8:	dc35      	bgt.n	8005716 <_printf_float+0x3ae>
 80056aa:	f04f 0800 	mov.w	r8, #0
 80056ae:	ea29 79e9 	bic.w	r9, r9, r9, asr #31
 80056b2:	f104 0a1a 	add.w	sl, r4, #26
 80056b6:	e9dd 2309 	ldrd	r2, r3, [sp, #36]	; 0x24
 80056ba:	1a9b      	subs	r3, r3, r2
 80056bc:	eba3 0309 	sub.w	r3, r3, r9
 80056c0:	4543      	cmp	r3, r8
 80056c2:	f77f af79 	ble.w	80055b8 <_printf_float+0x250>
 80056c6:	2301      	movs	r3, #1
 80056c8:	4652      	mov	r2, sl
 80056ca:	4631      	mov	r1, r6
 80056cc:	4628      	mov	r0, r5
 80056ce:	47b8      	blx	r7
 80056d0:	3001      	adds	r0, #1
 80056d2:	f43f aeaa 	beq.w	800542a <_printf_float+0xc2>
 80056d6:	f108 0801 	add.w	r8, r8, #1
 80056da:	e7ec      	b.n	80056b6 <_printf_float+0x34e>
 80056dc:	4613      	mov	r3, r2
 80056de:	4631      	mov	r1, r6
 80056e0:	4642      	mov	r2, r8
 80056e2:	4628      	mov	r0, r5
 80056e4:	47b8      	blx	r7
 80056e6:	3001      	adds	r0, #1
 80056e8:	d1c0      	bne.n	800566c <_printf_float+0x304>
 80056ea:	e69e      	b.n	800542a <_printf_float+0xc2>
 80056ec:	2301      	movs	r3, #1
 80056ee:	4631      	mov	r1, r6
 80056f0:	4628      	mov	r0, r5
 80056f2:	9205      	str	r2, [sp, #20]
 80056f4:	47b8      	blx	r7
 80056f6:	3001      	adds	r0, #1
 80056f8:	f43f ae97 	beq.w	800542a <_printf_float+0xc2>
 80056fc:	9a05      	ldr	r2, [sp, #20]
 80056fe:	f10b 0b01 	add.w	fp, fp, #1
 8005702:	e7b9      	b.n	8005678 <_printf_float+0x310>
 8005704:	ee18 3a10 	vmov	r3, s16
 8005708:	4652      	mov	r2, sl
 800570a:	4631      	mov	r1, r6
 800570c:	4628      	mov	r0, r5
 800570e:	47b8      	blx	r7
 8005710:	3001      	adds	r0, #1
 8005712:	d1be      	bne.n	8005692 <_printf_float+0x32a>
 8005714:	e689      	b.n	800542a <_printf_float+0xc2>
 8005716:	9a05      	ldr	r2, [sp, #20]
 8005718:	464b      	mov	r3, r9
 800571a:	4442      	add	r2, r8
 800571c:	4631      	mov	r1, r6
 800571e:	4628      	mov	r0, r5
 8005720:	47b8      	blx	r7
 8005722:	3001      	adds	r0, #1
 8005724:	d1c1      	bne.n	80056aa <_printf_float+0x342>
 8005726:	e680      	b.n	800542a <_printf_float+0xc2>
 8005728:	9a0a      	ldr	r2, [sp, #40]	; 0x28
 800572a:	2a01      	cmp	r2, #1
 800572c:	dc01      	bgt.n	8005732 <_printf_float+0x3ca>
 800572e:	07db      	lsls	r3, r3, #31
 8005730:	d538      	bpl.n	80057a4 <_printf_float+0x43c>
 8005732:	2301      	movs	r3, #1
 8005734:	4642      	mov	r2, r8
 8005736:	4631      	mov	r1, r6
 8005738:	4628      	mov	r0, r5
 800573a:	47b8      	blx	r7
 800573c:	3001      	adds	r0, #1
 800573e:	f43f ae74 	beq.w	800542a <_printf_float+0xc2>
 8005742:	ee18 3a10 	vmov	r3, s16
 8005746:	4652      	mov	r2, sl
 8005748:	4631      	mov	r1, r6
 800574a:	4628      	mov	r0, r5
 800574c:	47b8      	blx	r7
 800574e:	3001      	adds	r0, #1
 8005750:	f43f ae6b 	beq.w	800542a <_printf_float+0xc2>
 8005754:	e9d4 0112 	ldrd	r0, r1, [r4, #72]	; 0x48
 8005758:	2200      	movs	r2, #0
 800575a:	2300      	movs	r3, #0
 800575c:	f7fb f9cc 	bl	8000af8 <__aeabi_dcmpeq>
 8005760:	b9d8      	cbnz	r0, 800579a <_printf_float+0x432>
 8005762:	9b0a      	ldr	r3, [sp, #40]	; 0x28
 8005764:	f108 0201 	add.w	r2, r8, #1
 8005768:	3b01      	subs	r3, #1
 800576a:	4631      	mov	r1, r6
 800576c:	4628      	mov	r0, r5
 800576e:	47b8      	blx	r7
 8005770:	3001      	adds	r0, #1
 8005772:	d10e      	bne.n	8005792 <_printf_float+0x42a>
 8005774:	e659      	b.n	800542a <_printf_float+0xc2>
 8005776:	2301      	movs	r3, #1
 8005778:	4652      	mov	r2, sl
 800577a:	4631      	mov	r1, r6
 800577c:	4628      	mov	r0, r5
 800577e:	47b8      	blx	r7
 8005780:	3001      	adds	r0, #1
 8005782:	f43f ae52 	beq.w	800542a <_printf_float+0xc2>
 8005786:	f108 0801 	add.w	r8, r8, #1
 800578a:	9b0a      	ldr	r3, [sp, #40]	; 0x28
 800578c:	3b01      	subs	r3, #1
 800578e:	4543      	cmp	r3, r8
 8005790:	dcf1      	bgt.n	8005776 <_printf_float+0x40e>
 8005792:	464b      	mov	r3, r9
 8005794:	f104 0250 	add.w	r2, r4, #80	; 0x50
 8005798:	e6dc      	b.n	8005554 <_printf_float+0x1ec>
 800579a:	f04f 0800 	mov.w	r8, #0
 800579e:	f104 0a1a 	add.w	sl, r4, #26
 80057a2:	e7f2      	b.n	800578a <_printf_float+0x422>
 80057a4:	2301      	movs	r3, #1
 80057a6:	4642      	mov	r2, r8
 80057a8:	e7df      	b.n	800576a <_printf_float+0x402>
 80057aa:	2301      	movs	r3, #1
 80057ac:	464a      	mov	r2, r9
 80057ae:	4631      	mov	r1, r6
 80057b0:	4628      	mov	r0, r5
 80057b2:	47b8      	blx	r7
 80057b4:	3001      	adds	r0, #1
 80057b6:	f43f ae38 	beq.w	800542a <_printf_float+0xc2>
 80057ba:	f108 0801 	add.w	r8, r8, #1
 80057be:	68e3      	ldr	r3, [r4, #12]
 80057c0:	990b      	ldr	r1, [sp, #44]	; 0x2c
 80057c2:	1a5b      	subs	r3, r3, r1
 80057c4:	4543      	cmp	r3, r8
 80057c6:	dcf0      	bgt.n	80057aa <_printf_float+0x442>
 80057c8:	e6fa      	b.n	80055c0 <_printf_float+0x258>
 80057ca:	f04f 0800 	mov.w	r8, #0
 80057ce:	f104 0919 	add.w	r9, r4, #25
 80057d2:	e7f4      	b.n	80057be <_printf_float+0x456>

080057d4 <_printf_common>:
 80057d4:	e92d 47f0 	stmdb	sp!, {r4, r5, r6, r7, r8, r9, sl, lr}
 80057d8:	4616      	mov	r6, r2
 80057da:	4699      	mov	r9, r3
 80057dc:	688a      	ldr	r2, [r1, #8]
 80057de:	690b      	ldr	r3, [r1, #16]
 80057e0:	f8dd 8020 	ldr.w	r8, [sp, #32]
 80057e4:	4293      	cmp	r3, r2
 80057e6:	bfb8      	it	lt
 80057e8:	4613      	movlt	r3, r2
 80057ea:	6033      	str	r3, [r6, #0]
 80057ec:	f891 2043 	ldrb.w	r2, [r1, #67]	; 0x43
 80057f0:	4607      	mov	r7, r0
 80057f2:	460c      	mov	r4, r1
 80057f4:	b10a      	cbz	r2, 80057fa <_printf_common+0x26>
 80057f6:	3301      	adds	r3, #1
 80057f8:	6033      	str	r3, [r6, #0]
 80057fa:	6823      	ldr	r3, [r4, #0]
 80057fc:	0699      	lsls	r1, r3, #26
 80057fe:	bf42      	ittt	mi
 8005800:	6833      	ldrmi	r3, [r6, #0]
 8005802:	3302      	addmi	r3, #2
 8005804:	6033      	strmi	r3, [r6, #0]
 8005806:	6825      	ldr	r5, [r4, #0]
 8005808:	f015 0506 	ands.w	r5, r5, #6
 800580c:	d106      	bne.n	800581c <_printf_common+0x48>
 800580e:	f104 0a19 	add.w	sl, r4, #25
 8005812:	68e3      	ldr	r3, [r4, #12]
 8005814:	6832      	ldr	r2, [r6, #0]
 8005816:	1a9b      	subs	r3, r3, r2
 8005818:	42ab      	cmp	r3, r5
 800581a:	dc26      	bgt.n	800586a <_printf_common+0x96>
 800581c:	f894 2043 	ldrb.w	r2, [r4, #67]	; 0x43
 8005820:	1e13      	subs	r3, r2, #0
 8005822:	6822      	ldr	r2, [r4, #0]
 8005824:	bf18      	it	ne
 8005826:	2301      	movne	r3, #1
 8005828:	0692      	lsls	r2, r2, #26
 800582a:	d42b      	bmi.n	8005884 <_printf_common+0xb0>
 800582c:	f104 0243 	add.w	r2, r4, #67	; 0x43
 8005830:	4649      	mov	r1, r9
 8005832:	4638      	mov	r0, r7
 8005834:	47c0      	blx	r8
 8005836:	3001      	adds	r0, #1
 8005838:	d01e      	beq.n	8005878 <_printf_common+0xa4>
 800583a:	6823      	ldr	r3, [r4, #0]
 800583c:	68e5      	ldr	r5, [r4, #12]
 800583e:	6832      	ldr	r2, [r6, #0]
 8005840:	f003 0306 	and.w	r3, r3, #6
 8005844:	2b04      	cmp	r3, #4
 8005846:	bf08      	it	eq
 8005848:	1aad      	subeq	r5, r5, r2
 800584a:	68a3      	ldr	r3, [r4, #8]
 800584c:	6922      	ldr	r2, [r4, #16]
 800584e:	bf0c      	ite	eq
 8005850:	ea25 75e5 	biceq.w	r5, r5, r5, asr #31
 8005854:	2500      	movne	r5, #0
 8005856:	4293      	cmp	r3, r2
 8005858:	bfc4      	itt	gt
 800585a:	1a9b      	subgt	r3, r3, r2
 800585c:	18ed      	addgt	r5, r5, r3
 800585e:	2600      	movs	r6, #0
 8005860:	341a      	adds	r4, #26
 8005862:	42b5      	cmp	r5, r6
 8005864:	d11a      	bne.n	800589c <_printf_common+0xc8>
 8005866:	2000      	movs	r0, #0
 8005868:	e008      	b.n	800587c <_printf_common+0xa8>
 800586a:	2301      	movs	r3, #1
 800586c:	4652      	mov	r2, sl
 800586e:	4649      	mov	r1, r9
 8005870:	4638      	mov	r0, r7
 8005872:	47c0      	blx	r8
 8005874:	3001      	adds	r0, #1
 8005876:	d103      	bne.n	8005880 <_printf_common+0xac>
 8005878:	f04f 30ff 	mov.w	r0, #4294967295
 800587c:	e8bd 87f0 	ldmia.w	sp!, {r4, r5, r6, r7, r8, r9, sl, pc}
 8005880:	3501      	adds	r5, #1
 8005882:	e7c6      	b.n	8005812 <_printf_common+0x3e>
 8005884:	18e1      	adds	r1, r4, r3
 8005886:	1c5a      	adds	r2, r3, #1
 8005888:	2030      	movs	r0, #48	; 0x30
 800588a:	f881 0043 	strb.w	r0, [r1, #67]	; 0x43
 800588e:	4422      	add	r2, r4
 8005890:	f894 1045 	ldrb.w	r1, [r4, #69]	; 0x45
 8005894:	f882 1043 	strb.w	r1, [r2, #67]	; 0x43
 8005898:	3302      	adds	r3, #2
 800589a:	e7c7      	b.n	800582c <_printf_common+0x58>
 800589c:	2301      	movs	r3, #1
 800589e:	4622      	mov	r2, r4
 80058a0:	4649      	mov	r1, r9
 80058a2:	4638      	mov	r0, r7
 80058a4:	47c0      	blx	r8
 80058a6:	3001      	adds	r0, #1
 80058a8:	d0e6      	beq.n	8005878 <_printf_common+0xa4>
 80058aa:	3601      	adds	r6, #1
 80058ac:	e7d9      	b.n	8005862 <_printf_common+0x8e>
	...

080058b0 <_printf_i>:
 80058b0:	e92d 47ff 	stmdb	sp!, {r0, r1, r2, r3, r4, r5, r6, r7, r8, r9, sl, lr}
 80058b4:	460c      	mov	r4, r1
 80058b6:	4691      	mov	r9, r2
 80058b8:	7e27      	ldrb	r7, [r4, #24]
 80058ba:	990c      	ldr	r1, [sp, #48]	; 0x30
 80058bc:	2f78      	cmp	r7, #120	; 0x78
 80058be:	4680      	mov	r8, r0
 80058c0:	469a      	mov	sl, r3
 80058c2:	f104 0243 	add.w	r2, r4, #67	; 0x43
 80058c6:	d807      	bhi.n	80058d8 <_printf_i+0x28>
 80058c8:	2f62      	cmp	r7, #98	; 0x62
 80058ca:	d80a      	bhi.n	80058e2 <_printf_i+0x32>
 80058cc:	2f00      	cmp	r7, #0
 80058ce:	f000 80d8 	beq.w	8005a82 <_printf_i+0x1d2>
 80058d2:	2f58      	cmp	r7, #88	; 0x58
 80058d4:	f000 80a3 	beq.w	8005a1e <_printf_i+0x16e>
 80058d8:	f104 0642 	add.w	r6, r4, #66	; 0x42
 80058dc:	f884 7042 	strb.w	r7, [r4, #66]	; 0x42
 80058e0:	e03a      	b.n	8005958 <_printf_i+0xa8>
 80058e2:	f1a7 0363 	sub.w	r3, r7, #99	; 0x63
 80058e6:	2b15      	cmp	r3, #21
 80058e8:	d8f6      	bhi.n	80058d8 <_printf_i+0x28>
 80058ea:	a001      	add	r0, pc, #4	; (adr r0, 80058f0 <_printf_i+0x40>)
 80058ec:	f850 f023 	ldr.w	pc, [r0, r3, lsl #2]
 80058f0:	08005949 	.word	0x08005949
 80058f4:	0800595d 	.word	0x0800595d
 80058f8:	080058d9 	.word	0x080058d9
 80058fc:	080058d9 	.word	0x080058d9
 8005900:	080058d9 	.word	0x080058d9
 8005904:	080058d9 	.word	0x080058d9
 8005908:	0800595d 	.word	0x0800595d
 800590c:	080058d9 	.word	0x080058d9
 8005910:	080058d9 	.word	0x080058d9
 8005914:	080058d9 	.word	0x080058d9
 8005918:	080058d9 	.word	0x080058d9
 800591c:	08005a69 	.word	0x08005a69
 8005920:	0800598d 	.word	0x0800598d
 8005924:	08005a4b 	.word	0x08005a4b
 8005928:	080058d9 	.word	0x080058d9
 800592c:	080058d9 	.word	0x080058d9
 8005930:	08005a8b 	.word	0x08005a8b
 8005934:	080058d9 	.word	0x080058d9
 8005938:	0800598d 	.word	0x0800598d
 800593c:	080058d9 	.word	0x080058d9
 8005940:	080058d9 	.word	0x080058d9
 8005944:	08005a53 	.word	0x08005a53
 8005948:	680b      	ldr	r3, [r1, #0]
 800594a:	1d1a      	adds	r2, r3, #4
 800594c:	681b      	ldr	r3, [r3, #0]
 800594e:	600a      	str	r2, [r1, #0]
 8005950:	f104 0642 	add.w	r6, r4, #66	; 0x42
 8005954:	f884 3042 	strb.w	r3, [r4, #66]	; 0x42
 8005958:	2301      	movs	r3, #1
 800595a:	e0a3      	b.n	8005aa4 <_printf_i+0x1f4>
 800595c:	6825      	ldr	r5, [r4, #0]
 800595e:	6808      	ldr	r0, [r1, #0]
 8005960:	062e      	lsls	r6, r5, #24
 8005962:	f100 0304 	add.w	r3, r0, #4
 8005966:	d50a      	bpl.n	800597e <_printf_i+0xce>
 8005968:	6805      	ldr	r5, [r0, #0]
 800596a:	600b      	str	r3, [r1, #0]
 800596c:	2d00      	cmp	r5, #0
 800596e:	da03      	bge.n	8005978 <_printf_i+0xc8>
 8005970:	232d      	movs	r3, #45	; 0x2d
 8005972:	426d      	negs	r5, r5
 8005974:	f884 3043 	strb.w	r3, [r4, #67]	; 0x43
 8005978:	485e      	ldr	r0, [pc, #376]	; (8005af4 <_printf_i+0x244>)
 800597a:	230a      	movs	r3, #10
 800597c:	e019      	b.n	80059b2 <_printf_i+0x102>
 800597e:	f015 0f40 	tst.w	r5, #64	; 0x40
 8005982:	6805      	ldr	r5, [r0, #0]
 8005984:	600b      	str	r3, [r1, #0]
 8005986:	bf18      	it	ne
 8005988:	b22d      	sxthne	r5, r5
 800598a:	e7ef      	b.n	800596c <_printf_i+0xbc>
 800598c:	680b      	ldr	r3, [r1, #0]
 800598e:	6825      	ldr	r5, [r4, #0]
 8005990:	1d18      	adds	r0, r3, #4
 8005992:	6008      	str	r0, [r1, #0]
 8005994:	0628      	lsls	r0, r5, #24
 8005996:	d501      	bpl.n	800599c <_printf_i+0xec>
 8005998:	681d      	ldr	r5, [r3, #0]
 800599a:	e002      	b.n	80059a2 <_printf_i+0xf2>
 800599c:	0669      	lsls	r1, r5, #25
 800599e:	d5fb      	bpl.n	8005998 <_printf_i+0xe8>
 80059a0:	881d      	ldrh	r5, [r3, #0]
 80059a2:	4854      	ldr	r0, [pc, #336]	; (8005af4 <_printf_i+0x244>)
 80059a4:	2f6f      	cmp	r7, #111	; 0x6f
 80059a6:	bf0c      	ite	eq
 80059a8:	2308      	moveq	r3, #8
 80059aa:	230a      	movne	r3, #10
 80059ac:	2100      	movs	r1, #0
 80059ae:	f884 1043 	strb.w	r1, [r4, #67]	; 0x43
 80059b2:	6866      	ldr	r6, [r4, #4]
 80059b4:	60a6      	str	r6, [r4, #8]
 80059b6:	2e00      	cmp	r6, #0
 80059b8:	bfa2      	ittt	ge
 80059ba:	6821      	ldrge	r1, [r4, #0]
 80059bc:	f021 0104 	bicge.w	r1, r1, #4
 80059c0:	6021      	strge	r1, [r4, #0]
 80059c2:	b90d      	cbnz	r5, 80059c8 <_printf_i+0x118>
 80059c4:	2e00      	cmp	r6, #0
 80059c6:	d04d      	beq.n	8005a64 <_printf_i+0x1b4>
 80059c8:	4616      	mov	r6, r2
 80059ca:	fbb5 f1f3 	udiv	r1, r5, r3
 80059ce:	fb03 5711 	mls	r7, r3, r1, r5
 80059d2:	5dc7      	ldrb	r7, [r0, r7]
 80059d4:	f806 7d01 	strb.w	r7, [r6, #-1]!
 80059d8:	462f      	mov	r7, r5
 80059da:	42bb      	cmp	r3, r7
 80059dc:	460d      	mov	r5, r1
 80059de:	d9f4      	bls.n	80059ca <_printf_i+0x11a>
 80059e0:	2b08      	cmp	r3, #8
 80059e2:	d10b      	bne.n	80059fc <_printf_i+0x14c>
 80059e4:	6823      	ldr	r3, [r4, #0]
 80059e6:	07df      	lsls	r7, r3, #31
 80059e8:	d508      	bpl.n	80059fc <_printf_i+0x14c>
 80059ea:	6923      	ldr	r3, [r4, #16]
 80059ec:	6861      	ldr	r1, [r4, #4]
 80059ee:	4299      	cmp	r1, r3
 80059f0:	bfde      	ittt	le
 80059f2:	2330      	movle	r3, #48	; 0x30
 80059f4:	f806 3c01 	strble.w	r3, [r6, #-1]
 80059f8:	f106 36ff 	addle.w	r6, r6, #4294967295
 80059fc:	1b92      	subs	r2, r2, r6
 80059fe:	6122      	str	r2, [r4, #16]
 8005a00:	f8cd a000 	str.w	sl, [sp]
 8005a04:	464b      	mov	r3, r9
 8005a06:	aa03      	add	r2, sp, #12
 8005a08:	4621      	mov	r1, r4
 8005a0a:	4640      	mov	r0, r8
 8005a0c:	f7ff fee2 	bl	80057d4 <_printf_common>
 8005a10:	3001      	adds	r0, #1
 8005a12:	d14c      	bne.n	8005aae <_printf_i+0x1fe>
 8005a14:	f04f 30ff 	mov.w	r0, #4294967295
 8005a18:	b004      	add	sp, #16
 8005a1a:	e8bd 87f0 	ldmia.w	sp!, {r4, r5, r6, r7, r8, r9, sl, pc}
 8005a1e:	4835      	ldr	r0, [pc, #212]	; (8005af4 <_printf_i+0x244>)
 8005a20:	f884 7045 	strb.w	r7, [r4, #69]	; 0x45
 8005a24:	6823      	ldr	r3, [r4, #0]
 8005a26:	680e      	ldr	r6, [r1, #0]
 8005a28:	061f      	lsls	r7, r3, #24
 8005a2a:	f856 5b04 	ldr.w	r5, [r6], #4
 8005a2e:	600e      	str	r6, [r1, #0]
 8005a30:	d514      	bpl.n	8005a5c <_printf_i+0x1ac>
 8005a32:	07d9      	lsls	r1, r3, #31
 8005a34:	bf44      	itt	mi
 8005a36:	f043 0320 	orrmi.w	r3, r3, #32
 8005a3a:	6023      	strmi	r3, [r4, #0]
 8005a3c:	b91d      	cbnz	r5, 8005a46 <_printf_i+0x196>
 8005a3e:	6823      	ldr	r3, [r4, #0]
 8005a40:	f023 0320 	bic.w	r3, r3, #32
 8005a44:	6023      	str	r3, [r4, #0]
 8005a46:	2310      	movs	r3, #16
 8005a48:	e7b0      	b.n	80059ac <_printf_i+0xfc>
 8005a4a:	6823      	ldr	r3, [r4, #0]
 8005a4c:	f043 0320 	orr.w	r3, r3, #32
 8005a50:	6023      	str	r3, [r4, #0]
 8005a52:	2378      	movs	r3, #120	; 0x78
 8005a54:	4828      	ldr	r0, [pc, #160]	; (8005af8 <_printf_i+0x248>)
 8005a56:	f884 3045 	strb.w	r3, [r4, #69]	; 0x45
 8005a5a:	e7e3      	b.n	8005a24 <_printf_i+0x174>
 8005a5c:	065e      	lsls	r6, r3, #25
 8005a5e:	bf48      	it	mi
 8005a60:	b2ad      	uxthmi	r5, r5
 8005a62:	e7e6      	b.n	8005a32 <_printf_i+0x182>
 8005a64:	4616      	mov	r6, r2
 8005a66:	e7bb      	b.n	80059e0 <_printf_i+0x130>
 8005a68:	680b      	ldr	r3, [r1, #0]
 8005a6a:	6826      	ldr	r6, [r4, #0]
 8005a6c:	6960      	ldr	r0, [r4, #20]
 8005a6e:	1d1d      	adds	r5, r3, #4
 8005a70:	600d      	str	r5, [r1, #0]
 8005a72:	0635      	lsls	r5, r6, #24
 8005a74:	681b      	ldr	r3, [r3, #0]
 8005a76:	d501      	bpl.n	8005a7c <_printf_i+0x1cc>
 8005a78:	6018      	str	r0, [r3, #0]
 8005a7a:	e002      	b.n	8005a82 <_printf_i+0x1d2>
 8005a7c:	0671      	lsls	r1, r6, #25
 8005a7e:	d5fb      	bpl.n	8005a78 <_printf_i+0x1c8>
 8005a80:	8018      	strh	r0, [r3, #0]
 8005a82:	2300      	movs	r3, #0
 8005a84:	6123      	str	r3, [r4, #16]
 8005a86:	4616      	mov	r6, r2
 8005a88:	e7ba      	b.n	8005a00 <_printf_i+0x150>
 8005a8a:	680b      	ldr	r3, [r1, #0]
 8005a8c:	1d1a      	adds	r2, r3, #4
 8005a8e:	600a      	str	r2, [r1, #0]
 8005a90:	681e      	ldr	r6, [r3, #0]
 8005a92:	6862      	ldr	r2, [r4, #4]
 8005a94:	2100      	movs	r1, #0
 8005a96:	4630      	mov	r0, r6
 8005a98:	f7fa fbba 	bl	8000210 <memchr>
 8005a9c:	b108      	cbz	r0, 8005aa2 <_printf_i+0x1f2>
 8005a9e:	1b80      	subs	r0, r0, r6
 8005aa0:	6060      	str	r0, [r4, #4]
 8005aa2:	6863      	ldr	r3, [r4, #4]
 8005aa4:	6123      	str	r3, [r4, #16]
 8005aa6:	2300      	movs	r3, #0
 8005aa8:	f884 3043 	strb.w	r3, [r4, #67]	; 0x43
 8005aac:	e7a8      	b.n	8005a00 <_printf_i+0x150>
 8005aae:	6923      	ldr	r3, [r4, #16]
 8005ab0:	4632      	mov	r2, r6
 8005ab2:	4649      	mov	r1, r9
 8005ab4:	4640      	mov	r0, r8
 8005ab6:	47d0      	blx	sl
 8005ab8:	3001      	adds	r0, #1
 8005aba:	d0ab      	beq.n	8005a14 <_printf_i+0x164>
 8005abc:	6823      	ldr	r3, [r4, #0]
 8005abe:	079b      	lsls	r3, r3, #30
 8005ac0:	d413      	bmi.n	8005aea <_printf_i+0x23a>
 8005ac2:	68e0      	ldr	r0, [r4, #12]
 8005ac4:	9b03      	ldr	r3, [sp, #12]
 8005ac6:	4298      	cmp	r0, r3
 8005ac8:	bfb8      	it	lt
 8005aca:	4618      	movlt	r0, r3
 8005acc:	e7a4      	b.n	8005a18 <_printf_i+0x168>
 8005ace:	2301      	movs	r3, #1
 8005ad0:	4632      	mov	r2, r6
 8005ad2:	4649      	mov	r1, r9
 8005ad4:	4640      	mov	r0, r8
 8005ad6:	47d0      	blx	sl
 8005ad8:	3001      	adds	r0, #1
 8005ada:	d09b      	beq.n	8005a14 <_printf_i+0x164>
 8005adc:	3501      	adds	r5, #1
 8005ade:	68e3      	ldr	r3, [r4, #12]
 8005ae0:	9903      	ldr	r1, [sp, #12]
 8005ae2:	1a5b      	subs	r3, r3, r1
 8005ae4:	42ab      	cmp	r3, r5
 8005ae6:	dcf2      	bgt.n	8005ace <_printf_i+0x21e>
 8005ae8:	e7eb      	b.n	8005ac2 <_printf_i+0x212>
 8005aea:	2500      	movs	r5, #0
 8005aec:	f104 0619 	add.w	r6, r4, #25
 8005af0:	e7f5      	b.n	8005ade <_printf_i+0x22e>
 8005af2:	bf00      	nop
 8005af4:	0803a33e 	.word	0x0803a33e
 8005af8:	0803a34f 	.word	0x0803a34f

08005afc <_sbrk_r>:
 8005afc:	b538      	push	{r3, r4, r5, lr}
 8005afe:	4d06      	ldr	r5, [pc, #24]	; (8005b18 <_sbrk_r+0x1c>)
 8005b00:	2300      	movs	r3, #0
 8005b02:	4604      	mov	r4, r0
 8005b04:	4608      	mov	r0, r1
 8005b06:	602b      	str	r3, [r5, #0]
 8005b08:	f7fb fcec 	bl	80014e4 <_sbrk>
 8005b0c:	1c43      	adds	r3, r0, #1
 8005b0e:	d102      	bne.n	8005b16 <_sbrk_r+0x1a>
 8005b10:	682b      	ldr	r3, [r5, #0]
 8005b12:	b103      	cbz	r3, 8005b16 <_sbrk_r+0x1a>
 8005b14:	6023      	str	r3, [r4, #0]
 8005b16:	bd38      	pop	{r3, r4, r5, pc}
 8005b18:	20000a54 	.word	0x20000a54

08005b1c <siprintf>:
 8005b1c:	b40e      	push	{r1, r2, r3}
 8005b1e:	b500      	push	{lr}
 8005b20:	b09c      	sub	sp, #112	; 0x70
 8005b22:	ab1d      	add	r3, sp, #116	; 0x74
 8005b24:	9002      	str	r0, [sp, #8]
 8005b26:	9006      	str	r0, [sp, #24]
 8005b28:	f06f 4100 	mvn.w	r1, #2147483648	; 0x80000000
 8005b2c:	4809      	ldr	r0, [pc, #36]	; (8005b54 <siprintf+0x38>)
 8005b2e:	9107      	str	r1, [sp, #28]
 8005b30:	9104      	str	r1, [sp, #16]
 8005b32:	4909      	ldr	r1, [pc, #36]	; (8005b58 <siprintf+0x3c>)
 8005b34:	f853 2b04 	ldr.w	r2, [r3], #4
 8005b38:	9105      	str	r1, [sp, #20]
 8005b3a:	6800      	ldr	r0, [r0, #0]
 8005b3c:	9301      	str	r3, [sp, #4]
 8005b3e:	a902      	add	r1, sp, #8
 8005b40:	f001 faac 	bl	800709c <_svfiprintf_r>
 8005b44:	9b02      	ldr	r3, [sp, #8]
 8005b46:	2200      	movs	r2, #0
 8005b48:	701a      	strb	r2, [r3, #0]
 8005b4a:	b01c      	add	sp, #112	; 0x70
 8005b4c:	f85d eb04 	ldr.w	lr, [sp], #4
 8005b50:	b003      	add	sp, #12
 8005b52:	4770      	bx	lr
 8005b54:	20000654 	.word	0x20000654
 8005b58:	ffff0208 	.word	0xffff0208

08005b5c <strcpy>:
 8005b5c:	4603      	mov	r3, r0
 8005b5e:	f811 2b01 	ldrb.w	r2, [r1], #1
 8005b62:	f803 2b01 	strb.w	r2, [r3], #1
 8005b66:	2a00      	cmp	r2, #0
 8005b68:	d1f9      	bne.n	8005b5e <strcpy+0x2>
 8005b6a:	4770      	bx	lr

08005b6c <quorem>:
 8005b6c:	e92d 4ff7 	stmdb	sp!, {r0, r1, r2, r4, r5, r6, r7, r8, r9, sl, fp, lr}
 8005b70:	6903      	ldr	r3, [r0, #16]
 8005b72:	690c      	ldr	r4, [r1, #16]
 8005b74:	42a3      	cmp	r3, r4
 8005b76:	4607      	mov	r7, r0
 8005b78:	f2c0 8081 	blt.w	8005c7e <quorem+0x112>
 8005b7c:	3c01      	subs	r4, #1
 8005b7e:	f101 0814 	add.w	r8, r1, #20
 8005b82:	f100 0514 	add.w	r5, r0, #20
 8005b86:	eb05 0384 	add.w	r3, r5, r4, lsl #2
 8005b8a:	9301      	str	r3, [sp, #4]
 8005b8c:	f858 3024 	ldr.w	r3, [r8, r4, lsl #2]
 8005b90:	f855 2024 	ldr.w	r2, [r5, r4, lsl #2]
 8005b94:	3301      	adds	r3, #1
 8005b96:	429a      	cmp	r2, r3
 8005b98:	ea4f 0b84 	mov.w	fp, r4, lsl #2
 8005b9c:	eb08 0984 	add.w	r9, r8, r4, lsl #2
 8005ba0:	fbb2 f6f3 	udiv	r6, r2, r3
 8005ba4:	d331      	bcc.n	8005c0a <quorem+0x9e>
 8005ba6:	f04f 0e00 	mov.w	lr, #0
 8005baa:	4640      	mov	r0, r8
 8005bac:	46ac      	mov	ip, r5
 8005bae:	46f2      	mov	sl, lr
 8005bb0:	f850 2b04 	ldr.w	r2, [r0], #4
 8005bb4:	b293      	uxth	r3, r2
 8005bb6:	fb06 e303 	mla	r3, r6, r3, lr
 8005bba:	ea4f 4e13 	mov.w	lr, r3, lsr #16
 8005bbe:	b29b      	uxth	r3, r3
 8005bc0:	ebaa 0303 	sub.w	r3, sl, r3
 8005bc4:	0c12      	lsrs	r2, r2, #16
 8005bc6:	f8dc a000 	ldr.w	sl, [ip]
 8005bca:	fb06 e202 	mla	r2, r6, r2, lr
 8005bce:	fa13 f38a 	uxtah	r3, r3, sl
 8005bd2:	ea4f 4e12 	mov.w	lr, r2, lsr #16
 8005bd6:	fa1f fa82 	uxth.w	sl, r2
 8005bda:	f8dc 2000 	ldr.w	r2, [ip]
 8005bde:	ebca 4212 	rsb	r2, sl, r2, lsr #16
 8005be2:	eb02 4223 	add.w	r2, r2, r3, asr #16
 8005be6:	b29b      	uxth	r3, r3
 8005be8:	ea43 4302 	orr.w	r3, r3, r2, lsl #16
 8005bec:	4581      	cmp	r9, r0
 8005bee:	f84c 3b04 	str.w	r3, [ip], #4
 8005bf2:	ea4f 4a22 	mov.w	sl, r2, asr #16
 8005bf6:	d2db      	bcs.n	8005bb0 <quorem+0x44>
 8005bf8:	f855 300b 	ldr.w	r3, [r5, fp]
 8005bfc:	b92b      	cbnz	r3, 8005c0a <quorem+0x9e>
 8005bfe:	9b01      	ldr	r3, [sp, #4]
 8005c00:	3b04      	subs	r3, #4
 8005c02:	429d      	cmp	r5, r3
 8005c04:	461a      	mov	r2, r3
 8005c06:	d32e      	bcc.n	8005c66 <quorem+0xfa>
 8005c08:	613c      	str	r4, [r7, #16]
 8005c0a:	4638      	mov	r0, r7
 8005c0c:	f001 f8b6 	bl	8006d7c <__mcmp>
 8005c10:	2800      	cmp	r0, #0
 8005c12:	db24      	blt.n	8005c5e <quorem+0xf2>
 8005c14:	3601      	adds	r6, #1
 8005c16:	4628      	mov	r0, r5
 8005c18:	f04f 0c00 	mov.w	ip, #0
 8005c1c:	f858 2b04 	ldr.w	r2, [r8], #4
 8005c20:	f8d0 e000 	ldr.w	lr, [r0]
 8005c24:	b293      	uxth	r3, r2
 8005c26:	ebac 0303 	sub.w	r3, ip, r3
 8005c2a:	0c12      	lsrs	r2, r2, #16
 8005c2c:	fa13 f38e 	uxtah	r3, r3, lr
 8005c30:	ebc2 421e 	rsb	r2, r2, lr, lsr #16
 8005c34:	eb02 4223 	add.w	r2, r2, r3, asr #16
 8005c38:	b29b      	uxth	r3, r3
 8005c3a:	ea43 4302 	orr.w	r3, r3, r2, lsl #16
 8005c3e:	45c1      	cmp	r9, r8
 8005c40:	f840 3b04 	str.w	r3, [r0], #4
 8005c44:	ea4f 4c22 	mov.w	ip, r2, asr #16
 8005c48:	d2e8      	bcs.n	8005c1c <quorem+0xb0>
 8005c4a:	f855 2024 	ldr.w	r2, [r5, r4, lsl #2]
 8005c4e:	eb05 0384 	add.w	r3, r5, r4, lsl #2
 8005c52:	b922      	cbnz	r2, 8005c5e <quorem+0xf2>
 8005c54:	3b04      	subs	r3, #4
 8005c56:	429d      	cmp	r5, r3
 8005c58:	461a      	mov	r2, r3
 8005c5a:	d30a      	bcc.n	8005c72 <quorem+0x106>
 8005c5c:	613c      	str	r4, [r7, #16]
 8005c5e:	4630      	mov	r0, r6
 8005c60:	b003      	add	sp, #12
 8005c62:	e8bd 8ff0 	ldmia.w	sp!, {r4, r5, r6, r7, r8, r9, sl, fp, pc}
 8005c66:	6812      	ldr	r2, [r2, #0]
 8005c68:	3b04      	subs	r3, #4
 8005c6a:	2a00      	cmp	r2, #0
 8005c6c:	d1cc      	bne.n	8005c08 <quorem+0x9c>
 8005c6e:	3c01      	subs	r4, #1
 8005c70:	e7c7      	b.n	8005c02 <quorem+0x96>
 8005c72:	6812      	ldr	r2, [r2, #0]
 8005c74:	3b04      	subs	r3, #4
 8005c76:	2a00      	cmp	r2, #0
 8005c78:	d1f0      	bne.n	8005c5c <quorem+0xf0>
 8005c7a:	3c01      	subs	r4, #1
 8005c7c:	e7eb      	b.n	8005c56 <quorem+0xea>
 8005c7e:	2000      	movs	r0, #0
 8005c80:	e7ee      	b.n	8005c60 <quorem+0xf4>
 8005c82:	0000      	movs	r0, r0
 8005c84:	0000      	movs	r0, r0
	...

08005c88 <_dtoa_r>:
 8005c88:	e92d 4ff0 	stmdb	sp!, {r4, r5, r6, r7, r8, r9, sl, fp, lr}
 8005c8c:	ed2d 8b02 	vpush	{d8}
 8005c90:	ec57 6b10 	vmov	r6, r7, d0
 8005c94:	b095      	sub	sp, #84	; 0x54
 8005c96:	6a45      	ldr	r5, [r0, #36]	; 0x24
 8005c98:	f8dd 8080 	ldr.w	r8, [sp, #128]	; 0x80
 8005c9c:	9105      	str	r1, [sp, #20]
 8005c9e:	e9cd 6702 	strd	r6, r7, [sp, #8]
 8005ca2:	4604      	mov	r4, r0
 8005ca4:	9209      	str	r2, [sp, #36]	; 0x24
 8005ca6:	930f      	str	r3, [sp, #60]	; 0x3c
 8005ca8:	b975      	cbnz	r5, 8005cc8 <_dtoa_r+0x40>
 8005caa:	2010      	movs	r0, #16
 8005cac:	f7ff f9f4 	bl	8005098 <malloc>
 8005cb0:	4602      	mov	r2, r0
 8005cb2:	6260      	str	r0, [r4, #36]	; 0x24
 8005cb4:	b920      	cbnz	r0, 8005cc0 <_dtoa_r+0x38>
 8005cb6:	4bb2      	ldr	r3, [pc, #712]	; (8005f80 <_dtoa_r+0x2f8>)
 8005cb8:	21ea      	movs	r1, #234	; 0xea
 8005cba:	48b2      	ldr	r0, [pc, #712]	; (8005f84 <_dtoa_r+0x2fc>)
 8005cbc:	f001 faee 	bl	800729c <__assert_func>
 8005cc0:	e9c0 5501 	strd	r5, r5, [r0, #4]
 8005cc4:	6005      	str	r5, [r0, #0]
 8005cc6:	60c5      	str	r5, [r0, #12]
 8005cc8:	6a63      	ldr	r3, [r4, #36]	; 0x24
 8005cca:	6819      	ldr	r1, [r3, #0]
 8005ccc:	b151      	cbz	r1, 8005ce4 <_dtoa_r+0x5c>
 8005cce:	685a      	ldr	r2, [r3, #4]
 8005cd0:	604a      	str	r2, [r1, #4]
 8005cd2:	2301      	movs	r3, #1
 8005cd4:	4093      	lsls	r3, r2
 8005cd6:	608b      	str	r3, [r1, #8]
 8005cd8:	4620      	mov	r0, r4
 8005cda:	f000 fe11 	bl	8006900 <_Bfree>
 8005cde:	6a63      	ldr	r3, [r4, #36]	; 0x24
 8005ce0:	2200      	movs	r2, #0
 8005ce2:	601a      	str	r2, [r3, #0]
 8005ce4:	1e3b      	subs	r3, r7, #0
 8005ce6:	bfb9      	ittee	lt
 8005ce8:	f023 4300 	biclt.w	r3, r3, #2147483648	; 0x80000000
 8005cec:	9303      	strlt	r3, [sp, #12]
 8005cee:	2300      	movge	r3, #0
 8005cf0:	f8c8 3000 	strge.w	r3, [r8]
 8005cf4:	f8dd 900c 	ldr.w	r9, [sp, #12]
 8005cf8:	4ba3      	ldr	r3, [pc, #652]	; (8005f88 <_dtoa_r+0x300>)
 8005cfa:	bfbc      	itt	lt
 8005cfc:	2201      	movlt	r2, #1
 8005cfe:	f8c8 2000 	strlt.w	r2, [r8]
 8005d02:	ea33 0309 	bics.w	r3, r3, r9
 8005d06:	d11b      	bne.n	8005d40 <_dtoa_r+0xb8>
 8005d08:	9a0f      	ldr	r2, [sp, #60]	; 0x3c
 8005d0a:	f242 730f 	movw	r3, #9999	; 0x270f
 8005d0e:	6013      	str	r3, [r2, #0]
 8005d10:	f3c9 0313 	ubfx	r3, r9, #0, #20
 8005d14:	4333      	orrs	r3, r6
 8005d16:	f000 857a 	beq.w	800680e <_dtoa_r+0xb86>
 8005d1a:	9b21      	ldr	r3, [sp, #132]	; 0x84
 8005d1c:	b963      	cbnz	r3, 8005d38 <_dtoa_r+0xb0>
 8005d1e:	4b9b      	ldr	r3, [pc, #620]	; (8005f8c <_dtoa_r+0x304>)
 8005d20:	e024      	b.n	8005d6c <_dtoa_r+0xe4>
 8005d22:	4b9b      	ldr	r3, [pc, #620]	; (8005f90 <_dtoa_r+0x308>)
 8005d24:	9300      	str	r3, [sp, #0]
 8005d26:	3308      	adds	r3, #8
 8005d28:	9a21      	ldr	r2, [sp, #132]	; 0x84
 8005d2a:	6013      	str	r3, [r2, #0]
 8005d2c:	9800      	ldr	r0, [sp, #0]
 8005d2e:	b015      	add	sp, #84	; 0x54
 8005d30:	ecbd 8b02 	vpop	{d8}
 8005d34:	e8bd 8ff0 	ldmia.w	sp!, {r4, r5, r6, r7, r8, r9, sl, fp, pc}
 8005d38:	4b94      	ldr	r3, [pc, #592]	; (8005f8c <_dtoa_r+0x304>)
 8005d3a:	9300      	str	r3, [sp, #0]
 8005d3c:	3303      	adds	r3, #3
 8005d3e:	e7f3      	b.n	8005d28 <_dtoa_r+0xa0>
 8005d40:	ed9d 7b02 	vldr	d7, [sp, #8]
 8005d44:	2200      	movs	r2, #0
 8005d46:	ec51 0b17 	vmov	r0, r1, d7
 8005d4a:	2300      	movs	r3, #0
 8005d4c:	ed8d 7b0a 	vstr	d7, [sp, #40]	; 0x28
 8005d50:	f7fa fed2 	bl	8000af8 <__aeabi_dcmpeq>
 8005d54:	4680      	mov	r8, r0
 8005d56:	b158      	cbz	r0, 8005d70 <_dtoa_r+0xe8>
 8005d58:	9a0f      	ldr	r2, [sp, #60]	; 0x3c
 8005d5a:	2301      	movs	r3, #1
 8005d5c:	6013      	str	r3, [r2, #0]
 8005d5e:	9b21      	ldr	r3, [sp, #132]	; 0x84
 8005d60:	2b00      	cmp	r3, #0
 8005d62:	f000 8551 	beq.w	8006808 <_dtoa_r+0xb80>
 8005d66:	488b      	ldr	r0, [pc, #556]	; (8005f94 <_dtoa_r+0x30c>)
 8005d68:	6018      	str	r0, [r3, #0]
 8005d6a:	1e43      	subs	r3, r0, #1
 8005d6c:	9300      	str	r3, [sp, #0]
 8005d6e:	e7dd      	b.n	8005d2c <_dtoa_r+0xa4>
 8005d70:	ed9d 0b0a 	vldr	d0, [sp, #40]	; 0x28
 8005d74:	aa12      	add	r2, sp, #72	; 0x48
 8005d76:	a913      	add	r1, sp, #76	; 0x4c
 8005d78:	4620      	mov	r0, r4
 8005d7a:	f001 f8a3 	bl	8006ec4 <__d2b>
 8005d7e:	f3c9 550a 	ubfx	r5, r9, #20, #11
 8005d82:	4683      	mov	fp, r0
 8005d84:	2d00      	cmp	r5, #0
 8005d86:	d07c      	beq.n	8005e82 <_dtoa_r+0x1fa>
 8005d88:	9b0b      	ldr	r3, [sp, #44]	; 0x2c
 8005d8a:	f8cd 8040 	str.w	r8, [sp, #64]	; 0x40
 8005d8e:	f3c3 0313 	ubfx	r3, r3, #0, #20
 8005d92:	e9dd 670a 	ldrd	r6, r7, [sp, #40]	; 0x28
 8005d96:	f043 577f 	orr.w	r7, r3, #1069547520	; 0x3fc00000
 8005d9a:	f447 1740 	orr.w	r7, r7, #3145728	; 0x300000
 8005d9e:	f2a5 35ff 	subw	r5, r5, #1023	; 0x3ff
 8005da2:	4b7d      	ldr	r3, [pc, #500]	; (8005f98 <_dtoa_r+0x310>)
 8005da4:	2200      	movs	r2, #0
 8005da6:	4630      	mov	r0, r6
 8005da8:	4639      	mov	r1, r7
 8005daa:	f7fa fa85 	bl	80002b8 <__aeabi_dsub>
 8005dae:	a36e      	add	r3, pc, #440	; (adr r3, 8005f68 <_dtoa_r+0x2e0>)
 8005db0:	e9d3 2300 	ldrd	r2, r3, [r3]
 8005db4:	f7fa fc38 	bl	8000628 <__aeabi_dmul>
 8005db8:	a36d      	add	r3, pc, #436	; (adr r3, 8005f70 <_dtoa_r+0x2e8>)
 8005dba:	e9d3 2300 	ldrd	r2, r3, [r3]
 8005dbe:	f7fa fa7d 	bl	80002bc <__adddf3>
 8005dc2:	4606      	mov	r6, r0
 8005dc4:	4628      	mov	r0, r5
 8005dc6:	460f      	mov	r7, r1
 8005dc8:	f7fa fbc4 	bl	8000554 <__aeabi_i2d>
 8005dcc:	a36a      	add	r3, pc, #424	; (adr r3, 8005f78 <_dtoa_r+0x2f0>)
 8005dce:	e9d3 2300 	ldrd	r2, r3, [r3]
 8005dd2:	f7fa fc29 	bl	8000628 <__aeabi_dmul>
 8005dd6:	4602      	mov	r2, r0
 8005dd8:	460b      	mov	r3, r1
 8005dda:	4630      	mov	r0, r6
 8005ddc:	4639      	mov	r1, r7
 8005dde:	f7fa fa6d 	bl	80002bc <__adddf3>
 8005de2:	4606      	mov	r6, r0
 8005de4:	460f      	mov	r7, r1
 8005de6:	f7fa fecf 	bl	8000b88 <__aeabi_d2iz>
 8005dea:	2200      	movs	r2, #0
 8005dec:	4682      	mov	sl, r0
 8005dee:	2300      	movs	r3, #0
 8005df0:	4630      	mov	r0, r6
 8005df2:	4639      	mov	r1, r7
 8005df4:	f7fa fe8a 	bl	8000b0c <__aeabi_dcmplt>
 8005df8:	b148      	cbz	r0, 8005e0e <_dtoa_r+0x186>
 8005dfa:	4650      	mov	r0, sl
 8005dfc:	f7fa fbaa 	bl	8000554 <__aeabi_i2d>
 8005e00:	4632      	mov	r2, r6
 8005e02:	463b      	mov	r3, r7
 8005e04:	f7fa fe78 	bl	8000af8 <__aeabi_dcmpeq>
 8005e08:	b908      	cbnz	r0, 8005e0e <_dtoa_r+0x186>
 8005e0a:	f10a 3aff 	add.w	sl, sl, #4294967295
 8005e0e:	f1ba 0f16 	cmp.w	sl, #22
 8005e12:	d854      	bhi.n	8005ebe <_dtoa_r+0x236>
 8005e14:	4b61      	ldr	r3, [pc, #388]	; (8005f9c <_dtoa_r+0x314>)
 8005e16:	eb03 03ca 	add.w	r3, r3, sl, lsl #3
 8005e1a:	e9d3 2300 	ldrd	r2, r3, [r3]
 8005e1e:	e9dd 010a 	ldrd	r0, r1, [sp, #40]	; 0x28
 8005e22:	f7fa fe73 	bl	8000b0c <__aeabi_dcmplt>
 8005e26:	2800      	cmp	r0, #0
 8005e28:	d04b      	beq.n	8005ec2 <_dtoa_r+0x23a>
 8005e2a:	f10a 3aff 	add.w	sl, sl, #4294967295
 8005e2e:	2300      	movs	r3, #0
 8005e30:	930e      	str	r3, [sp, #56]	; 0x38
 8005e32:	9b12      	ldr	r3, [sp, #72]	; 0x48
 8005e34:	1b5d      	subs	r5, r3, r5
 8005e36:	1e6b      	subs	r3, r5, #1
 8005e38:	9304      	str	r3, [sp, #16]
 8005e3a:	bf43      	ittte	mi
 8005e3c:	2300      	movmi	r3, #0
 8005e3e:	f1c5 0801 	rsbmi	r8, r5, #1
 8005e42:	9304      	strmi	r3, [sp, #16]
 8005e44:	f04f 0800 	movpl.w	r8, #0
 8005e48:	f1ba 0f00 	cmp.w	sl, #0
 8005e4c:	db3b      	blt.n	8005ec6 <_dtoa_r+0x23e>
 8005e4e:	9b04      	ldr	r3, [sp, #16]
 8005e50:	f8cd a034 	str.w	sl, [sp, #52]	; 0x34
 8005e54:	4453      	add	r3, sl
 8005e56:	9304      	str	r3, [sp, #16]
 8005e58:	2300      	movs	r3, #0
 8005e5a:	9306      	str	r3, [sp, #24]
 8005e5c:	9b05      	ldr	r3, [sp, #20]
 8005e5e:	2b09      	cmp	r3, #9
 8005e60:	d869      	bhi.n	8005f36 <_dtoa_r+0x2ae>
 8005e62:	2b05      	cmp	r3, #5
 8005e64:	bfc4      	itt	gt
 8005e66:	3b04      	subgt	r3, #4
 8005e68:	9305      	strgt	r3, [sp, #20]
 8005e6a:	9b05      	ldr	r3, [sp, #20]
 8005e6c:	f1a3 0302 	sub.w	r3, r3, #2
 8005e70:	bfcc      	ite	gt
 8005e72:	2500      	movgt	r5, #0
 8005e74:	2501      	movle	r5, #1
 8005e76:	2b03      	cmp	r3, #3
 8005e78:	d869      	bhi.n	8005f4e <_dtoa_r+0x2c6>
 8005e7a:	e8df f003 	tbb	[pc, r3]
 8005e7e:	4e2c      	.short	0x4e2c
 8005e80:	5a4c      	.short	0x5a4c
 8005e82:	e9dd 5312 	ldrd	r5, r3, [sp, #72]	; 0x48
 8005e86:	441d      	add	r5, r3
 8005e88:	f205 4332 	addw	r3, r5, #1074	; 0x432
 8005e8c:	2b20      	cmp	r3, #32
 8005e8e:	bfc1      	itttt	gt
 8005e90:	f1c3 0340 	rsbgt	r3, r3, #64	; 0x40
 8005e94:	f205 4012 	addwgt	r0, r5, #1042	; 0x412
 8005e98:	fa09 f303 	lslgt.w	r3, r9, r3
 8005e9c:	fa26 f000 	lsrgt.w	r0, r6, r0
 8005ea0:	bfda      	itte	le
 8005ea2:	f1c3 0320 	rsble	r3, r3, #32
 8005ea6:	fa06 f003 	lslle.w	r0, r6, r3
 8005eaa:	4318      	orrgt	r0, r3
 8005eac:	f7fa fb42 	bl	8000534 <__aeabi_ui2d>
 8005eb0:	2301      	movs	r3, #1
 8005eb2:	4606      	mov	r6, r0
 8005eb4:	f1a1 77f8 	sub.w	r7, r1, #32505856	; 0x1f00000
 8005eb8:	3d01      	subs	r5, #1
 8005eba:	9310      	str	r3, [sp, #64]	; 0x40
 8005ebc:	e771      	b.n	8005da2 <_dtoa_r+0x11a>
 8005ebe:	2301      	movs	r3, #1
 8005ec0:	e7b6      	b.n	8005e30 <_dtoa_r+0x1a8>
 8005ec2:	900e      	str	r0, [sp, #56]	; 0x38
 8005ec4:	e7b5      	b.n	8005e32 <_dtoa_r+0x1aa>
 8005ec6:	f1ca 0300 	rsb	r3, sl, #0
 8005eca:	9306      	str	r3, [sp, #24]
 8005ecc:	2300      	movs	r3, #0
 8005ece:	eba8 080a 	sub.w	r8, r8, sl
 8005ed2:	930d      	str	r3, [sp, #52]	; 0x34
 8005ed4:	e7c2      	b.n	8005e5c <_dtoa_r+0x1d4>
 8005ed6:	2300      	movs	r3, #0
 8005ed8:	9308      	str	r3, [sp, #32]
 8005eda:	9b09      	ldr	r3, [sp, #36]	; 0x24
 8005edc:	2b00      	cmp	r3, #0
 8005ede:	dc39      	bgt.n	8005f54 <_dtoa_r+0x2cc>
 8005ee0:	f04f 0901 	mov.w	r9, #1
 8005ee4:	f8cd 9004 	str.w	r9, [sp, #4]
 8005ee8:	464b      	mov	r3, r9
 8005eea:	f8cd 9024 	str.w	r9, [sp, #36]	; 0x24
 8005eee:	6a60      	ldr	r0, [r4, #36]	; 0x24
 8005ef0:	2200      	movs	r2, #0
 8005ef2:	6042      	str	r2, [r0, #4]
 8005ef4:	2204      	movs	r2, #4
 8005ef6:	f102 0614 	add.w	r6, r2, #20
 8005efa:	429e      	cmp	r6, r3
 8005efc:	6841      	ldr	r1, [r0, #4]
 8005efe:	d92f      	bls.n	8005f60 <_dtoa_r+0x2d8>
 8005f00:	4620      	mov	r0, r4
 8005f02:	f000 fcbd 	bl	8006880 <_Balloc>
 8005f06:	9000      	str	r0, [sp, #0]
 8005f08:	2800      	cmp	r0, #0
 8005f0a:	d14b      	bne.n	8005fa4 <_dtoa_r+0x31c>
 8005f0c:	4b24      	ldr	r3, [pc, #144]	; (8005fa0 <_dtoa_r+0x318>)
 8005f0e:	4602      	mov	r2, r0
 8005f10:	f44f 71d5 	mov.w	r1, #426	; 0x1aa
 8005f14:	e6d1      	b.n	8005cba <_dtoa_r+0x32>
 8005f16:	2301      	movs	r3, #1
 8005f18:	e7de      	b.n	8005ed8 <_dtoa_r+0x250>
 8005f1a:	2300      	movs	r3, #0
 8005f1c:	9308      	str	r3, [sp, #32]
 8005f1e:	9b09      	ldr	r3, [sp, #36]	; 0x24
 8005f20:	eb0a 0903 	add.w	r9, sl, r3
 8005f24:	f109 0301 	add.w	r3, r9, #1
 8005f28:	2b01      	cmp	r3, #1
 8005f2a:	9301      	str	r3, [sp, #4]
 8005f2c:	bfb8      	it	lt
 8005f2e:	2301      	movlt	r3, #1
 8005f30:	e7dd      	b.n	8005eee <_dtoa_r+0x266>
 8005f32:	2301      	movs	r3, #1
 8005f34:	e7f2      	b.n	8005f1c <_dtoa_r+0x294>
 8005f36:	2501      	movs	r5, #1
 8005f38:	2300      	movs	r3, #0
 8005f3a:	9305      	str	r3, [sp, #20]
 8005f3c:	9508      	str	r5, [sp, #32]
 8005f3e:	f04f 39ff 	mov.w	r9, #4294967295
 8005f42:	2200      	movs	r2, #0
 8005f44:	f8cd 9004 	str.w	r9, [sp, #4]
 8005f48:	2312      	movs	r3, #18
 8005f4a:	9209      	str	r2, [sp, #36]	; 0x24
 8005f4c:	e7cf      	b.n	8005eee <_dtoa_r+0x266>
 8005f4e:	2301      	movs	r3, #1
 8005f50:	9308      	str	r3, [sp, #32]
 8005f52:	e7f4      	b.n	8005f3e <_dtoa_r+0x2b6>
 8005f54:	f8dd 9024 	ldr.w	r9, [sp, #36]	; 0x24
 8005f58:	f8cd 9004 	str.w	r9, [sp, #4]
 8005f5c:	464b      	mov	r3, r9
 8005f5e:	e7c6      	b.n	8005eee <_dtoa_r+0x266>
 8005f60:	3101      	adds	r1, #1
 8005f62:	6041      	str	r1, [r0, #4]
 8005f64:	0052      	lsls	r2, r2, #1
 8005f66:	e7c6      	b.n	8005ef6 <_dtoa_r+0x26e>
 8005f68:	636f4361 	.word	0x636f4361
 8005f6c:	3fd287a7 	.word	0x3fd287a7
 8005f70:	8b60c8b3 	.word	0x8b60c8b3
 8005f74:	3fc68a28 	.word	0x3fc68a28
 8005f78:	509f79fb 	.word	0x509f79fb
 8005f7c:	3fd34413 	.word	0x3fd34413
 8005f80:	0803a36d 	.word	0x0803a36d
 8005f84:	0803a384 	.word	0x0803a384
 8005f88:	7ff00000 	.word	0x7ff00000
 8005f8c:	0803a369 	.word	0x0803a369
 8005f90:	0803a360 	.word	0x0803a360
 8005f94:	0803a33d 	.word	0x0803a33d
 8005f98:	3ff80000 	.word	0x3ff80000
 8005f9c:	0803a480 	.word	0x0803a480
 8005fa0:	0803a3e3 	.word	0x0803a3e3
 8005fa4:	6a63      	ldr	r3, [r4, #36]	; 0x24
 8005fa6:	9a00      	ldr	r2, [sp, #0]
 8005fa8:	601a      	str	r2, [r3, #0]
 8005faa:	9b01      	ldr	r3, [sp, #4]
 8005fac:	2b0e      	cmp	r3, #14
 8005fae:	f200 80ad 	bhi.w	800610c <_dtoa_r+0x484>
 8005fb2:	2d00      	cmp	r5, #0
 8005fb4:	f000 80aa 	beq.w	800610c <_dtoa_r+0x484>
 8005fb8:	f1ba 0f00 	cmp.w	sl, #0
 8005fbc:	dd36      	ble.n	800602c <_dtoa_r+0x3a4>
 8005fbe:	4ac3      	ldr	r2, [pc, #780]	; (80062cc <_dtoa_r+0x644>)
 8005fc0:	f00a 030f 	and.w	r3, sl, #15
 8005fc4:	eb02 03c3 	add.w	r3, r2, r3, lsl #3
 8005fc8:	ed93 7b00 	vldr	d7, [r3]
 8005fcc:	f41a 7f80 	tst.w	sl, #256	; 0x100
 8005fd0:	ea4f 172a 	mov.w	r7, sl, asr #4
 8005fd4:	eeb0 8a47 	vmov.f32	s16, s14
 8005fd8:	eef0 8a67 	vmov.f32	s17, s15
 8005fdc:	d016      	beq.n	800600c <_dtoa_r+0x384>
 8005fde:	4bbc      	ldr	r3, [pc, #752]	; (80062d0 <_dtoa_r+0x648>)
 8005fe0:	e9dd 010a 	ldrd	r0, r1, [sp, #40]	; 0x28
 8005fe4:	e9d3 2308 	ldrd	r2, r3, [r3, #32]
 8005fe8:	f7fa fc48 	bl	800087c <__aeabi_ddiv>
 8005fec:	e9cd 0102 	strd	r0, r1, [sp, #8]
 8005ff0:	f007 070f 	and.w	r7, r7, #15
 8005ff4:	2503      	movs	r5, #3
 8005ff6:	4eb6      	ldr	r6, [pc, #728]	; (80062d0 <_dtoa_r+0x648>)
 8005ff8:	b957      	cbnz	r7, 8006010 <_dtoa_r+0x388>
 8005ffa:	e9dd 0102 	ldrd	r0, r1, [sp, #8]
 8005ffe:	ec53 2b18 	vmov	r2, r3, d8
 8006002:	f7fa fc3b 	bl	800087c <__aeabi_ddiv>
 8006006:	e9cd 0102 	strd	r0, r1, [sp, #8]
 800600a:	e029      	b.n	8006060 <_dtoa_r+0x3d8>
 800600c:	2502      	movs	r5, #2
 800600e:	e7f2      	b.n	8005ff6 <_dtoa_r+0x36e>
 8006010:	07f9      	lsls	r1, r7, #31
 8006012:	d508      	bpl.n	8006026 <_dtoa_r+0x39e>
 8006014:	ec51 0b18 	vmov	r0, r1, d8
 8006018:	e9d6 2300 	ldrd	r2, r3, [r6]
 800601c:	f7fa fb04 	bl	8000628 <__aeabi_dmul>
 8006020:	ec41 0b18 	vmov	d8, r0, r1
 8006024:	3501      	adds	r5, #1
 8006026:	107f      	asrs	r7, r7, #1
 8006028:	3608      	adds	r6, #8
 800602a:	e7e5      	b.n	8005ff8 <_dtoa_r+0x370>
 800602c:	f000 80a6 	beq.w	800617c <_dtoa_r+0x4f4>
 8006030:	f1ca 0600 	rsb	r6, sl, #0
 8006034:	4ba5      	ldr	r3, [pc, #660]	; (80062cc <_dtoa_r+0x644>)
 8006036:	4fa6      	ldr	r7, [pc, #664]	; (80062d0 <_dtoa_r+0x648>)
 8006038:	f006 020f 	and.w	r2, r6, #15
 800603c:	eb03 03c2 	add.w	r3, r3, r2, lsl #3
 8006040:	e9d3 2300 	ldrd	r2, r3, [r3]
 8006044:	e9dd 010a 	ldrd	r0, r1, [sp, #40]	; 0x28
 8006048:	f7fa faee 	bl	8000628 <__aeabi_dmul>
 800604c:	e9cd 0102 	strd	r0, r1, [sp, #8]
 8006050:	1136      	asrs	r6, r6, #4
 8006052:	2300      	movs	r3, #0
 8006054:	2502      	movs	r5, #2
 8006056:	2e00      	cmp	r6, #0
 8006058:	f040 8085 	bne.w	8006166 <_dtoa_r+0x4de>
 800605c:	2b00      	cmp	r3, #0
 800605e:	d1d2      	bne.n	8006006 <_dtoa_r+0x37e>
 8006060:	9b0e      	ldr	r3, [sp, #56]	; 0x38
 8006062:	2b00      	cmp	r3, #0
 8006064:	f000 808c 	beq.w	8006180 <_dtoa_r+0x4f8>
 8006068:	e9dd 6702 	ldrd	r6, r7, [sp, #8]
 800606c:	4b99      	ldr	r3, [pc, #612]	; (80062d4 <_dtoa_r+0x64c>)
 800606e:	2200      	movs	r2, #0
 8006070:	4630      	mov	r0, r6
 8006072:	4639      	mov	r1, r7
 8006074:	f7fa fd4a 	bl	8000b0c <__aeabi_dcmplt>
 8006078:	2800      	cmp	r0, #0
 800607a:	f000 8081 	beq.w	8006180 <_dtoa_r+0x4f8>
 800607e:	9b01      	ldr	r3, [sp, #4]
 8006080:	2b00      	cmp	r3, #0
 8006082:	d07d      	beq.n	8006180 <_dtoa_r+0x4f8>
 8006084:	f1b9 0f00 	cmp.w	r9, #0
 8006088:	dd3c      	ble.n	8006104 <_dtoa_r+0x47c>
 800608a:	f10a 33ff 	add.w	r3, sl, #4294967295
 800608e:	9307      	str	r3, [sp, #28]
 8006090:	2200      	movs	r2, #0
 8006092:	4b91      	ldr	r3, [pc, #580]	; (80062d8 <_dtoa_r+0x650>)
 8006094:	4630      	mov	r0, r6
 8006096:	4639      	mov	r1, r7
 8006098:	f7fa fac6 	bl	8000628 <__aeabi_dmul>
 800609c:	e9cd 0102 	strd	r0, r1, [sp, #8]
 80060a0:	3501      	adds	r5, #1
 80060a2:	f8cd 9030 	str.w	r9, [sp, #48]	; 0x30
 80060a6:	e9dd 6702 	ldrd	r6, r7, [sp, #8]
 80060aa:	4628      	mov	r0, r5
 80060ac:	f7fa fa52 	bl	8000554 <__aeabi_i2d>
 80060b0:	4632      	mov	r2, r6
 80060b2:	463b      	mov	r3, r7
 80060b4:	f7fa fab8 	bl	8000628 <__aeabi_dmul>
 80060b8:	4b88      	ldr	r3, [pc, #544]	; (80062dc <_dtoa_r+0x654>)
 80060ba:	2200      	movs	r2, #0
 80060bc:	f7fa f8fe 	bl	80002bc <__adddf3>
 80060c0:	f1a1 7350 	sub.w	r3, r1, #54525952	; 0x3400000
 80060c4:	e9cd 0102 	strd	r0, r1, [sp, #8]
 80060c8:	9303      	str	r3, [sp, #12]
 80060ca:	9b0c      	ldr	r3, [sp, #48]	; 0x30
 80060cc:	2b00      	cmp	r3, #0
 80060ce:	d15c      	bne.n	800618a <_dtoa_r+0x502>
 80060d0:	4b83      	ldr	r3, [pc, #524]	; (80062e0 <_dtoa_r+0x658>)
 80060d2:	2200      	movs	r2, #0
 80060d4:	4630      	mov	r0, r6
 80060d6:	4639      	mov	r1, r7
 80060d8:	f7fa f8ee 	bl	80002b8 <__aeabi_dsub>
 80060dc:	e9dd 2302 	ldrd	r2, r3, [sp, #8]
 80060e0:	4606      	mov	r6, r0
 80060e2:	460f      	mov	r7, r1
 80060e4:	f7fa fd30 	bl	8000b48 <__aeabi_dcmpgt>
 80060e8:	2800      	cmp	r0, #0
 80060ea:	f040 8296 	bne.w	800661a <_dtoa_r+0x992>
 80060ee:	e9dd 2102 	ldrd	r2, r1, [sp, #8]
 80060f2:	4630      	mov	r0, r6
 80060f4:	f101 4300 	add.w	r3, r1, #2147483648	; 0x80000000
 80060f8:	4639      	mov	r1, r7
 80060fa:	f7fa fd07 	bl	8000b0c <__aeabi_dcmplt>
 80060fe:	2800      	cmp	r0, #0
 8006100:	f040 8288 	bne.w	8006614 <_dtoa_r+0x98c>
 8006104:	e9dd 230a 	ldrd	r2, r3, [sp, #40]	; 0x28
 8006108:	e9cd 2302 	strd	r2, r3, [sp, #8]
 800610c:	9b13      	ldr	r3, [sp, #76]	; 0x4c
 800610e:	2b00      	cmp	r3, #0
 8006110:	f2c0 8158 	blt.w	80063c4 <_dtoa_r+0x73c>
 8006114:	f1ba 0f0e 	cmp.w	sl, #14
 8006118:	f300 8154 	bgt.w	80063c4 <_dtoa_r+0x73c>
 800611c:	4b6b      	ldr	r3, [pc, #428]	; (80062cc <_dtoa_r+0x644>)
 800611e:	eb03 03ca 	add.w	r3, r3, sl, lsl #3
 8006122:	e9d3 8900 	ldrd	r8, r9, [r3]
 8006126:	9b09      	ldr	r3, [sp, #36]	; 0x24
 8006128:	2b00      	cmp	r3, #0
 800612a:	f280 80e3 	bge.w	80062f4 <_dtoa_r+0x66c>
 800612e:	9b01      	ldr	r3, [sp, #4]
 8006130:	2b00      	cmp	r3, #0
 8006132:	f300 80df 	bgt.w	80062f4 <_dtoa_r+0x66c>
 8006136:	f040 826d 	bne.w	8006614 <_dtoa_r+0x98c>
 800613a:	4b69      	ldr	r3, [pc, #420]	; (80062e0 <_dtoa_r+0x658>)
 800613c:	2200      	movs	r2, #0
 800613e:	4640      	mov	r0, r8
 8006140:	4649      	mov	r1, r9
 8006142:	f7fa fa71 	bl	8000628 <__aeabi_dmul>
 8006146:	e9dd 2302 	ldrd	r2, r3, [sp, #8]
 800614a:	f7fa fcf3 	bl	8000b34 <__aeabi_dcmpge>
 800614e:	9e01      	ldr	r6, [sp, #4]
 8006150:	4637      	mov	r7, r6
 8006152:	2800      	cmp	r0, #0
 8006154:	f040 8243 	bne.w	80065de <_dtoa_r+0x956>
 8006158:	9d00      	ldr	r5, [sp, #0]
 800615a:	2331      	movs	r3, #49	; 0x31
 800615c:	f805 3b01 	strb.w	r3, [r5], #1
 8006160:	f10a 0a01 	add.w	sl, sl, #1
 8006164:	e23f      	b.n	80065e6 <_dtoa_r+0x95e>
 8006166:	07f2      	lsls	r2, r6, #31
 8006168:	d505      	bpl.n	8006176 <_dtoa_r+0x4ee>
 800616a:	e9d7 2300 	ldrd	r2, r3, [r7]
 800616e:	f7fa fa5b 	bl	8000628 <__aeabi_dmul>
 8006172:	3501      	adds	r5, #1
 8006174:	2301      	movs	r3, #1
 8006176:	1076      	asrs	r6, r6, #1
 8006178:	3708      	adds	r7, #8
 800617a:	e76c      	b.n	8006056 <_dtoa_r+0x3ce>
 800617c:	2502      	movs	r5, #2
 800617e:	e76f      	b.n	8006060 <_dtoa_r+0x3d8>
 8006180:	9b01      	ldr	r3, [sp, #4]
 8006182:	f8cd a01c 	str.w	sl, [sp, #28]
 8006186:	930c      	str	r3, [sp, #48]	; 0x30
 8006188:	e78d      	b.n	80060a6 <_dtoa_r+0x41e>
 800618a:	9900      	ldr	r1, [sp, #0]
 800618c:	980c      	ldr	r0, [sp, #48]	; 0x30
 800618e:	9a0c      	ldr	r2, [sp, #48]	; 0x30
 8006190:	4b4e      	ldr	r3, [pc, #312]	; (80062cc <_dtoa_r+0x644>)
 8006192:	ed9d 7b02 	vldr	d7, [sp, #8]
 8006196:	4401      	add	r1, r0
 8006198:	9102      	str	r1, [sp, #8]
 800619a:	9908      	ldr	r1, [sp, #32]
 800619c:	eeb0 8a47 	vmov.f32	s16, s14
 80061a0:	eef0 8a67 	vmov.f32	s17, s15
 80061a4:	eb03 03c2 	add.w	r3, r3, r2, lsl #3
 80061a8:	e953 2302 	ldrd	r2, r3, [r3, #-8]
 80061ac:	2900      	cmp	r1, #0
 80061ae:	d045      	beq.n	800623c <_dtoa_r+0x5b4>
 80061b0:	494c      	ldr	r1, [pc, #304]	; (80062e4 <_dtoa_r+0x65c>)
 80061b2:	2000      	movs	r0, #0
 80061b4:	f7fa fb62 	bl	800087c <__aeabi_ddiv>
 80061b8:	ec53 2b18 	vmov	r2, r3, d8
 80061bc:	f7fa f87c 	bl	80002b8 <__aeabi_dsub>
 80061c0:	9d00      	ldr	r5, [sp, #0]
 80061c2:	ec41 0b18 	vmov	d8, r0, r1
 80061c6:	4639      	mov	r1, r7
 80061c8:	4630      	mov	r0, r6
 80061ca:	f7fa fcdd 	bl	8000b88 <__aeabi_d2iz>
 80061ce:	900c      	str	r0, [sp, #48]	; 0x30
 80061d0:	f7fa f9c0 	bl	8000554 <__aeabi_i2d>
 80061d4:	4602      	mov	r2, r0
 80061d6:	460b      	mov	r3, r1
 80061d8:	4630      	mov	r0, r6
 80061da:	4639      	mov	r1, r7
 80061dc:	f7fa f86c 	bl	80002b8 <__aeabi_dsub>
 80061e0:	9b0c      	ldr	r3, [sp, #48]	; 0x30
 80061e2:	3330      	adds	r3, #48	; 0x30
 80061e4:	f805 3b01 	strb.w	r3, [r5], #1
 80061e8:	ec53 2b18 	vmov	r2, r3, d8
 80061ec:	4606      	mov	r6, r0
 80061ee:	460f      	mov	r7, r1
 80061f0:	f7fa fc8c 	bl	8000b0c <__aeabi_dcmplt>
 80061f4:	2800      	cmp	r0, #0
 80061f6:	d165      	bne.n	80062c4 <_dtoa_r+0x63c>
 80061f8:	4632      	mov	r2, r6
 80061fa:	463b      	mov	r3, r7
 80061fc:	4935      	ldr	r1, [pc, #212]	; (80062d4 <_dtoa_r+0x64c>)
 80061fe:	2000      	movs	r0, #0
 8006200:	f7fa f85a 	bl	80002b8 <__aeabi_dsub>
 8006204:	ec53 2b18 	vmov	r2, r3, d8
 8006208:	f7fa fc80 	bl	8000b0c <__aeabi_dcmplt>
 800620c:	2800      	cmp	r0, #0
 800620e:	f040 80b9 	bne.w	8006384 <_dtoa_r+0x6fc>
 8006212:	9b02      	ldr	r3, [sp, #8]
 8006214:	429d      	cmp	r5, r3
 8006216:	f43f af75 	beq.w	8006104 <_dtoa_r+0x47c>
 800621a:	4b2f      	ldr	r3, [pc, #188]	; (80062d8 <_dtoa_r+0x650>)
 800621c:	ec51 0b18 	vmov	r0, r1, d8
 8006220:	2200      	movs	r2, #0
 8006222:	f7fa fa01 	bl	8000628 <__aeabi_dmul>
 8006226:	4b2c      	ldr	r3, [pc, #176]	; (80062d8 <_dtoa_r+0x650>)
 8006228:	ec41 0b18 	vmov	d8, r0, r1
 800622c:	2200      	movs	r2, #0
 800622e:	4630      	mov	r0, r6
 8006230:	4639      	mov	r1, r7
 8006232:	f7fa f9f9 	bl	8000628 <__aeabi_dmul>
 8006236:	4606      	mov	r6, r0
 8006238:	460f      	mov	r7, r1
 800623a:	e7c4      	b.n	80061c6 <_dtoa_r+0x53e>
 800623c:	ec51 0b17 	vmov	r0, r1, d7
 8006240:	f7fa f9f2 	bl	8000628 <__aeabi_dmul>
 8006244:	9b02      	ldr	r3, [sp, #8]
 8006246:	9d00      	ldr	r5, [sp, #0]
 8006248:	930c      	str	r3, [sp, #48]	; 0x30
 800624a:	ec41 0b18 	vmov	d8, r0, r1
 800624e:	4639      	mov	r1, r7
 8006250:	4630      	mov	r0, r6
 8006252:	f7fa fc99 	bl	8000b88 <__aeabi_d2iz>
 8006256:	9011      	str	r0, [sp, #68]	; 0x44
 8006258:	f7fa f97c 	bl	8000554 <__aeabi_i2d>
 800625c:	4602      	mov	r2, r0
 800625e:	460b      	mov	r3, r1
 8006260:	4630      	mov	r0, r6
 8006262:	4639      	mov	r1, r7
 8006264:	f7fa f828 	bl	80002b8 <__aeabi_dsub>
 8006268:	9b11      	ldr	r3, [sp, #68]	; 0x44
 800626a:	3330      	adds	r3, #48	; 0x30
 800626c:	f805 3b01 	strb.w	r3, [r5], #1
 8006270:	9b02      	ldr	r3, [sp, #8]
 8006272:	429d      	cmp	r5, r3
 8006274:	4606      	mov	r6, r0
 8006276:	460f      	mov	r7, r1
 8006278:	f04f 0200 	mov.w	r2, #0
 800627c:	d134      	bne.n	80062e8 <_dtoa_r+0x660>
 800627e:	4b19      	ldr	r3, [pc, #100]	; (80062e4 <_dtoa_r+0x65c>)
 8006280:	ec51 0b18 	vmov	r0, r1, d8
 8006284:	f7fa f81a 	bl	80002bc <__adddf3>
 8006288:	4602      	mov	r2, r0
 800628a:	460b      	mov	r3, r1
 800628c:	4630      	mov	r0, r6
 800628e:	4639      	mov	r1, r7
 8006290:	f7fa fc5a 	bl	8000b48 <__aeabi_dcmpgt>
 8006294:	2800      	cmp	r0, #0
 8006296:	d175      	bne.n	8006384 <_dtoa_r+0x6fc>
 8006298:	ec53 2b18 	vmov	r2, r3, d8
 800629c:	4911      	ldr	r1, [pc, #68]	; (80062e4 <_dtoa_r+0x65c>)
 800629e:	2000      	movs	r0, #0
 80062a0:	f7fa f80a 	bl	80002b8 <__aeabi_dsub>
 80062a4:	4602      	mov	r2, r0
 80062a6:	460b      	mov	r3, r1
 80062a8:	4630      	mov	r0, r6
 80062aa:	4639      	mov	r1, r7
 80062ac:	f7fa fc2e 	bl	8000b0c <__aeabi_dcmplt>
 80062b0:	2800      	cmp	r0, #0
 80062b2:	f43f af27 	beq.w	8006104 <_dtoa_r+0x47c>
 80062b6:	9d0c      	ldr	r5, [sp, #48]	; 0x30
 80062b8:	1e6b      	subs	r3, r5, #1
 80062ba:	930c      	str	r3, [sp, #48]	; 0x30
 80062bc:	f815 3c01 	ldrb.w	r3, [r5, #-1]
 80062c0:	2b30      	cmp	r3, #48	; 0x30
 80062c2:	d0f8      	beq.n	80062b6 <_dtoa_r+0x62e>
 80062c4:	f8dd a01c 	ldr.w	sl, [sp, #28]
 80062c8:	e04a      	b.n	8006360 <_dtoa_r+0x6d8>
 80062ca:	bf00      	nop
 80062cc:	0803a480 	.word	0x0803a480
 80062d0:	0803a458 	.word	0x0803a458
 80062d4:	3ff00000 	.word	0x3ff00000
 80062d8:	40240000 	.word	0x40240000
 80062dc:	401c0000 	.word	0x401c0000
 80062e0:	40140000 	.word	0x40140000
 80062e4:	3fe00000 	.word	0x3fe00000
 80062e8:	4baf      	ldr	r3, [pc, #700]	; (80065a8 <_dtoa_r+0x920>)
 80062ea:	f7fa f99d 	bl	8000628 <__aeabi_dmul>
 80062ee:	4606      	mov	r6, r0
 80062f0:	460f      	mov	r7, r1
 80062f2:	e7ac      	b.n	800624e <_dtoa_r+0x5c6>
 80062f4:	e9dd 6702 	ldrd	r6, r7, [sp, #8]
 80062f8:	9d00      	ldr	r5, [sp, #0]
 80062fa:	4642      	mov	r2, r8
 80062fc:	464b      	mov	r3, r9
 80062fe:	4630      	mov	r0, r6
 8006300:	4639      	mov	r1, r7
 8006302:	f7fa fabb 	bl	800087c <__aeabi_ddiv>
 8006306:	f7fa fc3f 	bl	8000b88 <__aeabi_d2iz>
 800630a:	9002      	str	r0, [sp, #8]
 800630c:	f7fa f922 	bl	8000554 <__aeabi_i2d>
 8006310:	4642      	mov	r2, r8
 8006312:	464b      	mov	r3, r9
 8006314:	f7fa f988 	bl	8000628 <__aeabi_dmul>
 8006318:	4602      	mov	r2, r0
 800631a:	460b      	mov	r3, r1
 800631c:	4630      	mov	r0, r6
 800631e:	4639      	mov	r1, r7
 8006320:	f7f9 ffca 	bl	80002b8 <__aeabi_dsub>
 8006324:	9e02      	ldr	r6, [sp, #8]
 8006326:	9f01      	ldr	r7, [sp, #4]
 8006328:	3630      	adds	r6, #48	; 0x30
 800632a:	f805 6b01 	strb.w	r6, [r5], #1
 800632e:	9e00      	ldr	r6, [sp, #0]
 8006330:	1bae      	subs	r6, r5, r6
 8006332:	42b7      	cmp	r7, r6
 8006334:	4602      	mov	r2, r0
 8006336:	460b      	mov	r3, r1
 8006338:	d137      	bne.n	80063aa <_dtoa_r+0x722>
 800633a:	f7f9 ffbf 	bl	80002bc <__adddf3>
 800633e:	4642      	mov	r2, r8
 8006340:	464b      	mov	r3, r9
 8006342:	4606      	mov	r6, r0
 8006344:	460f      	mov	r7, r1
 8006346:	f7fa fbff 	bl	8000b48 <__aeabi_dcmpgt>
 800634a:	b9c8      	cbnz	r0, 8006380 <_dtoa_r+0x6f8>
 800634c:	4642      	mov	r2, r8
 800634e:	464b      	mov	r3, r9
 8006350:	4630      	mov	r0, r6
 8006352:	4639      	mov	r1, r7
 8006354:	f7fa fbd0 	bl	8000af8 <__aeabi_dcmpeq>
 8006358:	b110      	cbz	r0, 8006360 <_dtoa_r+0x6d8>
 800635a:	9b02      	ldr	r3, [sp, #8]
 800635c:	07d9      	lsls	r1, r3, #31
 800635e:	d40f      	bmi.n	8006380 <_dtoa_r+0x6f8>
 8006360:	4620      	mov	r0, r4
 8006362:	4659      	mov	r1, fp
 8006364:	f000 facc 	bl	8006900 <_Bfree>
 8006368:	2300      	movs	r3, #0
 800636a:	702b      	strb	r3, [r5, #0]
 800636c:	9b0f      	ldr	r3, [sp, #60]	; 0x3c
 800636e:	f10a 0001 	add.w	r0, sl, #1
 8006372:	6018      	str	r0, [r3, #0]
 8006374:	9b21      	ldr	r3, [sp, #132]	; 0x84
 8006376:	2b00      	cmp	r3, #0
 8006378:	f43f acd8 	beq.w	8005d2c <_dtoa_r+0xa4>
 800637c:	601d      	str	r5, [r3, #0]
 800637e:	e4d5      	b.n	8005d2c <_dtoa_r+0xa4>
 8006380:	f8cd a01c 	str.w	sl, [sp, #28]
 8006384:	462b      	mov	r3, r5
 8006386:	461d      	mov	r5, r3
 8006388:	f813 2d01 	ldrb.w	r2, [r3, #-1]!
 800638c:	2a39      	cmp	r2, #57	; 0x39
 800638e:	d108      	bne.n	80063a2 <_dtoa_r+0x71a>
 8006390:	9a00      	ldr	r2, [sp, #0]
 8006392:	429a      	cmp	r2, r3
 8006394:	d1f7      	bne.n	8006386 <_dtoa_r+0x6fe>
 8006396:	9a07      	ldr	r2, [sp, #28]
 8006398:	9900      	ldr	r1, [sp, #0]
 800639a:	3201      	adds	r2, #1
 800639c:	9207      	str	r2, [sp, #28]
 800639e:	2230      	movs	r2, #48	; 0x30
 80063a0:	700a      	strb	r2, [r1, #0]
 80063a2:	781a      	ldrb	r2, [r3, #0]
 80063a4:	3201      	adds	r2, #1
 80063a6:	701a      	strb	r2, [r3, #0]
 80063a8:	e78c      	b.n	80062c4 <_dtoa_r+0x63c>
 80063aa:	4b7f      	ldr	r3, [pc, #508]	; (80065a8 <_dtoa_r+0x920>)
 80063ac:	2200      	movs	r2, #0
 80063ae:	f7fa f93b 	bl	8000628 <__aeabi_dmul>
 80063b2:	2200      	movs	r2, #0
 80063b4:	2300      	movs	r3, #0
 80063b6:	4606      	mov	r6, r0
 80063b8:	460f      	mov	r7, r1
 80063ba:	f7fa fb9d 	bl	8000af8 <__aeabi_dcmpeq>
 80063be:	2800      	cmp	r0, #0
 80063c0:	d09b      	beq.n	80062fa <_dtoa_r+0x672>
 80063c2:	e7cd      	b.n	8006360 <_dtoa_r+0x6d8>
 80063c4:	9a08      	ldr	r2, [sp, #32]
 80063c6:	2a00      	cmp	r2, #0
 80063c8:	f000 80c4 	beq.w	8006554 <_dtoa_r+0x8cc>
 80063cc:	9a05      	ldr	r2, [sp, #20]
 80063ce:	2a01      	cmp	r2, #1
 80063d0:	f300 80a8 	bgt.w	8006524 <_dtoa_r+0x89c>
 80063d4:	9a10      	ldr	r2, [sp, #64]	; 0x40
 80063d6:	2a00      	cmp	r2, #0
 80063d8:	f000 80a0 	beq.w	800651c <_dtoa_r+0x894>
 80063dc:	f203 4333 	addw	r3, r3, #1075	; 0x433
 80063e0:	9e06      	ldr	r6, [sp, #24]
 80063e2:	4645      	mov	r5, r8
 80063e4:	9a04      	ldr	r2, [sp, #16]
 80063e6:	2101      	movs	r1, #1
 80063e8:	441a      	add	r2, r3
 80063ea:	4620      	mov	r0, r4
 80063ec:	4498      	add	r8, r3
 80063ee:	9204      	str	r2, [sp, #16]
 80063f0:	f000 fb42 	bl	8006a78 <__i2b>
 80063f4:	4607      	mov	r7, r0
 80063f6:	2d00      	cmp	r5, #0
 80063f8:	dd0b      	ble.n	8006412 <_dtoa_r+0x78a>
 80063fa:	9b04      	ldr	r3, [sp, #16]
 80063fc:	2b00      	cmp	r3, #0
 80063fe:	dd08      	ble.n	8006412 <_dtoa_r+0x78a>
 8006400:	42ab      	cmp	r3, r5
 8006402:	9a04      	ldr	r2, [sp, #16]
 8006404:	bfa8      	it	ge
 8006406:	462b      	movge	r3, r5
 8006408:	eba8 0803 	sub.w	r8, r8, r3
 800640c:	1aed      	subs	r5, r5, r3
 800640e:	1ad3      	subs	r3, r2, r3
 8006410:	9304      	str	r3, [sp, #16]
 8006412:	9b06      	ldr	r3, [sp, #24]
 8006414:	b1fb      	cbz	r3, 8006456 <_dtoa_r+0x7ce>
 8006416:	9b08      	ldr	r3, [sp, #32]
 8006418:	2b00      	cmp	r3, #0
 800641a:	f000 809f 	beq.w	800655c <_dtoa_r+0x8d4>
 800641e:	2e00      	cmp	r6, #0
 8006420:	dd11      	ble.n	8006446 <_dtoa_r+0x7be>
 8006422:	4639      	mov	r1, r7
 8006424:	4632      	mov	r2, r6
 8006426:	4620      	mov	r0, r4
 8006428:	f000 fbe2 	bl	8006bf0 <__pow5mult>
 800642c:	465a      	mov	r2, fp
 800642e:	4601      	mov	r1, r0
 8006430:	4607      	mov	r7, r0
 8006432:	4620      	mov	r0, r4
 8006434:	f000 fb36 	bl	8006aa4 <__multiply>
 8006438:	4659      	mov	r1, fp
 800643a:	9007      	str	r0, [sp, #28]
 800643c:	4620      	mov	r0, r4
 800643e:	f000 fa5f 	bl	8006900 <_Bfree>
 8006442:	9b07      	ldr	r3, [sp, #28]
 8006444:	469b      	mov	fp, r3
 8006446:	9b06      	ldr	r3, [sp, #24]
 8006448:	1b9a      	subs	r2, r3, r6
 800644a:	d004      	beq.n	8006456 <_dtoa_r+0x7ce>
 800644c:	4659      	mov	r1, fp
 800644e:	4620      	mov	r0, r4
 8006450:	f000 fbce 	bl	8006bf0 <__pow5mult>
 8006454:	4683      	mov	fp, r0
 8006456:	2101      	movs	r1, #1
 8006458:	4620      	mov	r0, r4
 800645a:	f000 fb0d 	bl	8006a78 <__i2b>
 800645e:	9b0d      	ldr	r3, [sp, #52]	; 0x34
 8006460:	2b00      	cmp	r3, #0
 8006462:	4606      	mov	r6, r0
 8006464:	dd7c      	ble.n	8006560 <_dtoa_r+0x8d8>
 8006466:	461a      	mov	r2, r3
 8006468:	4601      	mov	r1, r0
 800646a:	4620      	mov	r0, r4
 800646c:	f000 fbc0 	bl	8006bf0 <__pow5mult>
 8006470:	9b05      	ldr	r3, [sp, #20]
 8006472:	2b01      	cmp	r3, #1
 8006474:	4606      	mov	r6, r0
 8006476:	dd76      	ble.n	8006566 <_dtoa_r+0x8de>
 8006478:	2300      	movs	r3, #0
 800647a:	9306      	str	r3, [sp, #24]
 800647c:	6933      	ldr	r3, [r6, #16]
 800647e:	eb06 0383 	add.w	r3, r6, r3, lsl #2
 8006482:	6918      	ldr	r0, [r3, #16]
 8006484:	f000 faa8 	bl	80069d8 <__hi0bits>
 8006488:	f1c0 0020 	rsb	r0, r0, #32
 800648c:	9b04      	ldr	r3, [sp, #16]
 800648e:	4418      	add	r0, r3
 8006490:	f010 001f 	ands.w	r0, r0, #31
 8006494:	f000 8086 	beq.w	80065a4 <_dtoa_r+0x91c>
 8006498:	f1c0 0320 	rsb	r3, r0, #32
 800649c:	2b04      	cmp	r3, #4
 800649e:	dd7f      	ble.n	80065a0 <_dtoa_r+0x918>
 80064a0:	f1c0 001c 	rsb	r0, r0, #28
 80064a4:	9b04      	ldr	r3, [sp, #16]
 80064a6:	4403      	add	r3, r0
 80064a8:	4480      	add	r8, r0
 80064aa:	4405      	add	r5, r0
 80064ac:	9304      	str	r3, [sp, #16]
 80064ae:	f1b8 0f00 	cmp.w	r8, #0
 80064b2:	dd05      	ble.n	80064c0 <_dtoa_r+0x838>
 80064b4:	4659      	mov	r1, fp
 80064b6:	4642      	mov	r2, r8
 80064b8:	4620      	mov	r0, r4
 80064ba:	f000 fbf3 	bl	8006ca4 <__lshift>
 80064be:	4683      	mov	fp, r0
 80064c0:	9b04      	ldr	r3, [sp, #16]
 80064c2:	2b00      	cmp	r3, #0
 80064c4:	dd05      	ble.n	80064d2 <_dtoa_r+0x84a>
 80064c6:	4631      	mov	r1, r6
 80064c8:	461a      	mov	r2, r3
 80064ca:	4620      	mov	r0, r4
 80064cc:	f000 fbea 	bl	8006ca4 <__lshift>
 80064d0:	4606      	mov	r6, r0
 80064d2:	9b0e      	ldr	r3, [sp, #56]	; 0x38
 80064d4:	2b00      	cmp	r3, #0
 80064d6:	d069      	beq.n	80065ac <_dtoa_r+0x924>
 80064d8:	4631      	mov	r1, r6
 80064da:	4658      	mov	r0, fp
 80064dc:	f000 fc4e 	bl	8006d7c <__mcmp>
 80064e0:	2800      	cmp	r0, #0
 80064e2:	da63      	bge.n	80065ac <_dtoa_r+0x924>
 80064e4:	2300      	movs	r3, #0
 80064e6:	4659      	mov	r1, fp
 80064e8:	220a      	movs	r2, #10
 80064ea:	4620      	mov	r0, r4
 80064ec:	f000 fa2a 	bl	8006944 <__multadd>
 80064f0:	9b08      	ldr	r3, [sp, #32]
 80064f2:	f10a 3aff 	add.w	sl, sl, #4294967295
 80064f6:	4683      	mov	fp, r0
 80064f8:	2b00      	cmp	r3, #0
 80064fa:	f000 818f 	beq.w	800681c <_dtoa_r+0xb94>
 80064fe:	4639      	mov	r1, r7
 8006500:	2300      	movs	r3, #0
 8006502:	220a      	movs	r2, #10
 8006504:	4620      	mov	r0, r4
 8006506:	f000 fa1d 	bl	8006944 <__multadd>
 800650a:	f1b9 0f00 	cmp.w	r9, #0
 800650e:	4607      	mov	r7, r0
 8006510:	f300 808e 	bgt.w	8006630 <_dtoa_r+0x9a8>
 8006514:	9b05      	ldr	r3, [sp, #20]
 8006516:	2b02      	cmp	r3, #2
 8006518:	dc50      	bgt.n	80065bc <_dtoa_r+0x934>
 800651a:	e089      	b.n	8006630 <_dtoa_r+0x9a8>
 800651c:	9b12      	ldr	r3, [sp, #72]	; 0x48
 800651e:	f1c3 0336 	rsb	r3, r3, #54	; 0x36
 8006522:	e75d      	b.n	80063e0 <_dtoa_r+0x758>
 8006524:	9b01      	ldr	r3, [sp, #4]
 8006526:	1e5e      	subs	r6, r3, #1
 8006528:	9b06      	ldr	r3, [sp, #24]
 800652a:	42b3      	cmp	r3, r6
 800652c:	bfbf      	itttt	lt
 800652e:	9b06      	ldrlt	r3, [sp, #24]
 8006530:	9606      	strlt	r6, [sp, #24]
 8006532:	1af2      	sublt	r2, r6, r3
 8006534:	9b0d      	ldrlt	r3, [sp, #52]	; 0x34
 8006536:	bfb6      	itet	lt
 8006538:	189b      	addlt	r3, r3, r2
 800653a:	1b9e      	subge	r6, r3, r6
 800653c:	930d      	strlt	r3, [sp, #52]	; 0x34
 800653e:	9b01      	ldr	r3, [sp, #4]
 8006540:	bfb8      	it	lt
 8006542:	2600      	movlt	r6, #0
 8006544:	2b00      	cmp	r3, #0
 8006546:	bfb5      	itete	lt
 8006548:	eba8 0503 	sublt.w	r5, r8, r3
 800654c:	9b01      	ldrge	r3, [sp, #4]
 800654e:	2300      	movlt	r3, #0
 8006550:	4645      	movge	r5, r8
 8006552:	e747      	b.n	80063e4 <_dtoa_r+0x75c>
 8006554:	9e06      	ldr	r6, [sp, #24]
 8006556:	9f08      	ldr	r7, [sp, #32]
 8006558:	4645      	mov	r5, r8
 800655a:	e74c      	b.n	80063f6 <_dtoa_r+0x76e>
 800655c:	9a06      	ldr	r2, [sp, #24]
 800655e:	e775      	b.n	800644c <_dtoa_r+0x7c4>
 8006560:	9b05      	ldr	r3, [sp, #20]
 8006562:	2b01      	cmp	r3, #1
 8006564:	dc18      	bgt.n	8006598 <_dtoa_r+0x910>
 8006566:	9b02      	ldr	r3, [sp, #8]
 8006568:	b9b3      	cbnz	r3, 8006598 <_dtoa_r+0x910>
 800656a:	9b03      	ldr	r3, [sp, #12]
 800656c:	f3c3 0313 	ubfx	r3, r3, #0, #20
 8006570:	b9a3      	cbnz	r3, 800659c <_dtoa_r+0x914>
 8006572:	9b03      	ldr	r3, [sp, #12]
 8006574:	f023 4300 	bic.w	r3, r3, #2147483648	; 0x80000000
 8006578:	0d1b      	lsrs	r3, r3, #20
 800657a:	051b      	lsls	r3, r3, #20
 800657c:	b12b      	cbz	r3, 800658a <_dtoa_r+0x902>
 800657e:	9b04      	ldr	r3, [sp, #16]
 8006580:	3301      	adds	r3, #1
 8006582:	9304      	str	r3, [sp, #16]
 8006584:	f108 0801 	add.w	r8, r8, #1
 8006588:	2301      	movs	r3, #1
 800658a:	9306      	str	r3, [sp, #24]
 800658c:	9b0d      	ldr	r3, [sp, #52]	; 0x34
 800658e:	2b00      	cmp	r3, #0
 8006590:	f47f af74 	bne.w	800647c <_dtoa_r+0x7f4>
 8006594:	2001      	movs	r0, #1
 8006596:	e779      	b.n	800648c <_dtoa_r+0x804>
 8006598:	2300      	movs	r3, #0
 800659a:	e7f6      	b.n	800658a <_dtoa_r+0x902>
 800659c:	9b02      	ldr	r3, [sp, #8]
 800659e:	e7f4      	b.n	800658a <_dtoa_r+0x902>
 80065a0:	d085      	beq.n	80064ae <_dtoa_r+0x826>
 80065a2:	4618      	mov	r0, r3
 80065a4:	301c      	adds	r0, #28
 80065a6:	e77d      	b.n	80064a4 <_dtoa_r+0x81c>
 80065a8:	40240000 	.word	0x40240000
 80065ac:	9b01      	ldr	r3, [sp, #4]
 80065ae:	2b00      	cmp	r3, #0
 80065b0:	dc38      	bgt.n	8006624 <_dtoa_r+0x99c>
 80065b2:	9b05      	ldr	r3, [sp, #20]
 80065b4:	2b02      	cmp	r3, #2
 80065b6:	dd35      	ble.n	8006624 <_dtoa_r+0x99c>
 80065b8:	f8dd 9004 	ldr.w	r9, [sp, #4]
 80065bc:	f1b9 0f00 	cmp.w	r9, #0
 80065c0:	d10d      	bne.n	80065de <_dtoa_r+0x956>
 80065c2:	4631      	mov	r1, r6
 80065c4:	464b      	mov	r3, r9
 80065c6:	2205      	movs	r2, #5
 80065c8:	4620      	mov	r0, r4
 80065ca:	f000 f9bb 	bl	8006944 <__multadd>
 80065ce:	4601      	mov	r1, r0
 80065d0:	4606      	mov	r6, r0
 80065d2:	4658      	mov	r0, fp
 80065d4:	f000 fbd2 	bl	8006d7c <__mcmp>
 80065d8:	2800      	cmp	r0, #0
 80065da:	f73f adbd 	bgt.w	8006158 <_dtoa_r+0x4d0>
 80065de:	9b09      	ldr	r3, [sp, #36]	; 0x24
 80065e0:	9d00      	ldr	r5, [sp, #0]
 80065e2:	ea6f 0a03 	mvn.w	sl, r3
 80065e6:	f04f 0800 	mov.w	r8, #0
 80065ea:	4631      	mov	r1, r6
 80065ec:	4620      	mov	r0, r4
 80065ee:	f000 f987 	bl	8006900 <_Bfree>
 80065f2:	2f00      	cmp	r7, #0
 80065f4:	f43f aeb4 	beq.w	8006360 <_dtoa_r+0x6d8>
 80065f8:	f1b8 0f00 	cmp.w	r8, #0
 80065fc:	d005      	beq.n	800660a <_dtoa_r+0x982>
 80065fe:	45b8      	cmp	r8, r7
 8006600:	d003      	beq.n	800660a <_dtoa_r+0x982>
 8006602:	4641      	mov	r1, r8
 8006604:	4620      	mov	r0, r4
 8006606:	f000 f97b 	bl	8006900 <_Bfree>
 800660a:	4639      	mov	r1, r7
 800660c:	4620      	mov	r0, r4
 800660e:	f000 f977 	bl	8006900 <_Bfree>
 8006612:	e6a5      	b.n	8006360 <_dtoa_r+0x6d8>
 8006614:	2600      	movs	r6, #0
 8006616:	4637      	mov	r7, r6
 8006618:	e7e1      	b.n	80065de <_dtoa_r+0x956>
 800661a:	9e0c      	ldr	r6, [sp, #48]	; 0x30
 800661c:	f8dd a01c 	ldr.w	sl, [sp, #28]
 8006620:	4637      	mov	r7, r6
 8006622:	e599      	b.n	8006158 <_dtoa_r+0x4d0>
 8006624:	9b08      	ldr	r3, [sp, #32]
 8006626:	f8dd 9004 	ldr.w	r9, [sp, #4]
 800662a:	2b00      	cmp	r3, #0
 800662c:	f000 80fd 	beq.w	800682a <_dtoa_r+0xba2>
 8006630:	2d00      	cmp	r5, #0
 8006632:	dd05      	ble.n	8006640 <_dtoa_r+0x9b8>
 8006634:	4639      	mov	r1, r7
 8006636:	462a      	mov	r2, r5
 8006638:	4620      	mov	r0, r4
 800663a:	f000 fb33 	bl	8006ca4 <__lshift>
 800663e:	4607      	mov	r7, r0
 8006640:	9b06      	ldr	r3, [sp, #24]
 8006642:	2b00      	cmp	r3, #0
 8006644:	d05c      	beq.n	8006700 <_dtoa_r+0xa78>
 8006646:	6879      	ldr	r1, [r7, #4]
 8006648:	4620      	mov	r0, r4
 800664a:	f000 f919 	bl	8006880 <_Balloc>
 800664e:	4605      	mov	r5, r0
 8006650:	b928      	cbnz	r0, 800665e <_dtoa_r+0x9d6>
 8006652:	4b80      	ldr	r3, [pc, #512]	; (8006854 <_dtoa_r+0xbcc>)
 8006654:	4602      	mov	r2, r0
 8006656:	f240 21ea 	movw	r1, #746	; 0x2ea
 800665a:	f7ff bb2e 	b.w	8005cba <_dtoa_r+0x32>
 800665e:	693a      	ldr	r2, [r7, #16]
 8006660:	3202      	adds	r2, #2
 8006662:	0092      	lsls	r2, r2, #2
 8006664:	f107 010c 	add.w	r1, r7, #12
 8006668:	300c      	adds	r0, #12
 800666a:	f7fe fd1d 	bl	80050a8 <memcpy>
 800666e:	2201      	movs	r2, #1
 8006670:	4629      	mov	r1, r5
 8006672:	4620      	mov	r0, r4
 8006674:	f000 fb16 	bl	8006ca4 <__lshift>
 8006678:	9b00      	ldr	r3, [sp, #0]
 800667a:	3301      	adds	r3, #1
 800667c:	9301      	str	r3, [sp, #4]
 800667e:	9b00      	ldr	r3, [sp, #0]
 8006680:	444b      	add	r3, r9
 8006682:	9307      	str	r3, [sp, #28]
 8006684:	9b02      	ldr	r3, [sp, #8]
 8006686:	f003 0301 	and.w	r3, r3, #1
 800668a:	46b8      	mov	r8, r7
 800668c:	9306      	str	r3, [sp, #24]
 800668e:	4607      	mov	r7, r0
 8006690:	9b01      	ldr	r3, [sp, #4]
 8006692:	4631      	mov	r1, r6
 8006694:	3b01      	subs	r3, #1
 8006696:	4658      	mov	r0, fp
 8006698:	9302      	str	r3, [sp, #8]
 800669a:	f7ff fa67 	bl	8005b6c <quorem>
 800669e:	4603      	mov	r3, r0
 80066a0:	3330      	adds	r3, #48	; 0x30
 80066a2:	9004      	str	r0, [sp, #16]
 80066a4:	4641      	mov	r1, r8
 80066a6:	4658      	mov	r0, fp
 80066a8:	9308      	str	r3, [sp, #32]
 80066aa:	f000 fb67 	bl	8006d7c <__mcmp>
 80066ae:	463a      	mov	r2, r7
 80066b0:	4681      	mov	r9, r0
 80066b2:	4631      	mov	r1, r6
 80066b4:	4620      	mov	r0, r4
 80066b6:	f000 fb7d 	bl	8006db4 <__mdiff>
 80066ba:	68c2      	ldr	r2, [r0, #12]
 80066bc:	9b08      	ldr	r3, [sp, #32]
 80066be:	4605      	mov	r5, r0
 80066c0:	bb02      	cbnz	r2, 8006704 <_dtoa_r+0xa7c>
 80066c2:	4601      	mov	r1, r0
 80066c4:	4658      	mov	r0, fp
 80066c6:	f000 fb59 	bl	8006d7c <__mcmp>
 80066ca:	9b08      	ldr	r3, [sp, #32]
 80066cc:	4602      	mov	r2, r0
 80066ce:	4629      	mov	r1, r5
 80066d0:	4620      	mov	r0, r4
 80066d2:	e9cd 3208 	strd	r3, r2, [sp, #32]
 80066d6:	f000 f913 	bl	8006900 <_Bfree>
 80066da:	9b05      	ldr	r3, [sp, #20]
 80066dc:	9a09      	ldr	r2, [sp, #36]	; 0x24
 80066de:	9d01      	ldr	r5, [sp, #4]
 80066e0:	ea43 0102 	orr.w	r1, r3, r2
 80066e4:	9b06      	ldr	r3, [sp, #24]
 80066e6:	430b      	orrs	r3, r1
 80066e8:	9b08      	ldr	r3, [sp, #32]
 80066ea:	d10d      	bne.n	8006708 <_dtoa_r+0xa80>
 80066ec:	2b39      	cmp	r3, #57	; 0x39
 80066ee:	d029      	beq.n	8006744 <_dtoa_r+0xabc>
 80066f0:	f1b9 0f00 	cmp.w	r9, #0
 80066f4:	dd01      	ble.n	80066fa <_dtoa_r+0xa72>
 80066f6:	9b04      	ldr	r3, [sp, #16]
 80066f8:	3331      	adds	r3, #49	; 0x31
 80066fa:	9a02      	ldr	r2, [sp, #8]
 80066fc:	7013      	strb	r3, [r2, #0]
 80066fe:	e774      	b.n	80065ea <_dtoa_r+0x962>
 8006700:	4638      	mov	r0, r7
 8006702:	e7b9      	b.n	8006678 <_dtoa_r+0x9f0>
 8006704:	2201      	movs	r2, #1
 8006706:	e7e2      	b.n	80066ce <_dtoa_r+0xa46>
 8006708:	f1b9 0f00 	cmp.w	r9, #0
 800670c:	db06      	blt.n	800671c <_dtoa_r+0xa94>
 800670e:	9905      	ldr	r1, [sp, #20]
 8006710:	ea41 0909 	orr.w	r9, r1, r9
 8006714:	9906      	ldr	r1, [sp, #24]
 8006716:	ea59 0101 	orrs.w	r1, r9, r1
 800671a:	d120      	bne.n	800675e <_dtoa_r+0xad6>
 800671c:	2a00      	cmp	r2, #0
 800671e:	ddec      	ble.n	80066fa <_dtoa_r+0xa72>
 8006720:	4659      	mov	r1, fp
 8006722:	2201      	movs	r2, #1
 8006724:	4620      	mov	r0, r4
 8006726:	9301      	str	r3, [sp, #4]
 8006728:	f000 fabc 	bl	8006ca4 <__lshift>
 800672c:	4631      	mov	r1, r6
 800672e:	4683      	mov	fp, r0
 8006730:	f000 fb24 	bl	8006d7c <__mcmp>
 8006734:	2800      	cmp	r0, #0
 8006736:	9b01      	ldr	r3, [sp, #4]
 8006738:	dc02      	bgt.n	8006740 <_dtoa_r+0xab8>
 800673a:	d1de      	bne.n	80066fa <_dtoa_r+0xa72>
 800673c:	07da      	lsls	r2, r3, #31
 800673e:	d5dc      	bpl.n	80066fa <_dtoa_r+0xa72>
 8006740:	2b39      	cmp	r3, #57	; 0x39
 8006742:	d1d8      	bne.n	80066f6 <_dtoa_r+0xa6e>
 8006744:	9a02      	ldr	r2, [sp, #8]
 8006746:	2339      	movs	r3, #57	; 0x39
 8006748:	7013      	strb	r3, [r2, #0]
 800674a:	462b      	mov	r3, r5
 800674c:	461d      	mov	r5, r3
 800674e:	3b01      	subs	r3, #1
 8006750:	f815 2c01 	ldrb.w	r2, [r5, #-1]
 8006754:	2a39      	cmp	r2, #57	; 0x39
 8006756:	d050      	beq.n	80067fa <_dtoa_r+0xb72>
 8006758:	3201      	adds	r2, #1
 800675a:	701a      	strb	r2, [r3, #0]
 800675c:	e745      	b.n	80065ea <_dtoa_r+0x962>
 800675e:	2a00      	cmp	r2, #0
 8006760:	dd03      	ble.n	800676a <_dtoa_r+0xae2>
 8006762:	2b39      	cmp	r3, #57	; 0x39
 8006764:	d0ee      	beq.n	8006744 <_dtoa_r+0xabc>
 8006766:	3301      	adds	r3, #1
 8006768:	e7c7      	b.n	80066fa <_dtoa_r+0xa72>
 800676a:	9a01      	ldr	r2, [sp, #4]
 800676c:	9907      	ldr	r1, [sp, #28]
 800676e:	f802 3c01 	strb.w	r3, [r2, #-1]
 8006772:	428a      	cmp	r2, r1
 8006774:	d02a      	beq.n	80067cc <_dtoa_r+0xb44>
 8006776:	4659      	mov	r1, fp
 8006778:	2300      	movs	r3, #0
 800677a:	220a      	movs	r2, #10
 800677c:	4620      	mov	r0, r4
 800677e:	f000 f8e1 	bl	8006944 <__multadd>
 8006782:	45b8      	cmp	r8, r7
 8006784:	4683      	mov	fp, r0
 8006786:	f04f 0300 	mov.w	r3, #0
 800678a:	f04f 020a 	mov.w	r2, #10
 800678e:	4641      	mov	r1, r8
 8006790:	4620      	mov	r0, r4
 8006792:	d107      	bne.n	80067a4 <_dtoa_r+0xb1c>
 8006794:	f000 f8d6 	bl	8006944 <__multadd>
 8006798:	4680      	mov	r8, r0
 800679a:	4607      	mov	r7, r0
 800679c:	9b01      	ldr	r3, [sp, #4]
 800679e:	3301      	adds	r3, #1
 80067a0:	9301      	str	r3, [sp, #4]
 80067a2:	e775      	b.n	8006690 <_dtoa_r+0xa08>
 80067a4:	f000 f8ce 	bl	8006944 <__multadd>
 80067a8:	4639      	mov	r1, r7
 80067aa:	4680      	mov	r8, r0
 80067ac:	2300      	movs	r3, #0
 80067ae:	220a      	movs	r2, #10
 80067b0:	4620      	mov	r0, r4
 80067b2:	f000 f8c7 	bl	8006944 <__multadd>
 80067b6:	4607      	mov	r7, r0
 80067b8:	e7f0      	b.n	800679c <_dtoa_r+0xb14>
 80067ba:	f1b9 0f00 	cmp.w	r9, #0
 80067be:	9a00      	ldr	r2, [sp, #0]
 80067c0:	bfcc      	ite	gt
 80067c2:	464d      	movgt	r5, r9
 80067c4:	2501      	movle	r5, #1
 80067c6:	4415      	add	r5, r2
 80067c8:	f04f 0800 	mov.w	r8, #0
 80067cc:	4659      	mov	r1, fp
 80067ce:	2201      	movs	r2, #1
 80067d0:	4620      	mov	r0, r4
 80067d2:	9301      	str	r3, [sp, #4]
 80067d4:	f000 fa66 	bl	8006ca4 <__lshift>
 80067d8:	4631      	mov	r1, r6
 80067da:	4683      	mov	fp, r0
 80067dc:	f000 face 	bl	8006d7c <__mcmp>
 80067e0:	2800      	cmp	r0, #0
 80067e2:	dcb2      	bgt.n	800674a <_dtoa_r+0xac2>
 80067e4:	d102      	bne.n	80067ec <_dtoa_r+0xb64>
 80067e6:	9b01      	ldr	r3, [sp, #4]
 80067e8:	07db      	lsls	r3, r3, #31
 80067ea:	d4ae      	bmi.n	800674a <_dtoa_r+0xac2>
 80067ec:	462b      	mov	r3, r5
 80067ee:	461d      	mov	r5, r3
 80067f0:	f813 2d01 	ldrb.w	r2, [r3, #-1]!
 80067f4:	2a30      	cmp	r2, #48	; 0x30
 80067f6:	d0fa      	beq.n	80067ee <_dtoa_r+0xb66>
 80067f8:	e6f7      	b.n	80065ea <_dtoa_r+0x962>
 80067fa:	9a00      	ldr	r2, [sp, #0]
 80067fc:	429a      	cmp	r2, r3
 80067fe:	d1a5      	bne.n	800674c <_dtoa_r+0xac4>
 8006800:	f10a 0a01 	add.w	sl, sl, #1
 8006804:	2331      	movs	r3, #49	; 0x31
 8006806:	e779      	b.n	80066fc <_dtoa_r+0xa74>
 8006808:	4b13      	ldr	r3, [pc, #76]	; (8006858 <_dtoa_r+0xbd0>)
 800680a:	f7ff baaf 	b.w	8005d6c <_dtoa_r+0xe4>
 800680e:	9b21      	ldr	r3, [sp, #132]	; 0x84
 8006810:	2b00      	cmp	r3, #0
 8006812:	f47f aa86 	bne.w	8005d22 <_dtoa_r+0x9a>
 8006816:	4b11      	ldr	r3, [pc, #68]	; (800685c <_dtoa_r+0xbd4>)
 8006818:	f7ff baa8 	b.w	8005d6c <_dtoa_r+0xe4>
 800681c:	f1b9 0f00 	cmp.w	r9, #0
 8006820:	dc03      	bgt.n	800682a <_dtoa_r+0xba2>
 8006822:	9b05      	ldr	r3, [sp, #20]
 8006824:	2b02      	cmp	r3, #2
 8006826:	f73f aec9 	bgt.w	80065bc <_dtoa_r+0x934>
 800682a:	9d00      	ldr	r5, [sp, #0]
 800682c:	4631      	mov	r1, r6
 800682e:	4658      	mov	r0, fp
 8006830:	f7ff f99c 	bl	8005b6c <quorem>
 8006834:	f100 0330 	add.w	r3, r0, #48	; 0x30
 8006838:	f805 3b01 	strb.w	r3, [r5], #1
 800683c:	9a00      	ldr	r2, [sp, #0]
 800683e:	1aaa      	subs	r2, r5, r2
 8006840:	4591      	cmp	r9, r2
 8006842:	ddba      	ble.n	80067ba <_dtoa_r+0xb32>
 8006844:	4659      	mov	r1, fp
 8006846:	2300      	movs	r3, #0
 8006848:	220a      	movs	r2, #10
 800684a:	4620      	mov	r0, r4
 800684c:	f000 f87a 	bl	8006944 <__multadd>
 8006850:	4683      	mov	fp, r0
 8006852:	e7eb      	b.n	800682c <_dtoa_r+0xba4>
 8006854:	0803a3e3 	.word	0x0803a3e3
 8006858:	0803a33c 	.word	0x0803a33c
 800685c:	0803a360 	.word	0x0803a360

08006860 <_localeconv_r>:
 8006860:	4800      	ldr	r0, [pc, #0]	; (8006864 <_localeconv_r+0x4>)
 8006862:	4770      	bx	lr
 8006864:	200007a8 	.word	0x200007a8

08006868 <__malloc_lock>:
 8006868:	4801      	ldr	r0, [pc, #4]	; (8006870 <__malloc_lock+0x8>)
 800686a:	f000 bd48 	b.w	80072fe <__retarget_lock_acquire_recursive>
 800686e:	bf00      	nop
 8006870:	20000a5c 	.word	0x20000a5c

08006874 <__malloc_unlock>:
 8006874:	4801      	ldr	r0, [pc, #4]	; (800687c <__malloc_unlock+0x8>)
 8006876:	f000 bd43 	b.w	8007300 <__retarget_lock_release_recursive>
 800687a:	bf00      	nop
 800687c:	20000a5c 	.word	0x20000a5c

08006880 <_Balloc>:
 8006880:	b570      	push	{r4, r5, r6, lr}
 8006882:	6a46      	ldr	r6, [r0, #36]	; 0x24
 8006884:	4604      	mov	r4, r0
 8006886:	460d      	mov	r5, r1
 8006888:	b976      	cbnz	r6, 80068a8 <_Balloc+0x28>
 800688a:	2010      	movs	r0, #16
 800688c:	f7fe fc04 	bl	8005098 <malloc>
 8006890:	4602      	mov	r2, r0
 8006892:	6260      	str	r0, [r4, #36]	; 0x24
 8006894:	b920      	cbnz	r0, 80068a0 <_Balloc+0x20>
 8006896:	4b18      	ldr	r3, [pc, #96]	; (80068f8 <_Balloc+0x78>)
 8006898:	4818      	ldr	r0, [pc, #96]	; (80068fc <_Balloc+0x7c>)
 800689a:	2166      	movs	r1, #102	; 0x66
 800689c:	f000 fcfe 	bl	800729c <__assert_func>
 80068a0:	e9c0 6601 	strd	r6, r6, [r0, #4]
 80068a4:	6006      	str	r6, [r0, #0]
 80068a6:	60c6      	str	r6, [r0, #12]
 80068a8:	6a66      	ldr	r6, [r4, #36]	; 0x24
 80068aa:	68f3      	ldr	r3, [r6, #12]
 80068ac:	b183      	cbz	r3, 80068d0 <_Balloc+0x50>
 80068ae:	6a63      	ldr	r3, [r4, #36]	; 0x24
 80068b0:	68db      	ldr	r3, [r3, #12]
 80068b2:	f853 0025 	ldr.w	r0, [r3, r5, lsl #2]
 80068b6:	b9b8      	cbnz	r0, 80068e8 <_Balloc+0x68>
 80068b8:	2101      	movs	r1, #1
 80068ba:	fa01 f605 	lsl.w	r6, r1, r5
 80068be:	1d72      	adds	r2, r6, #5
 80068c0:	0092      	lsls	r2, r2, #2
 80068c2:	4620      	mov	r0, r4
 80068c4:	f000 fb5a 	bl	8006f7c <_calloc_r>
 80068c8:	b160      	cbz	r0, 80068e4 <_Balloc+0x64>
 80068ca:	e9c0 5601 	strd	r5, r6, [r0, #4]
 80068ce:	e00e      	b.n	80068ee <_Balloc+0x6e>
 80068d0:	2221      	movs	r2, #33	; 0x21
 80068d2:	2104      	movs	r1, #4
 80068d4:	4620      	mov	r0, r4
 80068d6:	f000 fb51 	bl	8006f7c <_calloc_r>
 80068da:	6a63      	ldr	r3, [r4, #36]	; 0x24
 80068dc:	60f0      	str	r0, [r6, #12]
 80068de:	68db      	ldr	r3, [r3, #12]
 80068e0:	2b00      	cmp	r3, #0
 80068e2:	d1e4      	bne.n	80068ae <_Balloc+0x2e>
 80068e4:	2000      	movs	r0, #0
 80068e6:	bd70      	pop	{r4, r5, r6, pc}
 80068e8:	6802      	ldr	r2, [r0, #0]
 80068ea:	f843 2025 	str.w	r2, [r3, r5, lsl #2]
 80068ee:	2300      	movs	r3, #0
 80068f0:	e9c0 3303 	strd	r3, r3, [r0, #12]
 80068f4:	e7f7      	b.n	80068e6 <_Balloc+0x66>
 80068f6:	bf00      	nop
 80068f8:	0803a36d 	.word	0x0803a36d
 80068fc:	0803a3f4 	.word	0x0803a3f4

08006900 <_Bfree>:
 8006900:	b570      	push	{r4, r5, r6, lr}
 8006902:	6a46      	ldr	r6, [r0, #36]	; 0x24
 8006904:	4605      	mov	r5, r0
 8006906:	460c      	mov	r4, r1
 8006908:	b976      	cbnz	r6, 8006928 <_Bfree+0x28>
 800690a:	2010      	movs	r0, #16
 800690c:	f7fe fbc4 	bl	8005098 <malloc>
 8006910:	4602      	mov	r2, r0
 8006912:	6268      	str	r0, [r5, #36]	; 0x24
 8006914:	b920      	cbnz	r0, 8006920 <_Bfree+0x20>
 8006916:	4b09      	ldr	r3, [pc, #36]	; (800693c <_Bfree+0x3c>)
 8006918:	4809      	ldr	r0, [pc, #36]	; (8006940 <_Bfree+0x40>)
 800691a:	218a      	movs	r1, #138	; 0x8a
 800691c:	f000 fcbe 	bl	800729c <__assert_func>
 8006920:	e9c0 6601 	strd	r6, r6, [r0, #4]
 8006924:	6006      	str	r6, [r0, #0]
 8006926:	60c6      	str	r6, [r0, #12]
 8006928:	b13c      	cbz	r4, 800693a <_Bfree+0x3a>
 800692a:	6a6b      	ldr	r3, [r5, #36]	; 0x24
 800692c:	6862      	ldr	r2, [r4, #4]
 800692e:	68db      	ldr	r3, [r3, #12]
 8006930:	f853 1022 	ldr.w	r1, [r3, r2, lsl #2]
 8006934:	6021      	str	r1, [r4, #0]
 8006936:	f843 4022 	str.w	r4, [r3, r2, lsl #2]
 800693a:	bd70      	pop	{r4, r5, r6, pc}
 800693c:	0803a36d 	.word	0x0803a36d
 8006940:	0803a3f4 	.word	0x0803a3f4

08006944 <__multadd>:
 8006944:	e92d 41f0 	stmdb	sp!, {r4, r5, r6, r7, r8, lr}
 8006948:	690e      	ldr	r6, [r1, #16]
 800694a:	4607      	mov	r7, r0
 800694c:	4698      	mov	r8, r3
 800694e:	460c      	mov	r4, r1
 8006950:	f101 0014 	add.w	r0, r1, #20
 8006954:	2300      	movs	r3, #0
 8006956:	6805      	ldr	r5, [r0, #0]
 8006958:	b2a9      	uxth	r1, r5
 800695a:	fb02 8101 	mla	r1, r2, r1, r8
 800695e:	ea4f 4c11 	mov.w	ip, r1, lsr #16
 8006962:	0c2d      	lsrs	r5, r5, #16
 8006964:	fb02 c505 	mla	r5, r2, r5, ip
 8006968:	b289      	uxth	r1, r1
 800696a:	3301      	adds	r3, #1
 800696c:	eb01 4105 	add.w	r1, r1, r5, lsl #16
 8006970:	429e      	cmp	r6, r3
 8006972:	f840 1b04 	str.w	r1, [r0], #4
 8006976:	ea4f 4815 	mov.w	r8, r5, lsr #16
 800697a:	dcec      	bgt.n	8006956 <__multadd+0x12>
 800697c:	f1b8 0f00 	cmp.w	r8, #0
 8006980:	d022      	beq.n	80069c8 <__multadd+0x84>
 8006982:	68a3      	ldr	r3, [r4, #8]
 8006984:	42b3      	cmp	r3, r6
 8006986:	dc19      	bgt.n	80069bc <__multadd+0x78>
 8006988:	6861      	ldr	r1, [r4, #4]
 800698a:	4638      	mov	r0, r7
 800698c:	3101      	adds	r1, #1
 800698e:	f7ff ff77 	bl	8006880 <_Balloc>
 8006992:	4605      	mov	r5, r0
 8006994:	b928      	cbnz	r0, 80069a2 <__multadd+0x5e>
 8006996:	4602      	mov	r2, r0
 8006998:	4b0d      	ldr	r3, [pc, #52]	; (80069d0 <__multadd+0x8c>)
 800699a:	480e      	ldr	r0, [pc, #56]	; (80069d4 <__multadd+0x90>)
 800699c:	21b5      	movs	r1, #181	; 0xb5
 800699e:	f000 fc7d 	bl	800729c <__assert_func>
 80069a2:	6922      	ldr	r2, [r4, #16]
 80069a4:	3202      	adds	r2, #2
 80069a6:	f104 010c 	add.w	r1, r4, #12
 80069aa:	0092      	lsls	r2, r2, #2
 80069ac:	300c      	adds	r0, #12
 80069ae:	f7fe fb7b 	bl	80050a8 <memcpy>
 80069b2:	4621      	mov	r1, r4
 80069b4:	4638      	mov	r0, r7
 80069b6:	f7ff ffa3 	bl	8006900 <_Bfree>
 80069ba:	462c      	mov	r4, r5
 80069bc:	eb04 0386 	add.w	r3, r4, r6, lsl #2
 80069c0:	3601      	adds	r6, #1
 80069c2:	f8c3 8014 	str.w	r8, [r3, #20]
 80069c6:	6126      	str	r6, [r4, #16]
 80069c8:	4620      	mov	r0, r4
 80069ca:	e8bd 81f0 	ldmia.w	sp!, {r4, r5, r6, r7, r8, pc}
 80069ce:	bf00      	nop
 80069d0:	0803a3e3 	.word	0x0803a3e3
 80069d4:	0803a3f4 	.word	0x0803a3f4

080069d8 <__hi0bits>:
 80069d8:	0c03      	lsrs	r3, r0, #16
 80069da:	041b      	lsls	r3, r3, #16
 80069dc:	b9d3      	cbnz	r3, 8006a14 <__hi0bits+0x3c>
 80069de:	0400      	lsls	r0, r0, #16
 80069e0:	2310      	movs	r3, #16
 80069e2:	f010 4f7f 	tst.w	r0, #4278190080	; 0xff000000
 80069e6:	bf04      	itt	eq
 80069e8:	0200      	lsleq	r0, r0, #8
 80069ea:	3308      	addeq	r3, #8
 80069ec:	f010 4f70 	tst.w	r0, #4026531840	; 0xf0000000
 80069f0:	bf04      	itt	eq
 80069f2:	0100      	lsleq	r0, r0, #4
 80069f4:	3304      	addeq	r3, #4
 80069f6:	f010 4f40 	tst.w	r0, #3221225472	; 0xc0000000
 80069fa:	bf04      	itt	eq
 80069fc:	0080      	lsleq	r0, r0, #2
 80069fe:	3302      	addeq	r3, #2
 8006a00:	2800      	cmp	r0, #0
 8006a02:	db05      	blt.n	8006a10 <__hi0bits+0x38>
 8006a04:	f010 4f80 	tst.w	r0, #1073741824	; 0x40000000
 8006a08:	f103 0301 	add.w	r3, r3, #1
 8006a0c:	bf08      	it	eq
 8006a0e:	2320      	moveq	r3, #32
 8006a10:	4618      	mov	r0, r3
 8006a12:	4770      	bx	lr
 8006a14:	2300      	movs	r3, #0
 8006a16:	e7e4      	b.n	80069e2 <__hi0bits+0xa>

08006a18 <__lo0bits>:
 8006a18:	6803      	ldr	r3, [r0, #0]
 8006a1a:	f013 0207 	ands.w	r2, r3, #7
 8006a1e:	4601      	mov	r1, r0
 8006a20:	d00b      	beq.n	8006a3a <__lo0bits+0x22>
 8006a22:	07da      	lsls	r2, r3, #31
 8006a24:	d424      	bmi.n	8006a70 <__lo0bits+0x58>
 8006a26:	0798      	lsls	r0, r3, #30
 8006a28:	bf49      	itett	mi
 8006a2a:	085b      	lsrmi	r3, r3, #1
 8006a2c:	089b      	lsrpl	r3, r3, #2
 8006a2e:	2001      	movmi	r0, #1
 8006a30:	600b      	strmi	r3, [r1, #0]
 8006a32:	bf5c      	itt	pl
 8006a34:	600b      	strpl	r3, [r1, #0]
 8006a36:	2002      	movpl	r0, #2
 8006a38:	4770      	bx	lr
 8006a3a:	b298      	uxth	r0, r3
 8006a3c:	b9b0      	cbnz	r0, 8006a6c <__lo0bits+0x54>
 8006a3e:	0c1b      	lsrs	r3, r3, #16
 8006a40:	2010      	movs	r0, #16
 8006a42:	f013 0fff 	tst.w	r3, #255	; 0xff
 8006a46:	bf04      	itt	eq
 8006a48:	0a1b      	lsreq	r3, r3, #8
 8006a4a:	3008      	addeq	r0, #8
 8006a4c:	071a      	lsls	r2, r3, #28
 8006a4e:	bf04      	itt	eq
 8006a50:	091b      	lsreq	r3, r3, #4
 8006a52:	3004      	addeq	r0, #4
 8006a54:	079a      	lsls	r2, r3, #30
 8006a56:	bf04      	itt	eq
 8006a58:	089b      	lsreq	r3, r3, #2
 8006a5a:	3002      	addeq	r0, #2
 8006a5c:	07da      	lsls	r2, r3, #31
 8006a5e:	d403      	bmi.n	8006a68 <__lo0bits+0x50>
 8006a60:	085b      	lsrs	r3, r3, #1
 8006a62:	f100 0001 	add.w	r0, r0, #1
 8006a66:	d005      	beq.n	8006a74 <__lo0bits+0x5c>
 8006a68:	600b      	str	r3, [r1, #0]
 8006a6a:	4770      	bx	lr
 8006a6c:	4610      	mov	r0, r2
 8006a6e:	e7e8      	b.n	8006a42 <__lo0bits+0x2a>
 8006a70:	2000      	movs	r0, #0
 8006a72:	4770      	bx	lr
 8006a74:	2020      	movs	r0, #32
 8006a76:	4770      	bx	lr

08006a78 <__i2b>:
 8006a78:	b510      	push	{r4, lr}
 8006a7a:	460c      	mov	r4, r1
 8006a7c:	2101      	movs	r1, #1
 8006a7e:	f7ff feff 	bl	8006880 <_Balloc>
 8006a82:	4602      	mov	r2, r0
 8006a84:	b928      	cbnz	r0, 8006a92 <__i2b+0x1a>
 8006a86:	4b05      	ldr	r3, [pc, #20]	; (8006a9c <__i2b+0x24>)
 8006a88:	4805      	ldr	r0, [pc, #20]	; (8006aa0 <__i2b+0x28>)
 8006a8a:	f44f 71a0 	mov.w	r1, #320	; 0x140
 8006a8e:	f000 fc05 	bl	800729c <__assert_func>
 8006a92:	2301      	movs	r3, #1
 8006a94:	6144      	str	r4, [r0, #20]
 8006a96:	6103      	str	r3, [r0, #16]
 8006a98:	bd10      	pop	{r4, pc}
 8006a9a:	bf00      	nop
 8006a9c:	0803a3e3 	.word	0x0803a3e3
 8006aa0:	0803a3f4 	.word	0x0803a3f4

08006aa4 <__multiply>:
 8006aa4:	e92d 4ff0 	stmdb	sp!, {r4, r5, r6, r7, r8, r9, sl, fp, lr}
 8006aa8:	4614      	mov	r4, r2
 8006aaa:	690a      	ldr	r2, [r1, #16]
 8006aac:	6923      	ldr	r3, [r4, #16]
 8006aae:	429a      	cmp	r2, r3
 8006ab0:	bfb8      	it	lt
 8006ab2:	460b      	movlt	r3, r1
 8006ab4:	460d      	mov	r5, r1
 8006ab6:	bfbc      	itt	lt
 8006ab8:	4625      	movlt	r5, r4
 8006aba:	461c      	movlt	r4, r3
 8006abc:	f8d5 a010 	ldr.w	sl, [r5, #16]
 8006ac0:	f8d4 9010 	ldr.w	r9, [r4, #16]
 8006ac4:	68ab      	ldr	r3, [r5, #8]
 8006ac6:	6869      	ldr	r1, [r5, #4]
 8006ac8:	eb0a 0709 	add.w	r7, sl, r9
 8006acc:	42bb      	cmp	r3, r7
 8006ace:	b085      	sub	sp, #20
 8006ad0:	bfb8      	it	lt
 8006ad2:	3101      	addlt	r1, #1
 8006ad4:	f7ff fed4 	bl	8006880 <_Balloc>
 8006ad8:	b930      	cbnz	r0, 8006ae8 <__multiply+0x44>
 8006ada:	4602      	mov	r2, r0
 8006adc:	4b42      	ldr	r3, [pc, #264]	; (8006be8 <__multiply+0x144>)
 8006ade:	4843      	ldr	r0, [pc, #268]	; (8006bec <__multiply+0x148>)
 8006ae0:	f240 115d 	movw	r1, #349	; 0x15d
 8006ae4:	f000 fbda 	bl	800729c <__assert_func>
 8006ae8:	f100 0614 	add.w	r6, r0, #20
 8006aec:	eb06 0887 	add.w	r8, r6, r7, lsl #2
 8006af0:	4633      	mov	r3, r6
 8006af2:	2200      	movs	r2, #0
 8006af4:	4543      	cmp	r3, r8
 8006af6:	d31e      	bcc.n	8006b36 <__multiply+0x92>
 8006af8:	f105 0c14 	add.w	ip, r5, #20
 8006afc:	f104 0314 	add.w	r3, r4, #20
 8006b00:	eb0c 0c8a 	add.w	ip, ip, sl, lsl #2
 8006b04:	eb03 0289 	add.w	r2, r3, r9, lsl #2
 8006b08:	9202      	str	r2, [sp, #8]
 8006b0a:	ebac 0205 	sub.w	r2, ip, r5
 8006b0e:	3a15      	subs	r2, #21
 8006b10:	f022 0203 	bic.w	r2, r2, #3
 8006b14:	3204      	adds	r2, #4
 8006b16:	f105 0115 	add.w	r1, r5, #21
 8006b1a:	458c      	cmp	ip, r1
 8006b1c:	bf38      	it	cc
 8006b1e:	2204      	movcc	r2, #4
 8006b20:	9201      	str	r2, [sp, #4]
 8006b22:	9a02      	ldr	r2, [sp, #8]
 8006b24:	9303      	str	r3, [sp, #12]
 8006b26:	429a      	cmp	r2, r3
 8006b28:	d808      	bhi.n	8006b3c <__multiply+0x98>
 8006b2a:	2f00      	cmp	r7, #0
 8006b2c:	dc55      	bgt.n	8006bda <__multiply+0x136>
 8006b2e:	6107      	str	r7, [r0, #16]
 8006b30:	b005      	add	sp, #20
 8006b32:	e8bd 8ff0 	ldmia.w	sp!, {r4, r5, r6, r7, r8, r9, sl, fp, pc}
 8006b36:	f843 2b04 	str.w	r2, [r3], #4
 8006b3a:	e7db      	b.n	8006af4 <__multiply+0x50>
 8006b3c:	f8b3 a000 	ldrh.w	sl, [r3]
 8006b40:	f1ba 0f00 	cmp.w	sl, #0
 8006b44:	d020      	beq.n	8006b88 <__multiply+0xe4>
 8006b46:	f105 0e14 	add.w	lr, r5, #20
 8006b4a:	46b1      	mov	r9, r6
 8006b4c:	2200      	movs	r2, #0
 8006b4e:	f85e 4b04 	ldr.w	r4, [lr], #4
 8006b52:	f8d9 b000 	ldr.w	fp, [r9]
 8006b56:	b2a1      	uxth	r1, r4
 8006b58:	fa1f fb8b 	uxth.w	fp, fp
 8006b5c:	fb0a b101 	mla	r1, sl, r1, fp
 8006b60:	4411      	add	r1, r2
 8006b62:	f8d9 2000 	ldr.w	r2, [r9]
 8006b66:	0c24      	lsrs	r4, r4, #16
 8006b68:	0c12      	lsrs	r2, r2, #16
 8006b6a:	fb0a 2404 	mla	r4, sl, r4, r2
 8006b6e:	eb04 4411 	add.w	r4, r4, r1, lsr #16
 8006b72:	b289      	uxth	r1, r1
 8006b74:	ea41 4104 	orr.w	r1, r1, r4, lsl #16
 8006b78:	45f4      	cmp	ip, lr
 8006b7a:	f849 1b04 	str.w	r1, [r9], #4
 8006b7e:	ea4f 4214 	mov.w	r2, r4, lsr #16
 8006b82:	d8e4      	bhi.n	8006b4e <__multiply+0xaa>
 8006b84:	9901      	ldr	r1, [sp, #4]
 8006b86:	5072      	str	r2, [r6, r1]
 8006b88:	9a03      	ldr	r2, [sp, #12]
 8006b8a:	f8b2 9002 	ldrh.w	r9, [r2, #2]
 8006b8e:	3304      	adds	r3, #4
 8006b90:	f1b9 0f00 	cmp.w	r9, #0
 8006b94:	d01f      	beq.n	8006bd6 <__multiply+0x132>
 8006b96:	6834      	ldr	r4, [r6, #0]
 8006b98:	f105 0114 	add.w	r1, r5, #20
 8006b9c:	46b6      	mov	lr, r6
 8006b9e:	f04f 0a00 	mov.w	sl, #0
 8006ba2:	880a      	ldrh	r2, [r1, #0]
 8006ba4:	f8be b002 	ldrh.w	fp, [lr, #2]
 8006ba8:	fb09 b202 	mla	r2, r9, r2, fp
 8006bac:	4492      	add	sl, r2
 8006bae:	b2a4      	uxth	r4, r4
 8006bb0:	ea44 440a 	orr.w	r4, r4, sl, lsl #16
 8006bb4:	f84e 4b04 	str.w	r4, [lr], #4
 8006bb8:	f851 4b04 	ldr.w	r4, [r1], #4
 8006bbc:	f8be 2000 	ldrh.w	r2, [lr]
 8006bc0:	0c24      	lsrs	r4, r4, #16
 8006bc2:	fb09 2404 	mla	r4, r9, r4, r2
 8006bc6:	eb04 441a 	add.w	r4, r4, sl, lsr #16
 8006bca:	458c      	cmp	ip, r1
 8006bcc:	ea4f 4a14 	mov.w	sl, r4, lsr #16
 8006bd0:	d8e7      	bhi.n	8006ba2 <__multiply+0xfe>
 8006bd2:	9a01      	ldr	r2, [sp, #4]
 8006bd4:	50b4      	str	r4, [r6, r2]
 8006bd6:	3604      	adds	r6, #4
 8006bd8:	e7a3      	b.n	8006b22 <__multiply+0x7e>
 8006bda:	f858 3d04 	ldr.w	r3, [r8, #-4]!
 8006bde:	2b00      	cmp	r3, #0
 8006be0:	d1a5      	bne.n	8006b2e <__multiply+0x8a>
 8006be2:	3f01      	subs	r7, #1
 8006be4:	e7a1      	b.n	8006b2a <__multiply+0x86>
 8006be6:	bf00      	nop
 8006be8:	0803a3e3 	.word	0x0803a3e3
 8006bec:	0803a3f4 	.word	0x0803a3f4

08006bf0 <__pow5mult>:
 8006bf0:	e92d 43f8 	stmdb	sp!, {r3, r4, r5, r6, r7, r8, r9, lr}
 8006bf4:	4615      	mov	r5, r2
 8006bf6:	f012 0203 	ands.w	r2, r2, #3
 8006bfa:	4606      	mov	r6, r0
 8006bfc:	460f      	mov	r7, r1
 8006bfe:	d007      	beq.n	8006c10 <__pow5mult+0x20>
 8006c00:	4c25      	ldr	r4, [pc, #148]	; (8006c98 <__pow5mult+0xa8>)
 8006c02:	3a01      	subs	r2, #1
 8006c04:	2300      	movs	r3, #0
 8006c06:	f854 2022 	ldr.w	r2, [r4, r2, lsl #2]
 8006c0a:	f7ff fe9b 	bl	8006944 <__multadd>
 8006c0e:	4607      	mov	r7, r0
 8006c10:	10ad      	asrs	r5, r5, #2
 8006c12:	d03d      	beq.n	8006c90 <__pow5mult+0xa0>
 8006c14:	6a74      	ldr	r4, [r6, #36]	; 0x24
 8006c16:	b97c      	cbnz	r4, 8006c38 <__pow5mult+0x48>
 8006c18:	2010      	movs	r0, #16
 8006c1a:	f7fe fa3d 	bl	8005098 <malloc>
 8006c1e:	4602      	mov	r2, r0
 8006c20:	6270      	str	r0, [r6, #36]	; 0x24
 8006c22:	b928      	cbnz	r0, 8006c30 <__pow5mult+0x40>
 8006c24:	4b1d      	ldr	r3, [pc, #116]	; (8006c9c <__pow5mult+0xac>)
 8006c26:	481e      	ldr	r0, [pc, #120]	; (8006ca0 <__pow5mult+0xb0>)
 8006c28:	f44f 71d7 	mov.w	r1, #430	; 0x1ae
 8006c2c:	f000 fb36 	bl	800729c <__assert_func>
 8006c30:	e9c0 4401 	strd	r4, r4, [r0, #4]
 8006c34:	6004      	str	r4, [r0, #0]
 8006c36:	60c4      	str	r4, [r0, #12]
 8006c38:	f8d6 8024 	ldr.w	r8, [r6, #36]	; 0x24
 8006c3c:	f8d8 4008 	ldr.w	r4, [r8, #8]
 8006c40:	b94c      	cbnz	r4, 8006c56 <__pow5mult+0x66>
 8006c42:	f240 2171 	movw	r1, #625	; 0x271
 8006c46:	4630      	mov	r0, r6
 8006c48:	f7ff ff16 	bl	8006a78 <__i2b>
 8006c4c:	2300      	movs	r3, #0
 8006c4e:	f8c8 0008 	str.w	r0, [r8, #8]
 8006c52:	4604      	mov	r4, r0
 8006c54:	6003      	str	r3, [r0, #0]
 8006c56:	f04f 0900 	mov.w	r9, #0
 8006c5a:	07eb      	lsls	r3, r5, #31
 8006c5c:	d50a      	bpl.n	8006c74 <__pow5mult+0x84>
 8006c5e:	4639      	mov	r1, r7
 8006c60:	4622      	mov	r2, r4
 8006c62:	4630      	mov	r0, r6
 8006c64:	f7ff ff1e 	bl	8006aa4 <__multiply>
 8006c68:	4639      	mov	r1, r7
 8006c6a:	4680      	mov	r8, r0
 8006c6c:	4630      	mov	r0, r6
 8006c6e:	f7ff fe47 	bl	8006900 <_Bfree>
 8006c72:	4647      	mov	r7, r8
 8006c74:	106d      	asrs	r5, r5, #1
 8006c76:	d00b      	beq.n	8006c90 <__pow5mult+0xa0>
 8006c78:	6820      	ldr	r0, [r4, #0]
 8006c7a:	b938      	cbnz	r0, 8006c8c <__pow5mult+0x9c>
 8006c7c:	4622      	mov	r2, r4
 8006c7e:	4621      	mov	r1, r4
 8006c80:	4630      	mov	r0, r6
 8006c82:	f7ff ff0f 	bl	8006aa4 <__multiply>
 8006c86:	6020      	str	r0, [r4, #0]
 8006c88:	f8c0 9000 	str.w	r9, [r0]
 8006c8c:	4604      	mov	r4, r0
 8006c8e:	e7e4      	b.n	8006c5a <__pow5mult+0x6a>
 8006c90:	4638      	mov	r0, r7
 8006c92:	e8bd 83f8 	ldmia.w	sp!, {r3, r4, r5, r6, r7, r8, r9, pc}
 8006c96:	bf00      	nop
 8006c98:	0803a548 	.word	0x0803a548
 8006c9c:	0803a36d 	.word	0x0803a36d
 8006ca0:	0803a3f4 	.word	0x0803a3f4

08006ca4 <__lshift>:
 8006ca4:	e92d 47f0 	stmdb	sp!, {r4, r5, r6, r7, r8, r9, sl, lr}
 8006ca8:	460c      	mov	r4, r1
 8006caa:	6849      	ldr	r1, [r1, #4]
 8006cac:	6923      	ldr	r3, [r4, #16]
 8006cae:	eb03 1862 	add.w	r8, r3, r2, asr #5
 8006cb2:	68a3      	ldr	r3, [r4, #8]
 8006cb4:	4607      	mov	r7, r0
 8006cb6:	4691      	mov	r9, r2
 8006cb8:	ea4f 1a62 	mov.w	sl, r2, asr #5
 8006cbc:	f108 0601 	add.w	r6, r8, #1
 8006cc0:	42b3      	cmp	r3, r6
 8006cc2:	db0b      	blt.n	8006cdc <__lshift+0x38>
 8006cc4:	4638      	mov	r0, r7
 8006cc6:	f7ff fddb 	bl	8006880 <_Balloc>
 8006cca:	4605      	mov	r5, r0
 8006ccc:	b948      	cbnz	r0, 8006ce2 <__lshift+0x3e>
 8006cce:	4602      	mov	r2, r0
 8006cd0:	4b28      	ldr	r3, [pc, #160]	; (8006d74 <__lshift+0xd0>)
 8006cd2:	4829      	ldr	r0, [pc, #164]	; (8006d78 <__lshift+0xd4>)
 8006cd4:	f240 11d9 	movw	r1, #473	; 0x1d9
 8006cd8:	f000 fae0 	bl	800729c <__assert_func>
 8006cdc:	3101      	adds	r1, #1
 8006cde:	005b      	lsls	r3, r3, #1
 8006ce0:	e7ee      	b.n	8006cc0 <__lshift+0x1c>
 8006ce2:	2300      	movs	r3, #0
 8006ce4:	f100 0114 	add.w	r1, r0, #20
 8006ce8:	f100 0210 	add.w	r2, r0, #16
 8006cec:	4618      	mov	r0, r3
 8006cee:	4553      	cmp	r3, sl
 8006cf0:	db33      	blt.n	8006d5a <__lshift+0xb6>
 8006cf2:	6920      	ldr	r0, [r4, #16]
 8006cf4:	ea2a 7aea 	bic.w	sl, sl, sl, asr #31
 8006cf8:	f104 0314 	add.w	r3, r4, #20
 8006cfc:	f019 091f 	ands.w	r9, r9, #31
 8006d00:	eb01 018a 	add.w	r1, r1, sl, lsl #2
 8006d04:	eb03 0c80 	add.w	ip, r3, r0, lsl #2
 8006d08:	d02b      	beq.n	8006d62 <__lshift+0xbe>
 8006d0a:	f1c9 0e20 	rsb	lr, r9, #32
 8006d0e:	468a      	mov	sl, r1
 8006d10:	2200      	movs	r2, #0
 8006d12:	6818      	ldr	r0, [r3, #0]
 8006d14:	fa00 f009 	lsl.w	r0, r0, r9
 8006d18:	4302      	orrs	r2, r0
 8006d1a:	f84a 2b04 	str.w	r2, [sl], #4
 8006d1e:	f853 2b04 	ldr.w	r2, [r3], #4
 8006d22:	459c      	cmp	ip, r3
 8006d24:	fa22 f20e 	lsr.w	r2, r2, lr
 8006d28:	d8f3      	bhi.n	8006d12 <__lshift+0x6e>
 8006d2a:	ebac 0304 	sub.w	r3, ip, r4
 8006d2e:	3b15      	subs	r3, #21
 8006d30:	f023 0303 	bic.w	r3, r3, #3
 8006d34:	3304      	adds	r3, #4
 8006d36:	f104 0015 	add.w	r0, r4, #21
 8006d3a:	4584      	cmp	ip, r0
 8006d3c:	bf38      	it	cc
 8006d3e:	2304      	movcc	r3, #4
 8006d40:	50ca      	str	r2, [r1, r3]
 8006d42:	b10a      	cbz	r2, 8006d48 <__lshift+0xa4>
 8006d44:	f108 0602 	add.w	r6, r8, #2
 8006d48:	3e01      	subs	r6, #1
 8006d4a:	4638      	mov	r0, r7
 8006d4c:	612e      	str	r6, [r5, #16]
 8006d4e:	4621      	mov	r1, r4
 8006d50:	f7ff fdd6 	bl	8006900 <_Bfree>
 8006d54:	4628      	mov	r0, r5
 8006d56:	e8bd 87f0 	ldmia.w	sp!, {r4, r5, r6, r7, r8, r9, sl, pc}
 8006d5a:	f842 0f04 	str.w	r0, [r2, #4]!
 8006d5e:	3301      	adds	r3, #1
 8006d60:	e7c5      	b.n	8006cee <__lshift+0x4a>
 8006d62:	3904      	subs	r1, #4
 8006d64:	f853 2b04 	ldr.w	r2, [r3], #4
 8006d68:	f841 2f04 	str.w	r2, [r1, #4]!
 8006d6c:	459c      	cmp	ip, r3
 8006d6e:	d8f9      	bhi.n	8006d64 <__lshift+0xc0>
 8006d70:	e7ea      	b.n	8006d48 <__lshift+0xa4>
 8006d72:	bf00      	nop
 8006d74:	0803a3e3 	.word	0x0803a3e3
 8006d78:	0803a3f4 	.word	0x0803a3f4

08006d7c <__mcmp>:
 8006d7c:	b530      	push	{r4, r5, lr}
 8006d7e:	6902      	ldr	r2, [r0, #16]
 8006d80:	690c      	ldr	r4, [r1, #16]
 8006d82:	1b12      	subs	r2, r2, r4
 8006d84:	d10e      	bne.n	8006da4 <__mcmp+0x28>
 8006d86:	f100 0314 	add.w	r3, r0, #20
 8006d8a:	3114      	adds	r1, #20
 8006d8c:	eb03 0084 	add.w	r0, r3, r4, lsl #2
 8006d90:	eb01 0184 	add.w	r1, r1, r4, lsl #2
 8006d94:	f850 5d04 	ldr.w	r5, [r0, #-4]!
 8006d98:	f851 4d04 	ldr.w	r4, [r1, #-4]!
 8006d9c:	42a5      	cmp	r5, r4
 8006d9e:	d003      	beq.n	8006da8 <__mcmp+0x2c>
 8006da0:	d305      	bcc.n	8006dae <__mcmp+0x32>
 8006da2:	2201      	movs	r2, #1
 8006da4:	4610      	mov	r0, r2
 8006da6:	bd30      	pop	{r4, r5, pc}
 8006da8:	4283      	cmp	r3, r0
 8006daa:	d3f3      	bcc.n	8006d94 <__mcmp+0x18>
 8006dac:	e7fa      	b.n	8006da4 <__mcmp+0x28>
 8006dae:	f04f 32ff 	mov.w	r2, #4294967295
 8006db2:	e7f7      	b.n	8006da4 <__mcmp+0x28>

08006db4 <__mdiff>:
 8006db4:	e92d 4ff8 	stmdb	sp!, {r3, r4, r5, r6, r7, r8, r9, sl, fp, lr}
 8006db8:	460c      	mov	r4, r1
 8006dba:	4606      	mov	r6, r0
 8006dbc:	4611      	mov	r1, r2
 8006dbe:	4620      	mov	r0, r4
 8006dc0:	4617      	mov	r7, r2
 8006dc2:	f7ff ffdb 	bl	8006d7c <__mcmp>
 8006dc6:	1e05      	subs	r5, r0, #0
 8006dc8:	d110      	bne.n	8006dec <__mdiff+0x38>
 8006dca:	4629      	mov	r1, r5
 8006dcc:	4630      	mov	r0, r6
 8006dce:	f7ff fd57 	bl	8006880 <_Balloc>
 8006dd2:	b930      	cbnz	r0, 8006de2 <__mdiff+0x2e>
 8006dd4:	4b39      	ldr	r3, [pc, #228]	; (8006ebc <__mdiff+0x108>)
 8006dd6:	4602      	mov	r2, r0
 8006dd8:	f240 2132 	movw	r1, #562	; 0x232
 8006ddc:	4838      	ldr	r0, [pc, #224]	; (8006ec0 <__mdiff+0x10c>)
 8006dde:	f000 fa5d 	bl	800729c <__assert_func>
 8006de2:	2301      	movs	r3, #1
 8006de4:	e9c0 3504 	strd	r3, r5, [r0, #16]
 8006de8:	e8bd 8ff8 	ldmia.w	sp!, {r3, r4, r5, r6, r7, r8, r9, sl, fp, pc}
 8006dec:	bfa4      	itt	ge
 8006dee:	463b      	movge	r3, r7
 8006df0:	4627      	movge	r7, r4
 8006df2:	4630      	mov	r0, r6
 8006df4:	6879      	ldr	r1, [r7, #4]
 8006df6:	bfa6      	itte	ge
 8006df8:	461c      	movge	r4, r3
 8006dfa:	2500      	movge	r5, #0
 8006dfc:	2501      	movlt	r5, #1
 8006dfe:	f7ff fd3f 	bl	8006880 <_Balloc>
 8006e02:	b920      	cbnz	r0, 8006e0e <__mdiff+0x5a>
 8006e04:	4b2d      	ldr	r3, [pc, #180]	; (8006ebc <__mdiff+0x108>)
 8006e06:	4602      	mov	r2, r0
 8006e08:	f44f 7110 	mov.w	r1, #576	; 0x240
 8006e0c:	e7e6      	b.n	8006ddc <__mdiff+0x28>
 8006e0e:	693e      	ldr	r6, [r7, #16]
 8006e10:	60c5      	str	r5, [r0, #12]
 8006e12:	6925      	ldr	r5, [r4, #16]
 8006e14:	f107 0114 	add.w	r1, r7, #20
 8006e18:	f104 0914 	add.w	r9, r4, #20
 8006e1c:	f100 0e14 	add.w	lr, r0, #20
 8006e20:	f107 0210 	add.w	r2, r7, #16
 8006e24:	eb01 0c86 	add.w	ip, r1, r6, lsl #2
 8006e28:	eb09 0585 	add.w	r5, r9, r5, lsl #2
 8006e2c:	46f2      	mov	sl, lr
 8006e2e:	2700      	movs	r7, #0
 8006e30:	f859 3b04 	ldr.w	r3, [r9], #4
 8006e34:	f852 bf04 	ldr.w	fp, [r2, #4]!
 8006e38:	fa1f f883 	uxth.w	r8, r3
 8006e3c:	fa17 f78b 	uxtah	r7, r7, fp
 8006e40:	0c1b      	lsrs	r3, r3, #16
 8006e42:	eba7 0808 	sub.w	r8, r7, r8
 8006e46:	ebc3 431b 	rsb	r3, r3, fp, lsr #16
 8006e4a:	eb03 4328 	add.w	r3, r3, r8, asr #16
 8006e4e:	fa1f f888 	uxth.w	r8, r8
 8006e52:	141f      	asrs	r7, r3, #16
 8006e54:	454d      	cmp	r5, r9
 8006e56:	ea48 4303 	orr.w	r3, r8, r3, lsl #16
 8006e5a:	f84a 3b04 	str.w	r3, [sl], #4
 8006e5e:	d8e7      	bhi.n	8006e30 <__mdiff+0x7c>
 8006e60:	1b2b      	subs	r3, r5, r4
 8006e62:	3b15      	subs	r3, #21
 8006e64:	f023 0303 	bic.w	r3, r3, #3
 8006e68:	3304      	adds	r3, #4
 8006e6a:	3415      	adds	r4, #21
 8006e6c:	42a5      	cmp	r5, r4
 8006e6e:	bf38      	it	cc
 8006e70:	2304      	movcc	r3, #4
 8006e72:	4419      	add	r1, r3
 8006e74:	4473      	add	r3, lr
 8006e76:	469e      	mov	lr, r3
 8006e78:	460d      	mov	r5, r1
 8006e7a:	4565      	cmp	r5, ip
 8006e7c:	d30e      	bcc.n	8006e9c <__mdiff+0xe8>
 8006e7e:	f10c 0203 	add.w	r2, ip, #3
 8006e82:	1a52      	subs	r2, r2, r1
 8006e84:	f022 0203 	bic.w	r2, r2, #3
 8006e88:	3903      	subs	r1, #3
 8006e8a:	458c      	cmp	ip, r1
 8006e8c:	bf38      	it	cc
 8006e8e:	2200      	movcc	r2, #0
 8006e90:	441a      	add	r2, r3
 8006e92:	f852 3d04 	ldr.w	r3, [r2, #-4]!
 8006e96:	b17b      	cbz	r3, 8006eb8 <__mdiff+0x104>
 8006e98:	6106      	str	r6, [r0, #16]
 8006e9a:	e7a5      	b.n	8006de8 <__mdiff+0x34>
 8006e9c:	f855 8b04 	ldr.w	r8, [r5], #4
 8006ea0:	fa17 f488 	uxtah	r4, r7, r8
 8006ea4:	1422      	asrs	r2, r4, #16
 8006ea6:	eb02 4218 	add.w	r2, r2, r8, lsr #16
 8006eaa:	b2a4      	uxth	r4, r4
 8006eac:	ea44 4402 	orr.w	r4, r4, r2, lsl #16
 8006eb0:	f84e 4b04 	str.w	r4, [lr], #4
 8006eb4:	1417      	asrs	r7, r2, #16
 8006eb6:	e7e0      	b.n	8006e7a <__mdiff+0xc6>
 8006eb8:	3e01      	subs	r6, #1
 8006eba:	e7ea      	b.n	8006e92 <__mdiff+0xde>
 8006ebc:	0803a3e3 	.word	0x0803a3e3
 8006ec0:	0803a3f4 	.word	0x0803a3f4

08006ec4 <__d2b>:
 8006ec4:	e92d 43f7 	stmdb	sp!, {r0, r1, r2, r4, r5, r6, r7, r8, r9, lr}
 8006ec8:	4689      	mov	r9, r1
 8006eca:	2101      	movs	r1, #1
 8006ecc:	ec57 6b10 	vmov	r6, r7, d0
 8006ed0:	4690      	mov	r8, r2
 8006ed2:	f7ff fcd5 	bl	8006880 <_Balloc>
 8006ed6:	4604      	mov	r4, r0
 8006ed8:	b930      	cbnz	r0, 8006ee8 <__d2b+0x24>
 8006eda:	4602      	mov	r2, r0
 8006edc:	4b25      	ldr	r3, [pc, #148]	; (8006f74 <__d2b+0xb0>)
 8006ede:	4826      	ldr	r0, [pc, #152]	; (8006f78 <__d2b+0xb4>)
 8006ee0:	f240 310a 	movw	r1, #778	; 0x30a
 8006ee4:	f000 f9da 	bl	800729c <__assert_func>
 8006ee8:	f3c7 550a 	ubfx	r5, r7, #20, #11
 8006eec:	f3c7 0313 	ubfx	r3, r7, #0, #20
 8006ef0:	bb35      	cbnz	r5, 8006f40 <__d2b+0x7c>
 8006ef2:	2e00      	cmp	r6, #0
 8006ef4:	9301      	str	r3, [sp, #4]
 8006ef6:	d028      	beq.n	8006f4a <__d2b+0x86>
 8006ef8:	4668      	mov	r0, sp
 8006efa:	9600      	str	r6, [sp, #0]
 8006efc:	f7ff fd8c 	bl	8006a18 <__lo0bits>
 8006f00:	9900      	ldr	r1, [sp, #0]
 8006f02:	b300      	cbz	r0, 8006f46 <__d2b+0x82>
 8006f04:	9a01      	ldr	r2, [sp, #4]
 8006f06:	f1c0 0320 	rsb	r3, r0, #32
 8006f0a:	fa02 f303 	lsl.w	r3, r2, r3
 8006f0e:	430b      	orrs	r3, r1
 8006f10:	40c2      	lsrs	r2, r0
 8006f12:	6163      	str	r3, [r4, #20]
 8006f14:	9201      	str	r2, [sp, #4]
 8006f16:	9b01      	ldr	r3, [sp, #4]
 8006f18:	61a3      	str	r3, [r4, #24]
 8006f1a:	2b00      	cmp	r3, #0
 8006f1c:	bf14      	ite	ne
 8006f1e:	2202      	movne	r2, #2
 8006f20:	2201      	moveq	r2, #1
 8006f22:	6122      	str	r2, [r4, #16]
 8006f24:	b1d5      	cbz	r5, 8006f5c <__d2b+0x98>
 8006f26:	f2a5 4533 	subw	r5, r5, #1075	; 0x433
 8006f2a:	4405      	add	r5, r0
 8006f2c:	f8c9 5000 	str.w	r5, [r9]
 8006f30:	f1c0 0035 	rsb	r0, r0, #53	; 0x35
 8006f34:	f8c8 0000 	str.w	r0, [r8]
 8006f38:	4620      	mov	r0, r4
 8006f3a:	b003      	add	sp, #12
 8006f3c:	e8bd 83f0 	ldmia.w	sp!, {r4, r5, r6, r7, r8, r9, pc}
 8006f40:	f443 1380 	orr.w	r3, r3, #1048576	; 0x100000
 8006f44:	e7d5      	b.n	8006ef2 <__d2b+0x2e>
 8006f46:	6161      	str	r1, [r4, #20]
 8006f48:	e7e5      	b.n	8006f16 <__d2b+0x52>
 8006f4a:	a801      	add	r0, sp, #4
 8006f4c:	f7ff fd64 	bl	8006a18 <__lo0bits>
 8006f50:	9b01      	ldr	r3, [sp, #4]
 8006f52:	6163      	str	r3, [r4, #20]
 8006f54:	2201      	movs	r2, #1
 8006f56:	6122      	str	r2, [r4, #16]
 8006f58:	3020      	adds	r0, #32
 8006f5a:	e7e3      	b.n	8006f24 <__d2b+0x60>
 8006f5c:	eb04 0382 	add.w	r3, r4, r2, lsl #2
 8006f60:	f2a0 4032 	subw	r0, r0, #1074	; 0x432
 8006f64:	f8c9 0000 	str.w	r0, [r9]
 8006f68:	6918      	ldr	r0, [r3, #16]
 8006f6a:	f7ff fd35 	bl	80069d8 <__hi0bits>
 8006f6e:	ebc0 1042 	rsb	r0, r0, r2, lsl #5
 8006f72:	e7df      	b.n	8006f34 <__d2b+0x70>
 8006f74:	0803a3e3 	.word	0x0803a3e3
 8006f78:	0803a3f4 	.word	0x0803a3f4

08006f7c <_calloc_r>:
 8006f7c:	b513      	push	{r0, r1, r4, lr}
 8006f7e:	434a      	muls	r2, r1
 8006f80:	4611      	mov	r1, r2
 8006f82:	9201      	str	r2, [sp, #4]
 8006f84:	f7fe f8f6 	bl	8005174 <_malloc_r>
 8006f88:	4604      	mov	r4, r0
 8006f8a:	b118      	cbz	r0, 8006f94 <_calloc_r+0x18>
 8006f8c:	9a01      	ldr	r2, [sp, #4]
 8006f8e:	2100      	movs	r1, #0
 8006f90:	f7fe f898 	bl	80050c4 <memset>
 8006f94:	4620      	mov	r0, r4
 8006f96:	b002      	add	sp, #8
 8006f98:	bd10      	pop	{r4, pc}

08006f9a <_realloc_r>:
 8006f9a:	b5f8      	push	{r3, r4, r5, r6, r7, lr}
 8006f9c:	4607      	mov	r7, r0
 8006f9e:	4614      	mov	r4, r2
 8006fa0:	460e      	mov	r6, r1
 8006fa2:	b921      	cbnz	r1, 8006fae <_realloc_r+0x14>
 8006fa4:	e8bd 40f8 	ldmia.w	sp!, {r3, r4, r5, r6, r7, lr}
 8006fa8:	4611      	mov	r1, r2
 8006faa:	f7fe b8e3 	b.w	8005174 <_malloc_r>
 8006fae:	b922      	cbnz	r2, 8006fba <_realloc_r+0x20>
 8006fb0:	f7fe f890 	bl	80050d4 <_free_r>
 8006fb4:	4625      	mov	r5, r4
 8006fb6:	4628      	mov	r0, r5
 8006fb8:	bdf8      	pop	{r3, r4, r5, r6, r7, pc}
 8006fba:	f000 f9ce 	bl	800735a <_malloc_usable_size_r>
 8006fbe:	42a0      	cmp	r0, r4
 8006fc0:	d20f      	bcs.n	8006fe2 <_realloc_r+0x48>
 8006fc2:	4621      	mov	r1, r4
 8006fc4:	4638      	mov	r0, r7
 8006fc6:	f7fe f8d5 	bl	8005174 <_malloc_r>
 8006fca:	4605      	mov	r5, r0
 8006fcc:	2800      	cmp	r0, #0
 8006fce:	d0f2      	beq.n	8006fb6 <_realloc_r+0x1c>
 8006fd0:	4631      	mov	r1, r6
 8006fd2:	4622      	mov	r2, r4
 8006fd4:	f7fe f868 	bl	80050a8 <memcpy>
 8006fd8:	4631      	mov	r1, r6
 8006fda:	4638      	mov	r0, r7
 8006fdc:	f7fe f87a 	bl	80050d4 <_free_r>
 8006fe0:	e7e9      	b.n	8006fb6 <_realloc_r+0x1c>
 8006fe2:	4635      	mov	r5, r6
 8006fe4:	e7e7      	b.n	8006fb6 <_realloc_r+0x1c>

08006fe6 <__ssputs_r>:
 8006fe6:	e92d 47f0 	stmdb	sp!, {r4, r5, r6, r7, r8, r9, sl, lr}
 8006fea:	688e      	ldr	r6, [r1, #8]
 8006fec:	429e      	cmp	r6, r3
 8006fee:	4682      	mov	sl, r0
 8006ff0:	460c      	mov	r4, r1
 8006ff2:	4690      	mov	r8, r2
 8006ff4:	461f      	mov	r7, r3
 8006ff6:	d838      	bhi.n	800706a <__ssputs_r+0x84>
 8006ff8:	898a      	ldrh	r2, [r1, #12]
 8006ffa:	f412 6f90 	tst.w	r2, #1152	; 0x480
 8006ffe:	d032      	beq.n	8007066 <__ssputs_r+0x80>
 8007000:	6825      	ldr	r5, [r4, #0]
 8007002:	6909      	ldr	r1, [r1, #16]
 8007004:	eba5 0901 	sub.w	r9, r5, r1
 8007008:	6965      	ldr	r5, [r4, #20]
 800700a:	eb05 0545 	add.w	r5, r5, r5, lsl #1
 800700e:	eb05 75d5 	add.w	r5, r5, r5, lsr #31
 8007012:	3301      	adds	r3, #1
 8007014:	444b      	add	r3, r9
 8007016:	106d      	asrs	r5, r5, #1
 8007018:	429d      	cmp	r5, r3
 800701a:	bf38      	it	cc
 800701c:	461d      	movcc	r5, r3
 800701e:	0553      	lsls	r3, r2, #21
 8007020:	d531      	bpl.n	8007086 <__ssputs_r+0xa0>
 8007022:	4629      	mov	r1, r5
 8007024:	f7fe f8a6 	bl	8005174 <_malloc_r>
 8007028:	4606      	mov	r6, r0
 800702a:	b950      	cbnz	r0, 8007042 <__ssputs_r+0x5c>
 800702c:	230c      	movs	r3, #12
 800702e:	f8ca 3000 	str.w	r3, [sl]
 8007032:	89a3      	ldrh	r3, [r4, #12]
 8007034:	f043 0340 	orr.w	r3, r3, #64	; 0x40
 8007038:	81a3      	strh	r3, [r4, #12]
 800703a:	f04f 30ff 	mov.w	r0, #4294967295
 800703e:	e8bd 87f0 	ldmia.w	sp!, {r4, r5, r6, r7, r8, r9, sl, pc}
 8007042:	6921      	ldr	r1, [r4, #16]
 8007044:	464a      	mov	r2, r9
 8007046:	f7fe f82f 	bl	80050a8 <memcpy>
 800704a:	89a3      	ldrh	r3, [r4, #12]
 800704c:	f423 6390 	bic.w	r3, r3, #1152	; 0x480
 8007050:	f043 0380 	orr.w	r3, r3, #128	; 0x80
 8007054:	81a3      	strh	r3, [r4, #12]
 8007056:	6126      	str	r6, [r4, #16]
 8007058:	6165      	str	r5, [r4, #20]
 800705a:	444e      	add	r6, r9
 800705c:	eba5 0509 	sub.w	r5, r5, r9
 8007060:	6026      	str	r6, [r4, #0]
 8007062:	60a5      	str	r5, [r4, #8]
 8007064:	463e      	mov	r6, r7
 8007066:	42be      	cmp	r6, r7
 8007068:	d900      	bls.n	800706c <__ssputs_r+0x86>
 800706a:	463e      	mov	r6, r7
 800706c:	4632      	mov	r2, r6
 800706e:	6820      	ldr	r0, [r4, #0]
 8007070:	4641      	mov	r1, r8
 8007072:	f000 f958 	bl	8007326 <memmove>
 8007076:	68a3      	ldr	r3, [r4, #8]
 8007078:	6822      	ldr	r2, [r4, #0]
 800707a:	1b9b      	subs	r3, r3, r6
 800707c:	4432      	add	r2, r6
 800707e:	60a3      	str	r3, [r4, #8]
 8007080:	6022      	str	r2, [r4, #0]
 8007082:	2000      	movs	r0, #0
 8007084:	e7db      	b.n	800703e <__ssputs_r+0x58>
 8007086:	462a      	mov	r2, r5
 8007088:	f7ff ff87 	bl	8006f9a <_realloc_r>
 800708c:	4606      	mov	r6, r0
 800708e:	2800      	cmp	r0, #0
 8007090:	d1e1      	bne.n	8007056 <__ssputs_r+0x70>
 8007092:	6921      	ldr	r1, [r4, #16]
 8007094:	4650      	mov	r0, sl
 8007096:	f7fe f81d 	bl	80050d4 <_free_r>
 800709a:	e7c7      	b.n	800702c <__ssputs_r+0x46>

0800709c <_svfiprintf_r>:
 800709c:	e92d 4ff0 	stmdb	sp!, {r4, r5, r6, r7, r8, r9, sl, fp, lr}
 80070a0:	4698      	mov	r8, r3
 80070a2:	898b      	ldrh	r3, [r1, #12]
 80070a4:	061b      	lsls	r3, r3, #24
 80070a6:	b09d      	sub	sp, #116	; 0x74
 80070a8:	4607      	mov	r7, r0
 80070aa:	460d      	mov	r5, r1
 80070ac:	4614      	mov	r4, r2
 80070ae:	d50e      	bpl.n	80070ce <_svfiprintf_r+0x32>
 80070b0:	690b      	ldr	r3, [r1, #16]
 80070b2:	b963      	cbnz	r3, 80070ce <_svfiprintf_r+0x32>
 80070b4:	2140      	movs	r1, #64	; 0x40
 80070b6:	f7fe f85d 	bl	8005174 <_malloc_r>
 80070ba:	6028      	str	r0, [r5, #0]
 80070bc:	6128      	str	r0, [r5, #16]
 80070be:	b920      	cbnz	r0, 80070ca <_svfiprintf_r+0x2e>
 80070c0:	230c      	movs	r3, #12
 80070c2:	603b      	str	r3, [r7, #0]
 80070c4:	f04f 30ff 	mov.w	r0, #4294967295
 80070c8:	e0d1      	b.n	800726e <_svfiprintf_r+0x1d2>
 80070ca:	2340      	movs	r3, #64	; 0x40
 80070cc:	616b      	str	r3, [r5, #20]
 80070ce:	2300      	movs	r3, #0
 80070d0:	9309      	str	r3, [sp, #36]	; 0x24
 80070d2:	2320      	movs	r3, #32
 80070d4:	f88d 3029 	strb.w	r3, [sp, #41]	; 0x29
 80070d8:	f8cd 800c 	str.w	r8, [sp, #12]
 80070dc:	2330      	movs	r3, #48	; 0x30
 80070de:	f8df 81a8 	ldr.w	r8, [pc, #424]	; 8007288 <_svfiprintf_r+0x1ec>
 80070e2:	f88d 302a 	strb.w	r3, [sp, #42]	; 0x2a
 80070e6:	f04f 0901 	mov.w	r9, #1
 80070ea:	4623      	mov	r3, r4
 80070ec:	469a      	mov	sl, r3
 80070ee:	f813 2b01 	ldrb.w	r2, [r3], #1
 80070f2:	b10a      	cbz	r2, 80070f8 <_svfiprintf_r+0x5c>
 80070f4:	2a25      	cmp	r2, #37	; 0x25
 80070f6:	d1f9      	bne.n	80070ec <_svfiprintf_r+0x50>
 80070f8:	ebba 0b04 	subs.w	fp, sl, r4
 80070fc:	d00b      	beq.n	8007116 <_svfiprintf_r+0x7a>
 80070fe:	465b      	mov	r3, fp
 8007100:	4622      	mov	r2, r4
 8007102:	4629      	mov	r1, r5
 8007104:	4638      	mov	r0, r7
 8007106:	f7ff ff6e 	bl	8006fe6 <__ssputs_r>
 800710a:	3001      	adds	r0, #1
 800710c:	f000 80aa 	beq.w	8007264 <_svfiprintf_r+0x1c8>
 8007110:	9a09      	ldr	r2, [sp, #36]	; 0x24
 8007112:	445a      	add	r2, fp
 8007114:	9209      	str	r2, [sp, #36]	; 0x24
 8007116:	f89a 3000 	ldrb.w	r3, [sl]
 800711a:	2b00      	cmp	r3, #0
 800711c:	f000 80a2 	beq.w	8007264 <_svfiprintf_r+0x1c8>
 8007120:	2300      	movs	r3, #0
 8007122:	f04f 32ff 	mov.w	r2, #4294967295
 8007126:	e9cd 2305 	strd	r2, r3, [sp, #20]
 800712a:	f10a 0a01 	add.w	sl, sl, #1
 800712e:	9304      	str	r3, [sp, #16]
 8007130:	9307      	str	r3, [sp, #28]
 8007132:	f88d 3053 	strb.w	r3, [sp, #83]	; 0x53
 8007136:	931a      	str	r3, [sp, #104]	; 0x68
 8007138:	4654      	mov	r4, sl
 800713a:	2205      	movs	r2, #5
 800713c:	f814 1b01 	ldrb.w	r1, [r4], #1
 8007140:	4851      	ldr	r0, [pc, #324]	; (8007288 <_svfiprintf_r+0x1ec>)
 8007142:	f7f9 f865 	bl	8000210 <memchr>
 8007146:	9a04      	ldr	r2, [sp, #16]
 8007148:	b9d8      	cbnz	r0, 8007182 <_svfiprintf_r+0xe6>
 800714a:	06d0      	lsls	r0, r2, #27
 800714c:	bf44      	itt	mi
 800714e:	2320      	movmi	r3, #32
 8007150:	f88d 3053 	strbmi.w	r3, [sp, #83]	; 0x53
 8007154:	0711      	lsls	r1, r2, #28
 8007156:	bf44      	itt	mi
 8007158:	232b      	movmi	r3, #43	; 0x2b
 800715a:	f88d 3053 	strbmi.w	r3, [sp, #83]	; 0x53
 800715e:	f89a 3000 	ldrb.w	r3, [sl]
 8007162:	2b2a      	cmp	r3, #42	; 0x2a
 8007164:	d015      	beq.n	8007192 <_svfiprintf_r+0xf6>
 8007166:	9a07      	ldr	r2, [sp, #28]
 8007168:	4654      	mov	r4, sl
 800716a:	2000      	movs	r0, #0
 800716c:	f04f 0c0a 	mov.w	ip, #10
 8007170:	4621      	mov	r1, r4
 8007172:	f811 3b01 	ldrb.w	r3, [r1], #1
 8007176:	3b30      	subs	r3, #48	; 0x30
 8007178:	2b09      	cmp	r3, #9
 800717a:	d94e      	bls.n	800721a <_svfiprintf_r+0x17e>
 800717c:	b1b0      	cbz	r0, 80071ac <_svfiprintf_r+0x110>
 800717e:	9207      	str	r2, [sp, #28]
 8007180:	e014      	b.n	80071ac <_svfiprintf_r+0x110>
 8007182:	eba0 0308 	sub.w	r3, r0, r8
 8007186:	fa09 f303 	lsl.w	r3, r9, r3
 800718a:	4313      	orrs	r3, r2
 800718c:	9304      	str	r3, [sp, #16]
 800718e:	46a2      	mov	sl, r4
 8007190:	e7d2      	b.n	8007138 <_svfiprintf_r+0x9c>
 8007192:	9b03      	ldr	r3, [sp, #12]
 8007194:	1d19      	adds	r1, r3, #4
 8007196:	681b      	ldr	r3, [r3, #0]
 8007198:	9103      	str	r1, [sp, #12]
 800719a:	2b00      	cmp	r3, #0
 800719c:	bfbb      	ittet	lt
 800719e:	425b      	neglt	r3, r3
 80071a0:	f042 0202 	orrlt.w	r2, r2, #2
 80071a4:	9307      	strge	r3, [sp, #28]
 80071a6:	9307      	strlt	r3, [sp, #28]
 80071a8:	bfb8      	it	lt
 80071aa:	9204      	strlt	r2, [sp, #16]
 80071ac:	7823      	ldrb	r3, [r4, #0]
 80071ae:	2b2e      	cmp	r3, #46	; 0x2e
 80071b0:	d10c      	bne.n	80071cc <_svfiprintf_r+0x130>
 80071b2:	7863      	ldrb	r3, [r4, #1]
 80071b4:	2b2a      	cmp	r3, #42	; 0x2a
 80071b6:	d135      	bne.n	8007224 <_svfiprintf_r+0x188>
 80071b8:	9b03      	ldr	r3, [sp, #12]
 80071ba:	1d1a      	adds	r2, r3, #4
 80071bc:	681b      	ldr	r3, [r3, #0]
 80071be:	9203      	str	r2, [sp, #12]
 80071c0:	2b00      	cmp	r3, #0
 80071c2:	bfb8      	it	lt
 80071c4:	f04f 33ff 	movlt.w	r3, #4294967295
 80071c8:	3402      	adds	r4, #2
 80071ca:	9305      	str	r3, [sp, #20]
 80071cc:	f8df a0c8 	ldr.w	sl, [pc, #200]	; 8007298 <_svfiprintf_r+0x1fc>
 80071d0:	7821      	ldrb	r1, [r4, #0]
 80071d2:	2203      	movs	r2, #3
 80071d4:	4650      	mov	r0, sl
 80071d6:	f7f9 f81b 	bl	8000210 <memchr>
 80071da:	b140      	cbz	r0, 80071ee <_svfiprintf_r+0x152>
 80071dc:	2340      	movs	r3, #64	; 0x40
 80071de:	eba0 000a 	sub.w	r0, r0, sl
 80071e2:	fa03 f000 	lsl.w	r0, r3, r0
 80071e6:	9b04      	ldr	r3, [sp, #16]
 80071e8:	4303      	orrs	r3, r0
 80071ea:	3401      	adds	r4, #1
 80071ec:	9304      	str	r3, [sp, #16]
 80071ee:	f814 1b01 	ldrb.w	r1, [r4], #1
 80071f2:	4826      	ldr	r0, [pc, #152]	; (800728c <_svfiprintf_r+0x1f0>)
 80071f4:	f88d 1028 	strb.w	r1, [sp, #40]	; 0x28
 80071f8:	2206      	movs	r2, #6
 80071fa:	f7f9 f809 	bl	8000210 <memchr>
 80071fe:	2800      	cmp	r0, #0
 8007200:	d038      	beq.n	8007274 <_svfiprintf_r+0x1d8>
 8007202:	4b23      	ldr	r3, [pc, #140]	; (8007290 <_svfiprintf_r+0x1f4>)
 8007204:	bb1b      	cbnz	r3, 800724e <_svfiprintf_r+0x1b2>
 8007206:	9b03      	ldr	r3, [sp, #12]
 8007208:	3307      	adds	r3, #7
 800720a:	f023 0307 	bic.w	r3, r3, #7
 800720e:	3308      	adds	r3, #8
 8007210:	9303      	str	r3, [sp, #12]
 8007212:	9b09      	ldr	r3, [sp, #36]	; 0x24
 8007214:	4433      	add	r3, r6
 8007216:	9309      	str	r3, [sp, #36]	; 0x24
 8007218:	e767      	b.n	80070ea <_svfiprintf_r+0x4e>
 800721a:	fb0c 3202 	mla	r2, ip, r2, r3
 800721e:	460c      	mov	r4, r1
 8007220:	2001      	movs	r0, #1
 8007222:	e7a5      	b.n	8007170 <_svfiprintf_r+0xd4>
 8007224:	2300      	movs	r3, #0
 8007226:	3401      	adds	r4, #1
 8007228:	9305      	str	r3, [sp, #20]
 800722a:	4619      	mov	r1, r3
 800722c:	f04f 0c0a 	mov.w	ip, #10
 8007230:	4620      	mov	r0, r4
 8007232:	f810 2b01 	ldrb.w	r2, [r0], #1
 8007236:	3a30      	subs	r2, #48	; 0x30
 8007238:	2a09      	cmp	r2, #9
 800723a:	d903      	bls.n	8007244 <_svfiprintf_r+0x1a8>
 800723c:	2b00      	cmp	r3, #0
 800723e:	d0c5      	beq.n	80071cc <_svfiprintf_r+0x130>
 8007240:	9105      	str	r1, [sp, #20]
 8007242:	e7c3      	b.n	80071cc <_svfiprintf_r+0x130>
 8007244:	fb0c 2101 	mla	r1, ip, r1, r2
 8007248:	4604      	mov	r4, r0
 800724a:	2301      	movs	r3, #1
 800724c:	e7f0      	b.n	8007230 <_svfiprintf_r+0x194>
 800724e:	ab03      	add	r3, sp, #12
 8007250:	9300      	str	r3, [sp, #0]
 8007252:	462a      	mov	r2, r5
 8007254:	4b0f      	ldr	r3, [pc, #60]	; (8007294 <_svfiprintf_r+0x1f8>)
 8007256:	a904      	add	r1, sp, #16
 8007258:	4638      	mov	r0, r7
 800725a:	f7fe f885 	bl	8005368 <_printf_float>
 800725e:	1c42      	adds	r2, r0, #1
 8007260:	4606      	mov	r6, r0
 8007262:	d1d6      	bne.n	8007212 <_svfiprintf_r+0x176>
 8007264:	89ab      	ldrh	r3, [r5, #12]
 8007266:	065b      	lsls	r3, r3, #25
 8007268:	f53f af2c 	bmi.w	80070c4 <_svfiprintf_r+0x28>
 800726c:	9809      	ldr	r0, [sp, #36]	; 0x24
 800726e:	b01d      	add	sp, #116	; 0x74
 8007270:	e8bd 8ff0 	ldmia.w	sp!, {r4, r5, r6, r7, r8, r9, sl, fp, pc}
 8007274:	ab03      	add	r3, sp, #12
 8007276:	9300      	str	r3, [sp, #0]
 8007278:	462a      	mov	r2, r5
 800727a:	4b06      	ldr	r3, [pc, #24]	; (8007294 <_svfiprintf_r+0x1f8>)
 800727c:	a904      	add	r1, sp, #16
 800727e:	4638      	mov	r0, r7
 8007280:	f7fe fb16 	bl	80058b0 <_printf_i>
 8007284:	e7eb      	b.n	800725e <_svfiprintf_r+0x1c2>
 8007286:	bf00      	nop
 8007288:	0803a554 	.word	0x0803a554
 800728c:	0803a55e 	.word	0x0803a55e
 8007290:	08005369 	.word	0x08005369
 8007294:	08006fe7 	.word	0x08006fe7
 8007298:	0803a55a 	.word	0x0803a55a

0800729c <__assert_func>:
 800729c:	b51f      	push	{r0, r1, r2, r3, r4, lr}
 800729e:	4614      	mov	r4, r2
 80072a0:	461a      	mov	r2, r3
 80072a2:	4b09      	ldr	r3, [pc, #36]	; (80072c8 <__assert_func+0x2c>)
 80072a4:	681b      	ldr	r3, [r3, #0]
 80072a6:	4605      	mov	r5, r0
 80072a8:	68d8      	ldr	r0, [r3, #12]
 80072aa:	b14c      	cbz	r4, 80072c0 <__assert_func+0x24>
 80072ac:	4b07      	ldr	r3, [pc, #28]	; (80072cc <__assert_func+0x30>)
 80072ae:	9100      	str	r1, [sp, #0]
 80072b0:	e9cd 3401 	strd	r3, r4, [sp, #4]
 80072b4:	4906      	ldr	r1, [pc, #24]	; (80072d0 <__assert_func+0x34>)
 80072b6:	462b      	mov	r3, r5
 80072b8:	f000 f80e 	bl	80072d8 <fiprintf>
 80072bc:	f000 fa7c 	bl	80077b8 <abort>
 80072c0:	4b04      	ldr	r3, [pc, #16]	; (80072d4 <__assert_func+0x38>)
 80072c2:	461c      	mov	r4, r3
 80072c4:	e7f3      	b.n	80072ae <__assert_func+0x12>
 80072c6:	bf00      	nop
 80072c8:	20000654 	.word	0x20000654
 80072cc:	0803a565 	.word	0x0803a565
 80072d0:	0803a572 	.word	0x0803a572
 80072d4:	080080b5 	.word	0x080080b5

080072d8 <fiprintf>:
 80072d8:	b40e      	push	{r1, r2, r3}
 80072da:	b503      	push	{r0, r1, lr}
 80072dc:	4601      	mov	r1, r0
 80072de:	ab03      	add	r3, sp, #12
 80072e0:	4805      	ldr	r0, [pc, #20]	; (80072f8 <fiprintf+0x20>)
 80072e2:	f853 2b04 	ldr.w	r2, [r3], #4
 80072e6:	6800      	ldr	r0, [r0, #0]
 80072e8:	9301      	str	r3, [sp, #4]
 80072ea:	f000 f867 	bl	80073bc <_vfiprintf_r>
 80072ee:	b002      	add	sp, #8
 80072f0:	f85d eb04 	ldr.w	lr, [sp], #4
 80072f4:	b003      	add	sp, #12
 80072f6:	4770      	bx	lr
 80072f8:	20000654 	.word	0x20000654

080072fc <__retarget_lock_init_recursive>:
 80072fc:	4770      	bx	lr

080072fe <__retarget_lock_acquire_recursive>:
 80072fe:	4770      	bx	lr

08007300 <__retarget_lock_release_recursive>:
 8007300:	4770      	bx	lr

08007302 <__ascii_mbtowc>:
 8007302:	b082      	sub	sp, #8
 8007304:	b901      	cbnz	r1, 8007308 <__ascii_mbtowc+0x6>
 8007306:	a901      	add	r1, sp, #4
 8007308:	b142      	cbz	r2, 800731c <__ascii_mbtowc+0x1a>
 800730a:	b14b      	cbz	r3, 8007320 <__ascii_mbtowc+0x1e>
 800730c:	7813      	ldrb	r3, [r2, #0]
 800730e:	600b      	str	r3, [r1, #0]
 8007310:	7812      	ldrb	r2, [r2, #0]
 8007312:	1e10      	subs	r0, r2, #0
 8007314:	bf18      	it	ne
 8007316:	2001      	movne	r0, #1
 8007318:	b002      	add	sp, #8
 800731a:	4770      	bx	lr
 800731c:	4610      	mov	r0, r2
 800731e:	e7fb      	b.n	8007318 <__ascii_mbtowc+0x16>
 8007320:	f06f 0001 	mvn.w	r0, #1
 8007324:	e7f8      	b.n	8007318 <__ascii_mbtowc+0x16>

08007326 <memmove>:
 8007326:	4288      	cmp	r0, r1
 8007328:	b510      	push	{r4, lr}
 800732a:	eb01 0402 	add.w	r4, r1, r2
 800732e:	d902      	bls.n	8007336 <memmove+0x10>
 8007330:	4284      	cmp	r4, r0
 8007332:	4623      	mov	r3, r4
 8007334:	d807      	bhi.n	8007346 <memmove+0x20>
 8007336:	1e43      	subs	r3, r0, #1
 8007338:	42a1      	cmp	r1, r4
 800733a:	d008      	beq.n	800734e <memmove+0x28>
 800733c:	f811 2b01 	ldrb.w	r2, [r1], #1
 8007340:	f803 2f01 	strb.w	r2, [r3, #1]!
 8007344:	e7f8      	b.n	8007338 <memmove+0x12>
 8007346:	4402      	add	r2, r0
 8007348:	4601      	mov	r1, r0
 800734a:	428a      	cmp	r2, r1
 800734c:	d100      	bne.n	8007350 <memmove+0x2a>
 800734e:	bd10      	pop	{r4, pc}
 8007350:	f813 4d01 	ldrb.w	r4, [r3, #-1]!
 8007354:	f802 4d01 	strb.w	r4, [r2, #-1]!
 8007358:	e7f7      	b.n	800734a <memmove+0x24>

0800735a <_malloc_usable_size_r>:
 800735a:	f851 3c04 	ldr.w	r3, [r1, #-4]
 800735e:	1f18      	subs	r0, r3, #4
 8007360:	2b00      	cmp	r3, #0
 8007362:	bfbc      	itt	lt
 8007364:	580b      	ldrlt	r3, [r1, r0]
 8007366:	18c0      	addlt	r0, r0, r3
 8007368:	4770      	bx	lr

0800736a <__sfputc_r>:
 800736a:	6893      	ldr	r3, [r2, #8]
 800736c:	3b01      	subs	r3, #1
 800736e:	2b00      	cmp	r3, #0
 8007370:	b410      	push	{r4}
 8007372:	6093      	str	r3, [r2, #8]
 8007374:	da08      	bge.n	8007388 <__sfputc_r+0x1e>
 8007376:	6994      	ldr	r4, [r2, #24]
 8007378:	42a3      	cmp	r3, r4
 800737a:	db01      	blt.n	8007380 <__sfputc_r+0x16>
 800737c:	290a      	cmp	r1, #10
 800737e:	d103      	bne.n	8007388 <__sfputc_r+0x1e>
 8007380:	f85d 4b04 	ldr.w	r4, [sp], #4
 8007384:	f000 b94a 	b.w	800761c <__swbuf_r>
 8007388:	6813      	ldr	r3, [r2, #0]
 800738a:	1c58      	adds	r0, r3, #1
 800738c:	6010      	str	r0, [r2, #0]
 800738e:	7019      	strb	r1, [r3, #0]
 8007390:	4608      	mov	r0, r1
 8007392:	f85d 4b04 	ldr.w	r4, [sp], #4
 8007396:	4770      	bx	lr

08007398 <__sfputs_r>:
 8007398:	b5f8      	push	{r3, r4, r5, r6, r7, lr}
 800739a:	4606      	mov	r6, r0
 800739c:	460f      	mov	r7, r1
 800739e:	4614      	mov	r4, r2
 80073a0:	18d5      	adds	r5, r2, r3
 80073a2:	42ac      	cmp	r4, r5
 80073a4:	d101      	bne.n	80073aa <__sfputs_r+0x12>
 80073a6:	2000      	movs	r0, #0
 80073a8:	e007      	b.n	80073ba <__sfputs_r+0x22>
 80073aa:	f814 1b01 	ldrb.w	r1, [r4], #1
 80073ae:	463a      	mov	r2, r7
 80073b0:	4630      	mov	r0, r6
 80073b2:	f7ff ffda 	bl	800736a <__sfputc_r>
 80073b6:	1c43      	adds	r3, r0, #1
 80073b8:	d1f3      	bne.n	80073a2 <__sfputs_r+0xa>
 80073ba:	bdf8      	pop	{r3, r4, r5, r6, r7, pc}

080073bc <_vfiprintf_r>:
 80073bc:	e92d 4ff0 	stmdb	sp!, {r4, r5, r6, r7, r8, r9, sl, fp, lr}
 80073c0:	460d      	mov	r5, r1
 80073c2:	b09d      	sub	sp, #116	; 0x74
 80073c4:	4614      	mov	r4, r2
 80073c6:	4698      	mov	r8, r3
 80073c8:	4606      	mov	r6, r0
 80073ca:	b118      	cbz	r0, 80073d4 <_vfiprintf_r+0x18>
 80073cc:	6983      	ldr	r3, [r0, #24]
 80073ce:	b90b      	cbnz	r3, 80073d4 <_vfiprintf_r+0x18>
 80073d0:	f000 fb14 	bl	80079fc <__sinit>
 80073d4:	4b89      	ldr	r3, [pc, #548]	; (80075fc <_vfiprintf_r+0x240>)
 80073d6:	429d      	cmp	r5, r3
 80073d8:	d11b      	bne.n	8007412 <_vfiprintf_r+0x56>
 80073da:	6875      	ldr	r5, [r6, #4]
 80073dc:	6e6b      	ldr	r3, [r5, #100]	; 0x64
 80073de:	07d9      	lsls	r1, r3, #31
 80073e0:	d405      	bmi.n	80073ee <_vfiprintf_r+0x32>
 80073e2:	89ab      	ldrh	r3, [r5, #12]
 80073e4:	059a      	lsls	r2, r3, #22
 80073e6:	d402      	bmi.n	80073ee <_vfiprintf_r+0x32>
 80073e8:	6da8      	ldr	r0, [r5, #88]	; 0x58
 80073ea:	f7ff ff88 	bl	80072fe <__retarget_lock_acquire_recursive>
 80073ee:	89ab      	ldrh	r3, [r5, #12]
 80073f0:	071b      	lsls	r3, r3, #28
 80073f2:	d501      	bpl.n	80073f8 <_vfiprintf_r+0x3c>
 80073f4:	692b      	ldr	r3, [r5, #16]
 80073f6:	b9eb      	cbnz	r3, 8007434 <_vfiprintf_r+0x78>
 80073f8:	4629      	mov	r1, r5
 80073fa:	4630      	mov	r0, r6
 80073fc:	f000 f96e 	bl	80076dc <__swsetup_r>
 8007400:	b1c0      	cbz	r0, 8007434 <_vfiprintf_r+0x78>
 8007402:	6e6b      	ldr	r3, [r5, #100]	; 0x64
 8007404:	07dc      	lsls	r4, r3, #31
 8007406:	d50e      	bpl.n	8007426 <_vfiprintf_r+0x6a>
 8007408:	f04f 30ff 	mov.w	r0, #4294967295
 800740c:	b01d      	add	sp, #116	; 0x74
 800740e:	e8bd 8ff0 	ldmia.w	sp!, {r4, r5, r6, r7, r8, r9, sl, fp, pc}
 8007412:	4b7b      	ldr	r3, [pc, #492]	; (8007600 <_vfiprintf_r+0x244>)
 8007414:	429d      	cmp	r5, r3
 8007416:	d101      	bne.n	800741c <_vfiprintf_r+0x60>
 8007418:	68b5      	ldr	r5, [r6, #8]
 800741a:	e7df      	b.n	80073dc <_vfiprintf_r+0x20>
 800741c:	4b79      	ldr	r3, [pc, #484]	; (8007604 <_vfiprintf_r+0x248>)
 800741e:	429d      	cmp	r5, r3
 8007420:	bf08      	it	eq
 8007422:	68f5      	ldreq	r5, [r6, #12]
 8007424:	e7da      	b.n	80073dc <_vfiprintf_r+0x20>
 8007426:	89ab      	ldrh	r3, [r5, #12]
 8007428:	0598      	lsls	r0, r3, #22
 800742a:	d4ed      	bmi.n	8007408 <_vfiprintf_r+0x4c>
 800742c:	6da8      	ldr	r0, [r5, #88]	; 0x58
 800742e:	f7ff ff67 	bl	8007300 <__retarget_lock_release_recursive>
 8007432:	e7e9      	b.n	8007408 <_vfiprintf_r+0x4c>
 8007434:	2300      	movs	r3, #0
 8007436:	9309      	str	r3, [sp, #36]	; 0x24
 8007438:	2320      	movs	r3, #32
 800743a:	f88d 3029 	strb.w	r3, [sp, #41]	; 0x29
 800743e:	f8cd 800c 	str.w	r8, [sp, #12]
 8007442:	2330      	movs	r3, #48	; 0x30
 8007444:	f8df 81c0 	ldr.w	r8, [pc, #448]	; 8007608 <_vfiprintf_r+0x24c>
 8007448:	f88d 302a 	strb.w	r3, [sp, #42]	; 0x2a
 800744c:	f04f 0901 	mov.w	r9, #1
 8007450:	4623      	mov	r3, r4
 8007452:	469a      	mov	sl, r3
 8007454:	f813 2b01 	ldrb.w	r2, [r3], #1
 8007458:	b10a      	cbz	r2, 800745e <_vfiprintf_r+0xa2>
 800745a:	2a25      	cmp	r2, #37	; 0x25
 800745c:	d1f9      	bne.n	8007452 <_vfiprintf_r+0x96>
 800745e:	ebba 0b04 	subs.w	fp, sl, r4
 8007462:	d00b      	beq.n	800747c <_vfiprintf_r+0xc0>
 8007464:	465b      	mov	r3, fp
 8007466:	4622      	mov	r2, r4
 8007468:	4629      	mov	r1, r5
 800746a:	4630      	mov	r0, r6
 800746c:	f7ff ff94 	bl	8007398 <__sfputs_r>
 8007470:	3001      	adds	r0, #1
 8007472:	f000 80aa 	beq.w	80075ca <_vfiprintf_r+0x20e>
 8007476:	9a09      	ldr	r2, [sp, #36]	; 0x24
 8007478:	445a      	add	r2, fp
 800747a:	9209      	str	r2, [sp, #36]	; 0x24
 800747c:	f89a 3000 	ldrb.w	r3, [sl]
 8007480:	2b00      	cmp	r3, #0
 8007482:	f000 80a2 	beq.w	80075ca <_vfiprintf_r+0x20e>
 8007486:	2300      	movs	r3, #0
 8007488:	f04f 32ff 	mov.w	r2, #4294967295
 800748c:	e9cd 2305 	strd	r2, r3, [sp, #20]
 8007490:	f10a 0a01 	add.w	sl, sl, #1
 8007494:	9304      	str	r3, [sp, #16]
 8007496:	9307      	str	r3, [sp, #28]
 8007498:	f88d 3053 	strb.w	r3, [sp, #83]	; 0x53
 800749c:	931a      	str	r3, [sp, #104]	; 0x68
 800749e:	4654      	mov	r4, sl
 80074a0:	2205      	movs	r2, #5
 80074a2:	f814 1b01 	ldrb.w	r1, [r4], #1
 80074a6:	4858      	ldr	r0, [pc, #352]	; (8007608 <_vfiprintf_r+0x24c>)
 80074a8:	f7f8 feb2 	bl	8000210 <memchr>
 80074ac:	9a04      	ldr	r2, [sp, #16]
 80074ae:	b9d8      	cbnz	r0, 80074e8 <_vfiprintf_r+0x12c>
 80074b0:	06d1      	lsls	r1, r2, #27
 80074b2:	bf44      	itt	mi
 80074b4:	2320      	movmi	r3, #32
 80074b6:	f88d 3053 	strbmi.w	r3, [sp, #83]	; 0x53
 80074ba:	0713      	lsls	r3, r2, #28
 80074bc:	bf44      	itt	mi
 80074be:	232b      	movmi	r3, #43	; 0x2b
 80074c0:	f88d 3053 	strbmi.w	r3, [sp, #83]	; 0x53
 80074c4:	f89a 3000 	ldrb.w	r3, [sl]
 80074c8:	2b2a      	cmp	r3, #42	; 0x2a
 80074ca:	d015      	beq.n	80074f8 <_vfiprintf_r+0x13c>
 80074cc:	9a07      	ldr	r2, [sp, #28]
 80074ce:	4654      	mov	r4, sl
 80074d0:	2000      	movs	r0, #0
 80074d2:	f04f 0c0a 	mov.w	ip, #10
 80074d6:	4621      	mov	r1, r4
 80074d8:	f811 3b01 	ldrb.w	r3, [r1], #1
 80074dc:	3b30      	subs	r3, #48	; 0x30
 80074de:	2b09      	cmp	r3, #9
 80074e0:	d94e      	bls.n	8007580 <_vfiprintf_r+0x1c4>
 80074e2:	b1b0      	cbz	r0, 8007512 <_vfiprintf_r+0x156>
 80074e4:	9207      	str	r2, [sp, #28]
 80074e6:	e014      	b.n	8007512 <_vfiprintf_r+0x156>
 80074e8:	eba0 0308 	sub.w	r3, r0, r8
 80074ec:	fa09 f303 	lsl.w	r3, r9, r3
 80074f0:	4313      	orrs	r3, r2
 80074f2:	9304      	str	r3, [sp, #16]
 80074f4:	46a2      	mov	sl, r4
 80074f6:	e7d2      	b.n	800749e <_vfiprintf_r+0xe2>
 80074f8:	9b03      	ldr	r3, [sp, #12]
 80074fa:	1d19      	adds	r1, r3, #4
 80074fc:	681b      	ldr	r3, [r3, #0]
 80074fe:	9103      	str	r1, [sp, #12]
 8007500:	2b00      	cmp	r3, #0
 8007502:	bfbb      	ittet	lt
 8007504:	425b      	neglt	r3, r3
 8007506:	f042 0202 	orrlt.w	r2, r2, #2
 800750a:	9307      	strge	r3, [sp, #28]
 800750c:	9307      	strlt	r3, [sp, #28]
 800750e:	bfb8      	it	lt
 8007510:	9204      	strlt	r2, [sp, #16]
 8007512:	7823      	ldrb	r3, [r4, #0]
 8007514:	2b2e      	cmp	r3, #46	; 0x2e
 8007516:	d10c      	bne.n	8007532 <_vfiprintf_r+0x176>
 8007518:	7863      	ldrb	r3, [r4, #1]
 800751a:	2b2a      	cmp	r3, #42	; 0x2a
 800751c:	d135      	bne.n	800758a <_vfiprintf_r+0x1ce>
 800751e:	9b03      	ldr	r3, [sp, #12]
 8007520:	1d1a      	adds	r2, r3, #4
 8007522:	681b      	ldr	r3, [r3, #0]
 8007524:	9203      	str	r2, [sp, #12]
 8007526:	2b00      	cmp	r3, #0
 8007528:	bfb8      	it	lt
 800752a:	f04f 33ff 	movlt.w	r3, #4294967295
 800752e:	3402      	adds	r4, #2
 8007530:	9305      	str	r3, [sp, #20]
 8007532:	f8df a0e4 	ldr.w	sl, [pc, #228]	; 8007618 <_vfiprintf_r+0x25c>
 8007536:	7821      	ldrb	r1, [r4, #0]
 8007538:	2203      	movs	r2, #3
 800753a:	4650      	mov	r0, sl
 800753c:	f7f8 fe68 	bl	8000210 <memchr>
 8007540:	b140      	cbz	r0, 8007554 <_vfiprintf_r+0x198>
 8007542:	2340      	movs	r3, #64	; 0x40
 8007544:	eba0 000a 	sub.w	r0, r0, sl
 8007548:	fa03 f000 	lsl.w	r0, r3, r0
 800754c:	9b04      	ldr	r3, [sp, #16]
 800754e:	4303      	orrs	r3, r0
 8007550:	3401      	adds	r4, #1
 8007552:	9304      	str	r3, [sp, #16]
 8007554:	f814 1b01 	ldrb.w	r1, [r4], #1
 8007558:	482c      	ldr	r0, [pc, #176]	; (800760c <_vfiprintf_r+0x250>)
 800755a:	f88d 1028 	strb.w	r1, [sp, #40]	; 0x28
 800755e:	2206      	movs	r2, #6
 8007560:	f7f8 fe56 	bl	8000210 <memchr>
 8007564:	2800      	cmp	r0, #0
 8007566:	d03f      	beq.n	80075e8 <_vfiprintf_r+0x22c>
 8007568:	4b29      	ldr	r3, [pc, #164]	; (8007610 <_vfiprintf_r+0x254>)
 800756a:	bb1b      	cbnz	r3, 80075b4 <_vfiprintf_r+0x1f8>
 800756c:	9b03      	ldr	r3, [sp, #12]
 800756e:	3307      	adds	r3, #7
 8007570:	f023 0307 	bic.w	r3, r3, #7
 8007574:	3308      	adds	r3, #8
 8007576:	9303      	str	r3, [sp, #12]
 8007578:	9b09      	ldr	r3, [sp, #36]	; 0x24
 800757a:	443b      	add	r3, r7
 800757c:	9309      	str	r3, [sp, #36]	; 0x24
 800757e:	e767      	b.n	8007450 <_vfiprintf_r+0x94>
 8007580:	fb0c 3202 	mla	r2, ip, r2, r3
 8007584:	460c      	mov	r4, r1
 8007586:	2001      	movs	r0, #1
 8007588:	e7a5      	b.n	80074d6 <_vfiprintf_r+0x11a>
 800758a:	2300      	movs	r3, #0
 800758c:	3401      	adds	r4, #1
 800758e:	9305      	str	r3, [sp, #20]
 8007590:	4619      	mov	r1, r3
 8007592:	f04f 0c0a 	mov.w	ip, #10
 8007596:	4620      	mov	r0, r4
 8007598:	f810 2b01 	ldrb.w	r2, [r0], #1
 800759c:	3a30      	subs	r2, #48	; 0x30
 800759e:	2a09      	cmp	r2, #9
 80075a0:	d903      	bls.n	80075aa <_vfiprintf_r+0x1ee>
 80075a2:	2b00      	cmp	r3, #0
 80075a4:	d0c5      	beq.n	8007532 <_vfiprintf_r+0x176>
 80075a6:	9105      	str	r1, [sp, #20]
 80075a8:	e7c3      	b.n	8007532 <_vfiprintf_r+0x176>
 80075aa:	fb0c 2101 	mla	r1, ip, r1, r2
 80075ae:	4604      	mov	r4, r0
 80075b0:	2301      	movs	r3, #1
 80075b2:	e7f0      	b.n	8007596 <_vfiprintf_r+0x1da>
 80075b4:	ab03      	add	r3, sp, #12
 80075b6:	9300      	str	r3, [sp, #0]
 80075b8:	462a      	mov	r2, r5
 80075ba:	4b16      	ldr	r3, [pc, #88]	; (8007614 <_vfiprintf_r+0x258>)
 80075bc:	a904      	add	r1, sp, #16
 80075be:	4630      	mov	r0, r6
 80075c0:	f7fd fed2 	bl	8005368 <_printf_float>
 80075c4:	4607      	mov	r7, r0
 80075c6:	1c78      	adds	r0, r7, #1
 80075c8:	d1d6      	bne.n	8007578 <_vfiprintf_r+0x1bc>
 80075ca:	6e6b      	ldr	r3, [r5, #100]	; 0x64
 80075cc:	07d9      	lsls	r1, r3, #31
 80075ce:	d405      	bmi.n	80075dc <_vfiprintf_r+0x220>
 80075d0:	89ab      	ldrh	r3, [r5, #12]
 80075d2:	059a      	lsls	r2, r3, #22
 80075d4:	d402      	bmi.n	80075dc <_vfiprintf_r+0x220>
 80075d6:	6da8      	ldr	r0, [r5, #88]	; 0x58
 80075d8:	f7ff fe92 	bl	8007300 <__retarget_lock_release_recursive>
 80075dc:	89ab      	ldrh	r3, [r5, #12]
 80075de:	065b      	lsls	r3, r3, #25
 80075e0:	f53f af12 	bmi.w	8007408 <_vfiprintf_r+0x4c>
 80075e4:	9809      	ldr	r0, [sp, #36]	; 0x24
 80075e6:	e711      	b.n	800740c <_vfiprintf_r+0x50>
 80075e8:	ab03      	add	r3, sp, #12
 80075ea:	9300      	str	r3, [sp, #0]
 80075ec:	462a      	mov	r2, r5
 80075ee:	4b09      	ldr	r3, [pc, #36]	; (8007614 <_vfiprintf_r+0x258>)
 80075f0:	a904      	add	r1, sp, #16
 80075f2:	4630      	mov	r0, r6
 80075f4:	f7fe f95c 	bl	80058b0 <_printf_i>
 80075f8:	e7e4      	b.n	80075c4 <_vfiprintf_r+0x208>
 80075fa:	bf00      	nop
 80075fc:	0803a6cc 	.word	0x0803a6cc
 8007600:	0803a6ec 	.word	0x0803a6ec
 8007604:	0803a6ac 	.word	0x0803a6ac
 8007608:	0803a554 	.word	0x0803a554
 800760c:	0803a55e 	.word	0x0803a55e
 8007610:	08005369 	.word	0x08005369
 8007614:	08007399 	.word	0x08007399
 8007618:	0803a55a 	.word	0x0803a55a

0800761c <__swbuf_r>:
 800761c:	b5f8      	push	{r3, r4, r5, r6, r7, lr}
 800761e:	460e      	mov	r6, r1
 8007620:	4614      	mov	r4, r2
 8007622:	4605      	mov	r5, r0
 8007624:	b118      	cbz	r0, 800762e <__swbuf_r+0x12>
 8007626:	6983      	ldr	r3, [r0, #24]
 8007628:	b90b      	cbnz	r3, 800762e <__swbuf_r+0x12>
 800762a:	f000 f9e7 	bl	80079fc <__sinit>
 800762e:	4b21      	ldr	r3, [pc, #132]	; (80076b4 <__swbuf_r+0x98>)
 8007630:	429c      	cmp	r4, r3
 8007632:	d12b      	bne.n	800768c <__swbuf_r+0x70>
 8007634:	686c      	ldr	r4, [r5, #4]
 8007636:	69a3      	ldr	r3, [r4, #24]
 8007638:	60a3      	str	r3, [r4, #8]
 800763a:	89a3      	ldrh	r3, [r4, #12]
 800763c:	071a      	lsls	r2, r3, #28
 800763e:	d52f      	bpl.n	80076a0 <__swbuf_r+0x84>
 8007640:	6923      	ldr	r3, [r4, #16]
 8007642:	b36b      	cbz	r3, 80076a0 <__swbuf_r+0x84>
 8007644:	6923      	ldr	r3, [r4, #16]
 8007646:	6820      	ldr	r0, [r4, #0]
 8007648:	1ac0      	subs	r0, r0, r3
 800764a:	6963      	ldr	r3, [r4, #20]
 800764c:	b2f6      	uxtb	r6, r6
 800764e:	4283      	cmp	r3, r0
 8007650:	4637      	mov	r7, r6
 8007652:	dc04      	bgt.n	800765e <__swbuf_r+0x42>
 8007654:	4621      	mov	r1, r4
 8007656:	4628      	mov	r0, r5
 8007658:	f000 f93c 	bl	80078d4 <_fflush_r>
 800765c:	bb30      	cbnz	r0, 80076ac <__swbuf_r+0x90>
 800765e:	68a3      	ldr	r3, [r4, #8]
 8007660:	3b01      	subs	r3, #1
 8007662:	60a3      	str	r3, [r4, #8]
 8007664:	6823      	ldr	r3, [r4, #0]
 8007666:	1c5a      	adds	r2, r3, #1
 8007668:	6022      	str	r2, [r4, #0]
 800766a:	701e      	strb	r6, [r3, #0]
 800766c:	6963      	ldr	r3, [r4, #20]
 800766e:	3001      	adds	r0, #1
 8007670:	4283      	cmp	r3, r0
 8007672:	d004      	beq.n	800767e <__swbuf_r+0x62>
 8007674:	89a3      	ldrh	r3, [r4, #12]
 8007676:	07db      	lsls	r3, r3, #31
 8007678:	d506      	bpl.n	8007688 <__swbuf_r+0x6c>
 800767a:	2e0a      	cmp	r6, #10
 800767c:	d104      	bne.n	8007688 <__swbuf_r+0x6c>
 800767e:	4621      	mov	r1, r4
 8007680:	4628      	mov	r0, r5
 8007682:	f000 f927 	bl	80078d4 <_fflush_r>
 8007686:	b988      	cbnz	r0, 80076ac <__swbuf_r+0x90>
 8007688:	4638      	mov	r0, r7
 800768a:	bdf8      	pop	{r3, r4, r5, r6, r7, pc}
 800768c:	4b0a      	ldr	r3, [pc, #40]	; (80076b8 <__swbuf_r+0x9c>)
 800768e:	429c      	cmp	r4, r3
 8007690:	d101      	bne.n	8007696 <__swbuf_r+0x7a>
 8007692:	68ac      	ldr	r4, [r5, #8]
 8007694:	e7cf      	b.n	8007636 <__swbuf_r+0x1a>
 8007696:	4b09      	ldr	r3, [pc, #36]	; (80076bc <__swbuf_r+0xa0>)
 8007698:	429c      	cmp	r4, r3
 800769a:	bf08      	it	eq
 800769c:	68ec      	ldreq	r4, [r5, #12]
 800769e:	e7ca      	b.n	8007636 <__swbuf_r+0x1a>
 80076a0:	4621      	mov	r1, r4
 80076a2:	4628      	mov	r0, r5
 80076a4:	f000 f81a 	bl	80076dc <__swsetup_r>
 80076a8:	2800      	cmp	r0, #0
 80076aa:	d0cb      	beq.n	8007644 <__swbuf_r+0x28>
 80076ac:	f04f 37ff 	mov.w	r7, #4294967295
 80076b0:	e7ea      	b.n	8007688 <__swbuf_r+0x6c>
 80076b2:	bf00      	nop
 80076b4:	0803a6cc 	.word	0x0803a6cc
 80076b8:	0803a6ec 	.word	0x0803a6ec
 80076bc:	0803a6ac 	.word	0x0803a6ac

080076c0 <__ascii_wctomb>:
 80076c0:	b149      	cbz	r1, 80076d6 <__ascii_wctomb+0x16>
 80076c2:	2aff      	cmp	r2, #255	; 0xff
 80076c4:	bf85      	ittet	hi
 80076c6:	238a      	movhi	r3, #138	; 0x8a
 80076c8:	6003      	strhi	r3, [r0, #0]
 80076ca:	700a      	strbls	r2, [r1, #0]
 80076cc:	f04f 30ff 	movhi.w	r0, #4294967295
 80076d0:	bf98      	it	ls
 80076d2:	2001      	movls	r0, #1
 80076d4:	4770      	bx	lr
 80076d6:	4608      	mov	r0, r1
 80076d8:	4770      	bx	lr
	...

080076dc <__swsetup_r>:
 80076dc:	4b32      	ldr	r3, [pc, #200]	; (80077a8 <__swsetup_r+0xcc>)
 80076de:	b570      	push	{r4, r5, r6, lr}
 80076e0:	681d      	ldr	r5, [r3, #0]
 80076e2:	4606      	mov	r6, r0
 80076e4:	460c      	mov	r4, r1
 80076e6:	b125      	cbz	r5, 80076f2 <__swsetup_r+0x16>
 80076e8:	69ab      	ldr	r3, [r5, #24]
 80076ea:	b913      	cbnz	r3, 80076f2 <__swsetup_r+0x16>
 80076ec:	4628      	mov	r0, r5
 80076ee:	f000 f985 	bl	80079fc <__sinit>
 80076f2:	4b2e      	ldr	r3, [pc, #184]	; (80077ac <__swsetup_r+0xd0>)
 80076f4:	429c      	cmp	r4, r3
 80076f6:	d10f      	bne.n	8007718 <__swsetup_r+0x3c>
 80076f8:	686c      	ldr	r4, [r5, #4]
 80076fa:	89a3      	ldrh	r3, [r4, #12]
 80076fc:	f9b4 200c 	ldrsh.w	r2, [r4, #12]
 8007700:	0719      	lsls	r1, r3, #28
 8007702:	d42c      	bmi.n	800775e <__swsetup_r+0x82>
 8007704:	06dd      	lsls	r5, r3, #27
 8007706:	d411      	bmi.n	800772c <__swsetup_r+0x50>
 8007708:	2309      	movs	r3, #9
 800770a:	6033      	str	r3, [r6, #0]
 800770c:	f042 0340 	orr.w	r3, r2, #64	; 0x40
 8007710:	81a3      	strh	r3, [r4, #12]
 8007712:	f04f 30ff 	mov.w	r0, #4294967295
 8007716:	e03e      	b.n	8007796 <__swsetup_r+0xba>
 8007718:	4b25      	ldr	r3, [pc, #148]	; (80077b0 <__swsetup_r+0xd4>)
 800771a:	429c      	cmp	r4, r3
 800771c:	d101      	bne.n	8007722 <__swsetup_r+0x46>
 800771e:	68ac      	ldr	r4, [r5, #8]
 8007720:	e7eb      	b.n	80076fa <__swsetup_r+0x1e>
 8007722:	4b24      	ldr	r3, [pc, #144]	; (80077b4 <__swsetup_r+0xd8>)
 8007724:	429c      	cmp	r4, r3
 8007726:	bf08      	it	eq
 8007728:	68ec      	ldreq	r4, [r5, #12]
 800772a:	e7e6      	b.n	80076fa <__swsetup_r+0x1e>
 800772c:	0758      	lsls	r0, r3, #29
 800772e:	d512      	bpl.n	8007756 <__swsetup_r+0x7a>
 8007730:	6b61      	ldr	r1, [r4, #52]	; 0x34
 8007732:	b141      	cbz	r1, 8007746 <__swsetup_r+0x6a>
 8007734:	f104 0344 	add.w	r3, r4, #68	; 0x44
 8007738:	4299      	cmp	r1, r3
 800773a:	d002      	beq.n	8007742 <__swsetup_r+0x66>
 800773c:	4630      	mov	r0, r6
 800773e:	f7fd fcc9 	bl	80050d4 <_free_r>
 8007742:	2300      	movs	r3, #0
 8007744:	6363      	str	r3, [r4, #52]	; 0x34
 8007746:	89a3      	ldrh	r3, [r4, #12]
 8007748:	f023 0324 	bic.w	r3, r3, #36	; 0x24
 800774c:	81a3      	strh	r3, [r4, #12]
 800774e:	2300      	movs	r3, #0
 8007750:	6063      	str	r3, [r4, #4]
 8007752:	6923      	ldr	r3, [r4, #16]
 8007754:	6023      	str	r3, [r4, #0]
 8007756:	89a3      	ldrh	r3, [r4, #12]
 8007758:	f043 0308 	orr.w	r3, r3, #8
 800775c:	81a3      	strh	r3, [r4, #12]
 800775e:	6923      	ldr	r3, [r4, #16]
 8007760:	b94b      	cbnz	r3, 8007776 <__swsetup_r+0x9a>
 8007762:	89a3      	ldrh	r3, [r4, #12]
 8007764:	f403 7320 	and.w	r3, r3, #640	; 0x280
 8007768:	f5b3 7f00 	cmp.w	r3, #512	; 0x200
 800776c:	d003      	beq.n	8007776 <__swsetup_r+0x9a>
 800776e:	4621      	mov	r1, r4
 8007770:	4630      	mov	r0, r6
 8007772:	f000 fa05 	bl	8007b80 <__smakebuf_r>
 8007776:	89a0      	ldrh	r0, [r4, #12]
 8007778:	f9b4 200c 	ldrsh.w	r2, [r4, #12]
 800777c:	f010 0301 	ands.w	r3, r0, #1
 8007780:	d00a      	beq.n	8007798 <__swsetup_r+0xbc>
 8007782:	2300      	movs	r3, #0
 8007784:	60a3      	str	r3, [r4, #8]
 8007786:	6963      	ldr	r3, [r4, #20]
 8007788:	425b      	negs	r3, r3
 800778a:	61a3      	str	r3, [r4, #24]
 800778c:	6923      	ldr	r3, [r4, #16]
 800778e:	b943      	cbnz	r3, 80077a2 <__swsetup_r+0xc6>
 8007790:	f010 0080 	ands.w	r0, r0, #128	; 0x80
 8007794:	d1ba      	bne.n	800770c <__swsetup_r+0x30>
 8007796:	bd70      	pop	{r4, r5, r6, pc}
 8007798:	0781      	lsls	r1, r0, #30
 800779a:	bf58      	it	pl
 800779c:	6963      	ldrpl	r3, [r4, #20]
 800779e:	60a3      	str	r3, [r4, #8]
 80077a0:	e7f4      	b.n	800778c <__swsetup_r+0xb0>
 80077a2:	2000      	movs	r0, #0
 80077a4:	e7f7      	b.n	8007796 <__swsetup_r+0xba>
 80077a6:	bf00      	nop
 80077a8:	20000654 	.word	0x20000654
 80077ac:	0803a6cc 	.word	0x0803a6cc
 80077b0:	0803a6ec 	.word	0x0803a6ec
 80077b4:	0803a6ac 	.word	0x0803a6ac

080077b8 <abort>:
 80077b8:	b508      	push	{r3, lr}
 80077ba:	2006      	movs	r0, #6
 80077bc:	f000 fa48 	bl	8007c50 <raise>
 80077c0:	2001      	movs	r0, #1
 80077c2:	f7f9 fe63 	bl	800148c <_exit>
	...

080077c8 <__sflush_r>:
 80077c8:	898a      	ldrh	r2, [r1, #12]
 80077ca:	e92d 41f0 	stmdb	sp!, {r4, r5, r6, r7, r8, lr}
 80077ce:	4605      	mov	r5, r0
 80077d0:	0710      	lsls	r0, r2, #28
 80077d2:	460c      	mov	r4, r1
 80077d4:	d458      	bmi.n	8007888 <__sflush_r+0xc0>
 80077d6:	684b      	ldr	r3, [r1, #4]
 80077d8:	2b00      	cmp	r3, #0
 80077da:	dc05      	bgt.n	80077e8 <__sflush_r+0x20>
 80077dc:	6c0b      	ldr	r3, [r1, #64]	; 0x40
 80077de:	2b00      	cmp	r3, #0
 80077e0:	dc02      	bgt.n	80077e8 <__sflush_r+0x20>
 80077e2:	2000      	movs	r0, #0
 80077e4:	e8bd 81f0 	ldmia.w	sp!, {r4, r5, r6, r7, r8, pc}
 80077e8:	6ae6      	ldr	r6, [r4, #44]	; 0x2c
 80077ea:	2e00      	cmp	r6, #0
 80077ec:	d0f9      	beq.n	80077e2 <__sflush_r+0x1a>
 80077ee:	2300      	movs	r3, #0
 80077f0:	f412 5280 	ands.w	r2, r2, #4096	; 0x1000
 80077f4:	682f      	ldr	r7, [r5, #0]
 80077f6:	602b      	str	r3, [r5, #0]
 80077f8:	d032      	beq.n	8007860 <__sflush_r+0x98>
 80077fa:	6d60      	ldr	r0, [r4, #84]	; 0x54
 80077fc:	89a3      	ldrh	r3, [r4, #12]
 80077fe:	075a      	lsls	r2, r3, #29
 8007800:	d505      	bpl.n	800780e <__sflush_r+0x46>
 8007802:	6863      	ldr	r3, [r4, #4]
 8007804:	1ac0      	subs	r0, r0, r3
 8007806:	6b63      	ldr	r3, [r4, #52]	; 0x34
 8007808:	b10b      	cbz	r3, 800780e <__sflush_r+0x46>
 800780a:	6c23      	ldr	r3, [r4, #64]	; 0x40
 800780c:	1ac0      	subs	r0, r0, r3
 800780e:	2300      	movs	r3, #0
 8007810:	4602      	mov	r2, r0
 8007812:	6ae6      	ldr	r6, [r4, #44]	; 0x2c
 8007814:	6a21      	ldr	r1, [r4, #32]
 8007816:	4628      	mov	r0, r5
 8007818:	47b0      	blx	r6
 800781a:	1c43      	adds	r3, r0, #1
 800781c:	89a3      	ldrh	r3, [r4, #12]
 800781e:	d106      	bne.n	800782e <__sflush_r+0x66>
 8007820:	6829      	ldr	r1, [r5, #0]
 8007822:	291d      	cmp	r1, #29
 8007824:	d82c      	bhi.n	8007880 <__sflush_r+0xb8>
 8007826:	4a2a      	ldr	r2, [pc, #168]	; (80078d0 <__sflush_r+0x108>)
 8007828:	40ca      	lsrs	r2, r1
 800782a:	07d6      	lsls	r6, r2, #31
 800782c:	d528      	bpl.n	8007880 <__sflush_r+0xb8>
 800782e:	2200      	movs	r2, #0
 8007830:	6062      	str	r2, [r4, #4]
 8007832:	04d9      	lsls	r1, r3, #19
 8007834:	6922      	ldr	r2, [r4, #16]
 8007836:	6022      	str	r2, [r4, #0]
 8007838:	d504      	bpl.n	8007844 <__sflush_r+0x7c>
 800783a:	1c42      	adds	r2, r0, #1
 800783c:	d101      	bne.n	8007842 <__sflush_r+0x7a>
 800783e:	682b      	ldr	r3, [r5, #0]
 8007840:	b903      	cbnz	r3, 8007844 <__sflush_r+0x7c>
 8007842:	6560      	str	r0, [r4, #84]	; 0x54
 8007844:	6b61      	ldr	r1, [r4, #52]	; 0x34
 8007846:	602f      	str	r7, [r5, #0]
 8007848:	2900      	cmp	r1, #0
 800784a:	d0ca      	beq.n	80077e2 <__sflush_r+0x1a>
 800784c:	f104 0344 	add.w	r3, r4, #68	; 0x44
 8007850:	4299      	cmp	r1, r3
 8007852:	d002      	beq.n	800785a <__sflush_r+0x92>
 8007854:	4628      	mov	r0, r5
 8007856:	f7fd fc3d 	bl	80050d4 <_free_r>
 800785a:	2000      	movs	r0, #0
 800785c:	6360      	str	r0, [r4, #52]	; 0x34
 800785e:	e7c1      	b.n	80077e4 <__sflush_r+0x1c>
 8007860:	6a21      	ldr	r1, [r4, #32]
 8007862:	2301      	movs	r3, #1
 8007864:	4628      	mov	r0, r5
 8007866:	47b0      	blx	r6
 8007868:	1c41      	adds	r1, r0, #1
 800786a:	d1c7      	bne.n	80077fc <__sflush_r+0x34>
 800786c:	682b      	ldr	r3, [r5, #0]
 800786e:	2b00      	cmp	r3, #0
 8007870:	d0c4      	beq.n	80077fc <__sflush_r+0x34>
 8007872:	2b1d      	cmp	r3, #29
 8007874:	d001      	beq.n	800787a <__sflush_r+0xb2>
 8007876:	2b16      	cmp	r3, #22
 8007878:	d101      	bne.n	800787e <__sflush_r+0xb6>
 800787a:	602f      	str	r7, [r5, #0]
 800787c:	e7b1      	b.n	80077e2 <__sflush_r+0x1a>
 800787e:	89a3      	ldrh	r3, [r4, #12]
 8007880:	f043 0340 	orr.w	r3, r3, #64	; 0x40
 8007884:	81a3      	strh	r3, [r4, #12]
 8007886:	e7ad      	b.n	80077e4 <__sflush_r+0x1c>
 8007888:	690f      	ldr	r7, [r1, #16]
 800788a:	2f00      	cmp	r7, #0
 800788c:	d0a9      	beq.n	80077e2 <__sflush_r+0x1a>
 800788e:	0793      	lsls	r3, r2, #30
 8007890:	680e      	ldr	r6, [r1, #0]
 8007892:	bf08      	it	eq
 8007894:	694b      	ldreq	r3, [r1, #20]
 8007896:	600f      	str	r7, [r1, #0]
 8007898:	bf18      	it	ne
 800789a:	2300      	movne	r3, #0
 800789c:	eba6 0807 	sub.w	r8, r6, r7
 80078a0:	608b      	str	r3, [r1, #8]
 80078a2:	f1b8 0f00 	cmp.w	r8, #0
 80078a6:	dd9c      	ble.n	80077e2 <__sflush_r+0x1a>
 80078a8:	6a21      	ldr	r1, [r4, #32]
 80078aa:	6aa6      	ldr	r6, [r4, #40]	; 0x28
 80078ac:	4643      	mov	r3, r8
 80078ae:	463a      	mov	r2, r7
 80078b0:	4628      	mov	r0, r5
 80078b2:	47b0      	blx	r6
 80078b4:	2800      	cmp	r0, #0
 80078b6:	dc06      	bgt.n	80078c6 <__sflush_r+0xfe>
 80078b8:	89a3      	ldrh	r3, [r4, #12]
 80078ba:	f043 0340 	orr.w	r3, r3, #64	; 0x40
 80078be:	81a3      	strh	r3, [r4, #12]
 80078c0:	f04f 30ff 	mov.w	r0, #4294967295
 80078c4:	e78e      	b.n	80077e4 <__sflush_r+0x1c>
 80078c6:	4407      	add	r7, r0
 80078c8:	eba8 0800 	sub.w	r8, r8, r0
 80078cc:	e7e9      	b.n	80078a2 <__sflush_r+0xda>
 80078ce:	bf00      	nop
 80078d0:	20400001 	.word	0x20400001

080078d4 <_fflush_r>:
 80078d4:	b538      	push	{r3, r4, r5, lr}
 80078d6:	690b      	ldr	r3, [r1, #16]
 80078d8:	4605      	mov	r5, r0
 80078da:	460c      	mov	r4, r1
 80078dc:	b913      	cbnz	r3, 80078e4 <_fflush_r+0x10>
 80078de:	2500      	movs	r5, #0
 80078e0:	4628      	mov	r0, r5
 80078e2:	bd38      	pop	{r3, r4, r5, pc}
 80078e4:	b118      	cbz	r0, 80078ee <_fflush_r+0x1a>
 80078e6:	6983      	ldr	r3, [r0, #24]
 80078e8:	b90b      	cbnz	r3, 80078ee <_fflush_r+0x1a>
 80078ea:	f000 f887 	bl	80079fc <__sinit>
 80078ee:	4b14      	ldr	r3, [pc, #80]	; (8007940 <_fflush_r+0x6c>)
 80078f0:	429c      	cmp	r4, r3
 80078f2:	d11b      	bne.n	800792c <_fflush_r+0x58>
 80078f4:	686c      	ldr	r4, [r5, #4]
 80078f6:	f9b4 300c 	ldrsh.w	r3, [r4, #12]
 80078fa:	2b00      	cmp	r3, #0
 80078fc:	d0ef      	beq.n	80078de <_fflush_r+0xa>
 80078fe:	6e62      	ldr	r2, [r4, #100]	; 0x64
 8007900:	07d0      	lsls	r0, r2, #31
 8007902:	d404      	bmi.n	800790e <_fflush_r+0x3a>
 8007904:	0599      	lsls	r1, r3, #22
 8007906:	d402      	bmi.n	800790e <_fflush_r+0x3a>
 8007908:	6da0      	ldr	r0, [r4, #88]	; 0x58
 800790a:	f7ff fcf8 	bl	80072fe <__retarget_lock_acquire_recursive>
 800790e:	4628      	mov	r0, r5
 8007910:	4621      	mov	r1, r4
 8007912:	f7ff ff59 	bl	80077c8 <__sflush_r>
 8007916:	6e63      	ldr	r3, [r4, #100]	; 0x64
 8007918:	07da      	lsls	r2, r3, #31
 800791a:	4605      	mov	r5, r0
 800791c:	d4e0      	bmi.n	80078e0 <_fflush_r+0xc>
 800791e:	89a3      	ldrh	r3, [r4, #12]
 8007920:	059b      	lsls	r3, r3, #22
 8007922:	d4dd      	bmi.n	80078e0 <_fflush_r+0xc>
 8007924:	6da0      	ldr	r0, [r4, #88]	; 0x58
 8007926:	f7ff fceb 	bl	8007300 <__retarget_lock_release_recursive>
 800792a:	e7d9      	b.n	80078e0 <_fflush_r+0xc>
 800792c:	4b05      	ldr	r3, [pc, #20]	; (8007944 <_fflush_r+0x70>)
 800792e:	429c      	cmp	r4, r3
 8007930:	d101      	bne.n	8007936 <_fflush_r+0x62>
 8007932:	68ac      	ldr	r4, [r5, #8]
 8007934:	e7df      	b.n	80078f6 <_fflush_r+0x22>
 8007936:	4b04      	ldr	r3, [pc, #16]	; (8007948 <_fflush_r+0x74>)
 8007938:	429c      	cmp	r4, r3
 800793a:	bf08      	it	eq
 800793c:	68ec      	ldreq	r4, [r5, #12]
 800793e:	e7da      	b.n	80078f6 <_fflush_r+0x22>
 8007940:	0803a6cc 	.word	0x0803a6cc
 8007944:	0803a6ec 	.word	0x0803a6ec
 8007948:	0803a6ac 	.word	0x0803a6ac

0800794c <std>:
 800794c:	2300      	movs	r3, #0
 800794e:	b510      	push	{r4, lr}
 8007950:	4604      	mov	r4, r0
 8007952:	e9c0 3300 	strd	r3, r3, [r0]
 8007956:	e9c0 3304 	strd	r3, r3, [r0, #16]
 800795a:	6083      	str	r3, [r0, #8]
 800795c:	8181      	strh	r1, [r0, #12]
 800795e:	6643      	str	r3, [r0, #100]	; 0x64
 8007960:	81c2      	strh	r2, [r0, #14]
 8007962:	6183      	str	r3, [r0, #24]
 8007964:	4619      	mov	r1, r3
 8007966:	2208      	movs	r2, #8
 8007968:	305c      	adds	r0, #92	; 0x5c
 800796a:	f7fd fbab 	bl	80050c4 <memset>
 800796e:	4b05      	ldr	r3, [pc, #20]	; (8007984 <std+0x38>)
 8007970:	6263      	str	r3, [r4, #36]	; 0x24
 8007972:	4b05      	ldr	r3, [pc, #20]	; (8007988 <std+0x3c>)
 8007974:	62a3      	str	r3, [r4, #40]	; 0x28
 8007976:	4b05      	ldr	r3, [pc, #20]	; (800798c <std+0x40>)
 8007978:	62e3      	str	r3, [r4, #44]	; 0x2c
 800797a:	4b05      	ldr	r3, [pc, #20]	; (8007990 <std+0x44>)
 800797c:	6224      	str	r4, [r4, #32]
 800797e:	6323      	str	r3, [r4, #48]	; 0x30
 8007980:	bd10      	pop	{r4, pc}
 8007982:	bf00      	nop
 8007984:	08007c89 	.word	0x08007c89
 8007988:	08007cab 	.word	0x08007cab
 800798c:	08007ce3 	.word	0x08007ce3
 8007990:	08007d07 	.word	0x08007d07

08007994 <_cleanup_r>:
 8007994:	4901      	ldr	r1, [pc, #4]	; (800799c <_cleanup_r+0x8>)
 8007996:	f000 b8af 	b.w	8007af8 <_fwalk_reent>
 800799a:	bf00      	nop
 800799c:	080078d5 	.word	0x080078d5

080079a0 <__sfmoreglue>:
 80079a0:	b570      	push	{r4, r5, r6, lr}
 80079a2:	1e4a      	subs	r2, r1, #1
 80079a4:	2568      	movs	r5, #104	; 0x68
 80079a6:	4355      	muls	r5, r2
 80079a8:	460e      	mov	r6, r1
 80079aa:	f105 0174 	add.w	r1, r5, #116	; 0x74
 80079ae:	f7fd fbe1 	bl	8005174 <_malloc_r>
 80079b2:	4604      	mov	r4, r0
 80079b4:	b140      	cbz	r0, 80079c8 <__sfmoreglue+0x28>
 80079b6:	2100      	movs	r1, #0
 80079b8:	e9c0 1600 	strd	r1, r6, [r0]
 80079bc:	300c      	adds	r0, #12
 80079be:	60a0      	str	r0, [r4, #8]
 80079c0:	f105 0268 	add.w	r2, r5, #104	; 0x68
 80079c4:	f7fd fb7e 	bl	80050c4 <memset>
 80079c8:	4620      	mov	r0, r4
 80079ca:	bd70      	pop	{r4, r5, r6, pc}

080079cc <__sfp_lock_acquire>:
 80079cc:	4801      	ldr	r0, [pc, #4]	; (80079d4 <__sfp_lock_acquire+0x8>)
 80079ce:	f7ff bc96 	b.w	80072fe <__retarget_lock_acquire_recursive>
 80079d2:	bf00      	nop
 80079d4:	20000a60 	.word	0x20000a60

080079d8 <__sfp_lock_release>:
 80079d8:	4801      	ldr	r0, [pc, #4]	; (80079e0 <__sfp_lock_release+0x8>)
 80079da:	f7ff bc91 	b.w	8007300 <__retarget_lock_release_recursive>
 80079de:	bf00      	nop
 80079e0:	20000a60 	.word	0x20000a60

080079e4 <__sinit_lock_acquire>:
 80079e4:	4801      	ldr	r0, [pc, #4]	; (80079ec <__sinit_lock_acquire+0x8>)
 80079e6:	f7ff bc8a 	b.w	80072fe <__retarget_lock_acquire_recursive>
 80079ea:	bf00      	nop
 80079ec:	20000a5b 	.word	0x20000a5b

080079f0 <__sinit_lock_release>:
 80079f0:	4801      	ldr	r0, [pc, #4]	; (80079f8 <__sinit_lock_release+0x8>)
 80079f2:	f7ff bc85 	b.w	8007300 <__retarget_lock_release_recursive>
 80079f6:	bf00      	nop
 80079f8:	20000a5b 	.word	0x20000a5b

080079fc <__sinit>:
 80079fc:	b510      	push	{r4, lr}
 80079fe:	4604      	mov	r4, r0
 8007a00:	f7ff fff0 	bl	80079e4 <__sinit_lock_acquire>
 8007a04:	69a3      	ldr	r3, [r4, #24]
 8007a06:	b11b      	cbz	r3, 8007a10 <__sinit+0x14>
 8007a08:	e8bd 4010 	ldmia.w	sp!, {r4, lr}
 8007a0c:	f7ff bff0 	b.w	80079f0 <__sinit_lock_release>
 8007a10:	e9c4 3312 	strd	r3, r3, [r4, #72]	; 0x48
 8007a14:	6523      	str	r3, [r4, #80]	; 0x50
 8007a16:	4b13      	ldr	r3, [pc, #76]	; (8007a64 <__sinit+0x68>)
 8007a18:	4a13      	ldr	r2, [pc, #76]	; (8007a68 <__sinit+0x6c>)
 8007a1a:	681b      	ldr	r3, [r3, #0]
 8007a1c:	62a2      	str	r2, [r4, #40]	; 0x28
 8007a1e:	42a3      	cmp	r3, r4
 8007a20:	bf04      	itt	eq
 8007a22:	2301      	moveq	r3, #1
 8007a24:	61a3      	streq	r3, [r4, #24]
 8007a26:	4620      	mov	r0, r4
 8007a28:	f000 f820 	bl	8007a6c <__sfp>
 8007a2c:	6060      	str	r0, [r4, #4]
 8007a2e:	4620      	mov	r0, r4
 8007a30:	f000 f81c 	bl	8007a6c <__sfp>
 8007a34:	60a0      	str	r0, [r4, #8]
 8007a36:	4620      	mov	r0, r4
 8007a38:	f000 f818 	bl	8007a6c <__sfp>
 8007a3c:	2200      	movs	r2, #0
 8007a3e:	60e0      	str	r0, [r4, #12]
 8007a40:	2104      	movs	r1, #4
 8007a42:	6860      	ldr	r0, [r4, #4]
 8007a44:	f7ff ff82 	bl	800794c <std>
 8007a48:	68a0      	ldr	r0, [r4, #8]
 8007a4a:	2201      	movs	r2, #1
 8007a4c:	2109      	movs	r1, #9
 8007a4e:	f7ff ff7d 	bl	800794c <std>
 8007a52:	68e0      	ldr	r0, [r4, #12]
 8007a54:	2202      	movs	r2, #2
 8007a56:	2112      	movs	r1, #18
 8007a58:	f7ff ff78 	bl	800794c <std>
 8007a5c:	2301      	movs	r3, #1
 8007a5e:	61a3      	str	r3, [r4, #24]
 8007a60:	e7d2      	b.n	8007a08 <__sinit+0xc>
 8007a62:	bf00      	nop
 8007a64:	0803a328 	.word	0x0803a328
 8007a68:	08007995 	.word	0x08007995

08007a6c <__sfp>:
 8007a6c:	b5f8      	push	{r3, r4, r5, r6, r7, lr}
 8007a6e:	4607      	mov	r7, r0
 8007a70:	f7ff ffac 	bl	80079cc <__sfp_lock_acquire>
 8007a74:	4b1e      	ldr	r3, [pc, #120]	; (8007af0 <__sfp+0x84>)
 8007a76:	681e      	ldr	r6, [r3, #0]
 8007a78:	69b3      	ldr	r3, [r6, #24]
 8007a7a:	b913      	cbnz	r3, 8007a82 <__sfp+0x16>
 8007a7c:	4630      	mov	r0, r6
 8007a7e:	f7ff ffbd 	bl	80079fc <__sinit>
 8007a82:	3648      	adds	r6, #72	; 0x48
 8007a84:	e9d6 3401 	ldrd	r3, r4, [r6, #4]
 8007a88:	3b01      	subs	r3, #1
 8007a8a:	d503      	bpl.n	8007a94 <__sfp+0x28>
 8007a8c:	6833      	ldr	r3, [r6, #0]
 8007a8e:	b30b      	cbz	r3, 8007ad4 <__sfp+0x68>
 8007a90:	6836      	ldr	r6, [r6, #0]
 8007a92:	e7f7      	b.n	8007a84 <__sfp+0x18>
 8007a94:	f9b4 500c 	ldrsh.w	r5, [r4, #12]
 8007a98:	b9d5      	cbnz	r5, 8007ad0 <__sfp+0x64>
 8007a9a:	4b16      	ldr	r3, [pc, #88]	; (8007af4 <__sfp+0x88>)
 8007a9c:	60e3      	str	r3, [r4, #12]
 8007a9e:	f104 0058 	add.w	r0, r4, #88	; 0x58
 8007aa2:	6665      	str	r5, [r4, #100]	; 0x64
 8007aa4:	f7ff fc2a 	bl	80072fc <__retarget_lock_init_recursive>
 8007aa8:	f7ff ff96 	bl	80079d8 <__sfp_lock_release>
 8007aac:	e9c4 5501 	strd	r5, r5, [r4, #4]
 8007ab0:	e9c4 5504 	strd	r5, r5, [r4, #16]
 8007ab4:	6025      	str	r5, [r4, #0]
 8007ab6:	61a5      	str	r5, [r4, #24]
 8007ab8:	2208      	movs	r2, #8
 8007aba:	4629      	mov	r1, r5
 8007abc:	f104 005c 	add.w	r0, r4, #92	; 0x5c
 8007ac0:	f7fd fb00 	bl	80050c4 <memset>
 8007ac4:	e9c4 550d 	strd	r5, r5, [r4, #52]	; 0x34
 8007ac8:	e9c4 5512 	strd	r5, r5, [r4, #72]	; 0x48
 8007acc:	4620      	mov	r0, r4
 8007ace:	bdf8      	pop	{r3, r4, r5, r6, r7, pc}
 8007ad0:	3468      	adds	r4, #104	; 0x68
 8007ad2:	e7d9      	b.n	8007a88 <__sfp+0x1c>
 8007ad4:	2104      	movs	r1, #4
 8007ad6:	4638      	mov	r0, r7
 8007ad8:	f7ff ff62 	bl	80079a0 <__sfmoreglue>
 8007adc:	4604      	mov	r4, r0
 8007ade:	6030      	str	r0, [r6, #0]
 8007ae0:	2800      	cmp	r0, #0
 8007ae2:	d1d5      	bne.n	8007a90 <__sfp+0x24>
 8007ae4:	f7ff ff78 	bl	80079d8 <__sfp_lock_release>
 8007ae8:	230c      	movs	r3, #12
 8007aea:	603b      	str	r3, [r7, #0]
 8007aec:	e7ee      	b.n	8007acc <__sfp+0x60>
 8007aee:	bf00      	nop
 8007af0:	0803a328 	.word	0x0803a328
 8007af4:	ffff0001 	.word	0xffff0001

08007af8 <_fwalk_reent>:
 8007af8:	e92d 43f8 	stmdb	sp!, {r3, r4, r5, r6, r7, r8, r9, lr}
 8007afc:	4606      	mov	r6, r0
 8007afe:	4688      	mov	r8, r1
 8007b00:	f100 0448 	add.w	r4, r0, #72	; 0x48
 8007b04:	2700      	movs	r7, #0
 8007b06:	e9d4 9501 	ldrd	r9, r5, [r4, #4]
 8007b0a:	f1b9 0901 	subs.w	r9, r9, #1
 8007b0e:	d505      	bpl.n	8007b1c <_fwalk_reent+0x24>
 8007b10:	6824      	ldr	r4, [r4, #0]
 8007b12:	2c00      	cmp	r4, #0
 8007b14:	d1f7      	bne.n	8007b06 <_fwalk_reent+0xe>
 8007b16:	4638      	mov	r0, r7
 8007b18:	e8bd 83f8 	ldmia.w	sp!, {r3, r4, r5, r6, r7, r8, r9, pc}
 8007b1c:	89ab      	ldrh	r3, [r5, #12]
 8007b1e:	2b01      	cmp	r3, #1
 8007b20:	d907      	bls.n	8007b32 <_fwalk_reent+0x3a>
 8007b22:	f9b5 300e 	ldrsh.w	r3, [r5, #14]
 8007b26:	3301      	adds	r3, #1
 8007b28:	d003      	beq.n	8007b32 <_fwalk_reent+0x3a>
 8007b2a:	4629      	mov	r1, r5
 8007b2c:	4630      	mov	r0, r6
 8007b2e:	47c0      	blx	r8
 8007b30:	4307      	orrs	r7, r0
 8007b32:	3568      	adds	r5, #104	; 0x68
 8007b34:	e7e9      	b.n	8007b0a <_fwalk_reent+0x12>

08007b36 <__swhatbuf_r>:
 8007b36:	b570      	push	{r4, r5, r6, lr}
 8007b38:	460e      	mov	r6, r1
 8007b3a:	f9b1 100e 	ldrsh.w	r1, [r1, #14]
 8007b3e:	2900      	cmp	r1, #0
 8007b40:	b096      	sub	sp, #88	; 0x58
 8007b42:	4614      	mov	r4, r2
 8007b44:	461d      	mov	r5, r3
 8007b46:	da07      	bge.n	8007b58 <__swhatbuf_r+0x22>
 8007b48:	2300      	movs	r3, #0
 8007b4a:	602b      	str	r3, [r5, #0]
 8007b4c:	89b3      	ldrh	r3, [r6, #12]
 8007b4e:	061a      	lsls	r2, r3, #24
 8007b50:	d410      	bmi.n	8007b74 <__swhatbuf_r+0x3e>
 8007b52:	f44f 6380 	mov.w	r3, #1024	; 0x400
 8007b56:	e00e      	b.n	8007b76 <__swhatbuf_r+0x40>
 8007b58:	466a      	mov	r2, sp
 8007b5a:	f000 f8fb 	bl	8007d54 <_fstat_r>
 8007b5e:	2800      	cmp	r0, #0
 8007b60:	dbf2      	blt.n	8007b48 <__swhatbuf_r+0x12>
 8007b62:	9a01      	ldr	r2, [sp, #4]
 8007b64:	f402 4270 	and.w	r2, r2, #61440	; 0xf000
 8007b68:	f5a2 5300 	sub.w	r3, r2, #8192	; 0x2000
 8007b6c:	425a      	negs	r2, r3
 8007b6e:	415a      	adcs	r2, r3
 8007b70:	602a      	str	r2, [r5, #0]
 8007b72:	e7ee      	b.n	8007b52 <__swhatbuf_r+0x1c>
 8007b74:	2340      	movs	r3, #64	; 0x40
 8007b76:	2000      	movs	r0, #0
 8007b78:	6023      	str	r3, [r4, #0]
 8007b7a:	b016      	add	sp, #88	; 0x58
 8007b7c:	bd70      	pop	{r4, r5, r6, pc}
	...

08007b80 <__smakebuf_r>:
 8007b80:	898b      	ldrh	r3, [r1, #12]
 8007b82:	b573      	push	{r0, r1, r4, r5, r6, lr}
 8007b84:	079d      	lsls	r5, r3, #30
 8007b86:	4606      	mov	r6, r0
 8007b88:	460c      	mov	r4, r1
 8007b8a:	d507      	bpl.n	8007b9c <__smakebuf_r+0x1c>
 8007b8c:	f104 0347 	add.w	r3, r4, #71	; 0x47
 8007b90:	6023      	str	r3, [r4, #0]
 8007b92:	6123      	str	r3, [r4, #16]
 8007b94:	2301      	movs	r3, #1
 8007b96:	6163      	str	r3, [r4, #20]
 8007b98:	b002      	add	sp, #8
 8007b9a:	bd70      	pop	{r4, r5, r6, pc}
 8007b9c:	ab01      	add	r3, sp, #4
 8007b9e:	466a      	mov	r2, sp
 8007ba0:	f7ff ffc9 	bl	8007b36 <__swhatbuf_r>
 8007ba4:	9900      	ldr	r1, [sp, #0]
 8007ba6:	4605      	mov	r5, r0
 8007ba8:	4630      	mov	r0, r6
 8007baa:	f7fd fae3 	bl	8005174 <_malloc_r>
 8007bae:	b948      	cbnz	r0, 8007bc4 <__smakebuf_r+0x44>
 8007bb0:	f9b4 300c 	ldrsh.w	r3, [r4, #12]
 8007bb4:	059a      	lsls	r2, r3, #22
 8007bb6:	d4ef      	bmi.n	8007b98 <__smakebuf_r+0x18>
 8007bb8:	f023 0303 	bic.w	r3, r3, #3
 8007bbc:	f043 0302 	orr.w	r3, r3, #2
 8007bc0:	81a3      	strh	r3, [r4, #12]
 8007bc2:	e7e3      	b.n	8007b8c <__smakebuf_r+0xc>
 8007bc4:	4b0d      	ldr	r3, [pc, #52]	; (8007bfc <__smakebuf_r+0x7c>)
 8007bc6:	62b3      	str	r3, [r6, #40]	; 0x28
 8007bc8:	89a3      	ldrh	r3, [r4, #12]
 8007bca:	6020      	str	r0, [r4, #0]
 8007bcc:	f043 0380 	orr.w	r3, r3, #128	; 0x80
 8007bd0:	81a3      	strh	r3, [r4, #12]
 8007bd2:	9b00      	ldr	r3, [sp, #0]
 8007bd4:	6163      	str	r3, [r4, #20]
 8007bd6:	9b01      	ldr	r3, [sp, #4]
 8007bd8:	6120      	str	r0, [r4, #16]
 8007bda:	b15b      	cbz	r3, 8007bf4 <__smakebuf_r+0x74>
 8007bdc:	f9b4 100e 	ldrsh.w	r1, [r4, #14]
 8007be0:	4630      	mov	r0, r6
 8007be2:	f000 f8c9 	bl	8007d78 <_isatty_r>
 8007be6:	b128      	cbz	r0, 8007bf4 <__smakebuf_r+0x74>
 8007be8:	89a3      	ldrh	r3, [r4, #12]
 8007bea:	f023 0303 	bic.w	r3, r3, #3
 8007bee:	f043 0301 	orr.w	r3, r3, #1
 8007bf2:	81a3      	strh	r3, [r4, #12]
 8007bf4:	89a0      	ldrh	r0, [r4, #12]
 8007bf6:	4305      	orrs	r5, r0
 8007bf8:	81a5      	strh	r5, [r4, #12]
 8007bfa:	e7cd      	b.n	8007b98 <__smakebuf_r+0x18>
 8007bfc:	08007995 	.word	0x08007995

08007c00 <_raise_r>:
 8007c00:	291f      	cmp	r1, #31
 8007c02:	b538      	push	{r3, r4, r5, lr}
 8007c04:	4604      	mov	r4, r0
 8007c06:	460d      	mov	r5, r1
 8007c08:	d904      	bls.n	8007c14 <_raise_r+0x14>
 8007c0a:	2316      	movs	r3, #22
 8007c0c:	6003      	str	r3, [r0, #0]
 8007c0e:	f04f 30ff 	mov.w	r0, #4294967295
 8007c12:	bd38      	pop	{r3, r4, r5, pc}
 8007c14:	6c42      	ldr	r2, [r0, #68]	; 0x44
 8007c16:	b112      	cbz	r2, 8007c1e <_raise_r+0x1e>
 8007c18:	f852 3021 	ldr.w	r3, [r2, r1, lsl #2]
 8007c1c:	b94b      	cbnz	r3, 8007c32 <_raise_r+0x32>
 8007c1e:	4620      	mov	r0, r4
 8007c20:	f000 f830 	bl	8007c84 <_getpid_r>
 8007c24:	462a      	mov	r2, r5
 8007c26:	4601      	mov	r1, r0
 8007c28:	4620      	mov	r0, r4
 8007c2a:	e8bd 4038 	ldmia.w	sp!, {r3, r4, r5, lr}
 8007c2e:	f000 b817 	b.w	8007c60 <_kill_r>
 8007c32:	2b01      	cmp	r3, #1
 8007c34:	d00a      	beq.n	8007c4c <_raise_r+0x4c>
 8007c36:	1c59      	adds	r1, r3, #1
 8007c38:	d103      	bne.n	8007c42 <_raise_r+0x42>
 8007c3a:	2316      	movs	r3, #22
 8007c3c:	6003      	str	r3, [r0, #0]
 8007c3e:	2001      	movs	r0, #1
 8007c40:	e7e7      	b.n	8007c12 <_raise_r+0x12>
 8007c42:	2400      	movs	r4, #0
 8007c44:	f842 4025 	str.w	r4, [r2, r5, lsl #2]
 8007c48:	4628      	mov	r0, r5
 8007c4a:	4798      	blx	r3
 8007c4c:	2000      	movs	r0, #0
 8007c4e:	e7e0      	b.n	8007c12 <_raise_r+0x12>

08007c50 <raise>:
 8007c50:	4b02      	ldr	r3, [pc, #8]	; (8007c5c <raise+0xc>)
 8007c52:	4601      	mov	r1, r0
 8007c54:	6818      	ldr	r0, [r3, #0]
 8007c56:	f7ff bfd3 	b.w	8007c00 <_raise_r>
 8007c5a:	bf00      	nop
 8007c5c:	20000654 	.word	0x20000654

08007c60 <_kill_r>:
 8007c60:	b538      	push	{r3, r4, r5, lr}
 8007c62:	4d07      	ldr	r5, [pc, #28]	; (8007c80 <_kill_r+0x20>)
 8007c64:	2300      	movs	r3, #0
 8007c66:	4604      	mov	r4, r0
 8007c68:	4608      	mov	r0, r1
 8007c6a:	4611      	mov	r1, r2
 8007c6c:	602b      	str	r3, [r5, #0]
 8007c6e:	f7f9 fc05 	bl	800147c <_kill>
 8007c72:	1c43      	adds	r3, r0, #1
 8007c74:	d102      	bne.n	8007c7c <_kill_r+0x1c>
 8007c76:	682b      	ldr	r3, [r5, #0]
 8007c78:	b103      	cbz	r3, 8007c7c <_kill_r+0x1c>
 8007c7a:	6023      	str	r3, [r4, #0]
 8007c7c:	bd38      	pop	{r3, r4, r5, pc}
 8007c7e:	bf00      	nop
 8007c80:	20000a54 	.word	0x20000a54

08007c84 <_getpid_r>:
 8007c84:	f7f9 bbf8 	b.w	8001478 <_getpid>

08007c88 <__sread>:
 8007c88:	b510      	push	{r4, lr}
 8007c8a:	460c      	mov	r4, r1
 8007c8c:	f9b1 100e 	ldrsh.w	r1, [r1, #14]
 8007c90:	f000 f894 	bl	8007dbc <_read_r>
 8007c94:	2800      	cmp	r0, #0
 8007c96:	bfab      	itete	ge
 8007c98:	6d63      	ldrge	r3, [r4, #84]	; 0x54
 8007c9a:	89a3      	ldrhlt	r3, [r4, #12]
 8007c9c:	181b      	addge	r3, r3, r0
 8007c9e:	f423 5380 	biclt.w	r3, r3, #4096	; 0x1000
 8007ca2:	bfac      	ite	ge
 8007ca4:	6563      	strge	r3, [r4, #84]	; 0x54
 8007ca6:	81a3      	strhlt	r3, [r4, #12]
 8007ca8:	bd10      	pop	{r4, pc}

08007caa <__swrite>:
 8007caa:	e92d 41f0 	stmdb	sp!, {r4, r5, r6, r7, r8, lr}
 8007cae:	461f      	mov	r7, r3
 8007cb0:	898b      	ldrh	r3, [r1, #12]
 8007cb2:	05db      	lsls	r3, r3, #23
 8007cb4:	4605      	mov	r5, r0
 8007cb6:	460c      	mov	r4, r1
 8007cb8:	4616      	mov	r6, r2
 8007cba:	d505      	bpl.n	8007cc8 <__swrite+0x1e>
 8007cbc:	f9b1 100e 	ldrsh.w	r1, [r1, #14]
 8007cc0:	2302      	movs	r3, #2
 8007cc2:	2200      	movs	r2, #0
 8007cc4:	f000 f868 	bl	8007d98 <_lseek_r>
 8007cc8:	89a3      	ldrh	r3, [r4, #12]
 8007cca:	f9b4 100e 	ldrsh.w	r1, [r4, #14]
 8007cce:	f423 5380 	bic.w	r3, r3, #4096	; 0x1000
 8007cd2:	81a3      	strh	r3, [r4, #12]
 8007cd4:	4632      	mov	r2, r6
 8007cd6:	463b      	mov	r3, r7
 8007cd8:	4628      	mov	r0, r5
 8007cda:	e8bd 41f0 	ldmia.w	sp!, {r4, r5, r6, r7, r8, lr}
 8007cde:	f000 b817 	b.w	8007d10 <_write_r>

08007ce2 <__sseek>:
 8007ce2:	b510      	push	{r4, lr}
 8007ce4:	460c      	mov	r4, r1
 8007ce6:	f9b1 100e 	ldrsh.w	r1, [r1, #14]
 8007cea:	f000 f855 	bl	8007d98 <_lseek_r>
 8007cee:	1c43      	adds	r3, r0, #1
 8007cf0:	89a3      	ldrh	r3, [r4, #12]
 8007cf2:	bf15      	itete	ne
 8007cf4:	6560      	strne	r0, [r4, #84]	; 0x54
 8007cf6:	f423 5380 	biceq.w	r3, r3, #4096	; 0x1000
 8007cfa:	f443 5380 	orrne.w	r3, r3, #4096	; 0x1000
 8007cfe:	81a3      	strheq	r3, [r4, #12]
 8007d00:	bf18      	it	ne
 8007d02:	81a3      	strhne	r3, [r4, #12]
 8007d04:	bd10      	pop	{r4, pc}

08007d06 <__sclose>:
 8007d06:	f9b1 100e 	ldrsh.w	r1, [r1, #14]
 8007d0a:	f000 b813 	b.w	8007d34 <_close_r>
	...

08007d10 <_write_r>:
 8007d10:	b538      	push	{r3, r4, r5, lr}
 8007d12:	4d07      	ldr	r5, [pc, #28]	; (8007d30 <_write_r+0x20>)
 8007d14:	4604      	mov	r4, r0
 8007d16:	4608      	mov	r0, r1
 8007d18:	4611      	mov	r1, r2
 8007d1a:	2200      	movs	r2, #0
 8007d1c:	602a      	str	r2, [r5, #0]
 8007d1e:	461a      	mov	r2, r3
 8007d20:	f7f9 fbc7 	bl	80014b2 <_write>
 8007d24:	1c43      	adds	r3, r0, #1
 8007d26:	d102      	bne.n	8007d2e <_write_r+0x1e>
 8007d28:	682b      	ldr	r3, [r5, #0]
 8007d2a:	b103      	cbz	r3, 8007d2e <_write_r+0x1e>
 8007d2c:	6023      	str	r3, [r4, #0]
 8007d2e:	bd38      	pop	{r3, r4, r5, pc}
 8007d30:	20000a54 	.word	0x20000a54

08007d34 <_close_r>:
 8007d34:	b538      	push	{r3, r4, r5, lr}
 8007d36:	4d06      	ldr	r5, [pc, #24]	; (8007d50 <_close_r+0x1c>)
 8007d38:	2300      	movs	r3, #0
 8007d3a:	4604      	mov	r4, r0
 8007d3c:	4608      	mov	r0, r1
 8007d3e:	602b      	str	r3, [r5, #0]
 8007d40:	f7f9 fbc4 	bl	80014cc <_close>
 8007d44:	1c43      	adds	r3, r0, #1
 8007d46:	d102      	bne.n	8007d4e <_close_r+0x1a>
 8007d48:	682b      	ldr	r3, [r5, #0]
 8007d4a:	b103      	cbz	r3, 8007d4e <_close_r+0x1a>
 8007d4c:	6023      	str	r3, [r4, #0]
 8007d4e:	bd38      	pop	{r3, r4, r5, pc}
 8007d50:	20000a54 	.word	0x20000a54

08007d54 <_fstat_r>:
 8007d54:	b538      	push	{r3, r4, r5, lr}
 8007d56:	4d07      	ldr	r5, [pc, #28]	; (8007d74 <_fstat_r+0x20>)
 8007d58:	2300      	movs	r3, #0
 8007d5a:	4604      	mov	r4, r0
 8007d5c:	4608      	mov	r0, r1
 8007d5e:	4611      	mov	r1, r2
 8007d60:	602b      	str	r3, [r5, #0]
 8007d62:	f7f9 fbb6 	bl	80014d2 <_fstat>
 8007d66:	1c43      	adds	r3, r0, #1
 8007d68:	d102      	bne.n	8007d70 <_fstat_r+0x1c>
 8007d6a:	682b      	ldr	r3, [r5, #0]
 8007d6c:	b103      	cbz	r3, 8007d70 <_fstat_r+0x1c>
 8007d6e:	6023      	str	r3, [r4, #0]
 8007d70:	bd38      	pop	{r3, r4, r5, pc}
 8007d72:	bf00      	nop
 8007d74:	20000a54 	.word	0x20000a54

08007d78 <_isatty_r>:
 8007d78:	b538      	push	{r3, r4, r5, lr}
 8007d7a:	4d06      	ldr	r5, [pc, #24]	; (8007d94 <_isatty_r+0x1c>)
 8007d7c:	2300      	movs	r3, #0
 8007d7e:	4604      	mov	r4, r0
 8007d80:	4608      	mov	r0, r1
 8007d82:	602b      	str	r3, [r5, #0]
 8007d84:	f7f9 fbaa 	bl	80014dc <_isatty>
 8007d88:	1c43      	adds	r3, r0, #1
 8007d8a:	d102      	bne.n	8007d92 <_isatty_r+0x1a>
 8007d8c:	682b      	ldr	r3, [r5, #0]
 8007d8e:	b103      	cbz	r3, 8007d92 <_isatty_r+0x1a>
 8007d90:	6023      	str	r3, [r4, #0]
 8007d92:	bd38      	pop	{r3, r4, r5, pc}
 8007d94:	20000a54 	.word	0x20000a54

08007d98 <_lseek_r>:
 8007d98:	b538      	push	{r3, r4, r5, lr}
 8007d9a:	4d07      	ldr	r5, [pc, #28]	; (8007db8 <_lseek_r+0x20>)
 8007d9c:	4604      	mov	r4, r0
 8007d9e:	4608      	mov	r0, r1
 8007da0:	4611      	mov	r1, r2
 8007da2:	2200      	movs	r2, #0
 8007da4:	602a      	str	r2, [r5, #0]
 8007da6:	461a      	mov	r2, r3
 8007da8:	f7f9 fb9a 	bl	80014e0 <_lseek>
 8007dac:	1c43      	adds	r3, r0, #1
 8007dae:	d102      	bne.n	8007db6 <_lseek_r+0x1e>
 8007db0:	682b      	ldr	r3, [r5, #0]
 8007db2:	b103      	cbz	r3, 8007db6 <_lseek_r+0x1e>
 8007db4:	6023      	str	r3, [r4, #0]
 8007db6:	bd38      	pop	{r3, r4, r5, pc}
 8007db8:	20000a54 	.word	0x20000a54

08007dbc <_read_r>:
 8007dbc:	b538      	push	{r3, r4, r5, lr}
 8007dbe:	4d07      	ldr	r5, [pc, #28]	; (8007ddc <_read_r+0x20>)
 8007dc0:	4604      	mov	r4, r0
 8007dc2:	4608      	mov	r0, r1
 8007dc4:	4611      	mov	r1, r2
 8007dc6:	2200      	movs	r2, #0
 8007dc8:	602a      	str	r2, [r5, #0]
 8007dca:	461a      	mov	r2, r3
 8007dcc:	f7f9 fb64 	bl	8001498 <_read>
 8007dd0:	1c43      	adds	r3, r0, #1
 8007dd2:	d102      	bne.n	8007dda <_read_r+0x1e>
 8007dd4:	682b      	ldr	r3, [r5, #0]
 8007dd6:	b103      	cbz	r3, 8007dda <_read_r+0x1e>
 8007dd8:	6023      	str	r3, [r4, #0]
 8007dda:	bd38      	pop	{r3, r4, r5, pc}
 8007ddc:	20000a54 	.word	0x20000a54

08007de0 <expf>:
 8007de0:	b508      	push	{r3, lr}
 8007de2:	ed2d 8b02 	vpush	{d8}
 8007de6:	eef0 8a40 	vmov.f32	s17, s0
 8007dea:	f000 f837 	bl	8007e5c <__ieee754_expf>
 8007dee:	4b16      	ldr	r3, [pc, #88]	; (8007e48 <expf+0x68>)
 8007df0:	f993 3000 	ldrsb.w	r3, [r3]
 8007df4:	3301      	adds	r3, #1
 8007df6:	eeb0 8a40 	vmov.f32	s16, s0
 8007dfa:	d011      	beq.n	8007e20 <expf+0x40>
 8007dfc:	eeb0 0a68 	vmov.f32	s0, s17
 8007e00:	f000 f900 	bl	8008004 <finitef>
 8007e04:	b160      	cbz	r0, 8007e20 <expf+0x40>
 8007e06:	eddf 7a11 	vldr	s15, [pc, #68]	; 8007e4c <expf+0x6c>
 8007e0a:	eef4 8ae7 	vcmpe.f32	s17, s15
 8007e0e:	eef1 fa10 	vmrs	APSR_nzcv, fpscr
 8007e12:	dd0a      	ble.n	8007e2a <expf+0x4a>
 8007e14:	f7fd f916 	bl	8005044 <__errno>
 8007e18:	ed9f 8a0d 	vldr	s16, [pc, #52]	; 8007e50 <expf+0x70>
 8007e1c:	2322      	movs	r3, #34	; 0x22
 8007e1e:	6003      	str	r3, [r0, #0]
 8007e20:	eeb0 0a48 	vmov.f32	s0, s16
 8007e24:	ecbd 8b02 	vpop	{d8}
 8007e28:	bd08      	pop	{r3, pc}
 8007e2a:	eddf 7a0a 	vldr	s15, [pc, #40]	; 8007e54 <expf+0x74>
 8007e2e:	eef4 8ae7 	vcmpe.f32	s17, s15
 8007e32:	eef1 fa10 	vmrs	APSR_nzcv, fpscr
 8007e36:	d5f3      	bpl.n	8007e20 <expf+0x40>
 8007e38:	f7fd f904 	bl	8005044 <__errno>
 8007e3c:	2322      	movs	r3, #34	; 0x22
 8007e3e:	ed9f 8a06 	vldr	s16, [pc, #24]	; 8007e58 <expf+0x78>
 8007e42:	6003      	str	r3, [r0, #0]
 8007e44:	e7ec      	b.n	8007e20 <expf+0x40>
 8007e46:	bf00      	nop
 8007e48:	20000824 	.word	0x20000824
 8007e4c:	42b17180 	.word	0x42b17180
 8007e50:	7f800000 	.word	0x7f800000
 8007e54:	c2cff1b5 	.word	0xc2cff1b5
 8007e58:	00000000 	.word	0x00000000

08007e5c <__ieee754_expf>:
 8007e5c:	ee10 2a10 	vmov	r2, s0
 8007e60:	f022 4100 	bic.w	r1, r2, #2147483648	; 0x80000000
 8007e64:	f1b1 4fff 	cmp.w	r1, #2139095040	; 0x7f800000
 8007e68:	d902      	bls.n	8007e70 <__ieee754_expf+0x14>
 8007e6a:	ee30 0a00 	vadd.f32	s0, s0, s0
 8007e6e:	4770      	bx	lr
 8007e70:	ea4f 73d2 	mov.w	r3, r2, lsr #31
 8007e74:	d106      	bne.n	8007e84 <__ieee754_expf+0x28>
 8007e76:	eddf 7a51 	vldr	s15, [pc, #324]	; 8007fbc <__ieee754_expf+0x160>
 8007e7a:	2b00      	cmp	r3, #0
 8007e7c:	bf18      	it	ne
 8007e7e:	eeb0 0a67 	vmovne.f32	s0, s15
 8007e82:	4770      	bx	lr
 8007e84:	484e      	ldr	r0, [pc, #312]	; (8007fc0 <__ieee754_expf+0x164>)
 8007e86:	4282      	cmp	r2, r0
 8007e88:	dd04      	ble.n	8007e94 <__ieee754_expf+0x38>
 8007e8a:	ed9f 0a4e 	vldr	s0, [pc, #312]	; 8007fc4 <__ieee754_expf+0x168>
 8007e8e:	ee20 0a00 	vmul.f32	s0, s0, s0
 8007e92:	4770      	bx	lr
 8007e94:	2a00      	cmp	r2, #0
 8007e96:	da03      	bge.n	8007ea0 <__ieee754_expf+0x44>
 8007e98:	4a4b      	ldr	r2, [pc, #300]	; (8007fc8 <__ieee754_expf+0x16c>)
 8007e9a:	4291      	cmp	r1, r2
 8007e9c:	f200 808a 	bhi.w	8007fb4 <__ieee754_expf+0x158>
 8007ea0:	4a4a      	ldr	r2, [pc, #296]	; (8007fcc <__ieee754_expf+0x170>)
 8007ea2:	4291      	cmp	r1, r2
 8007ea4:	eeb7 6a00 	vmov.f32	s12, #112	; 0x3f800000  1.0
 8007ea8:	d954      	bls.n	8007f54 <__ieee754_expf+0xf8>
 8007eaa:	4a49      	ldr	r2, [pc, #292]	; (8007fd0 <__ieee754_expf+0x174>)
 8007eac:	4291      	cmp	r1, r2
 8007eae:	ea4f 0283 	mov.w	r2, r3, lsl #2
 8007eb2:	d836      	bhi.n	8007f22 <__ieee754_expf+0xc6>
 8007eb4:	4947      	ldr	r1, [pc, #284]	; (8007fd4 <__ieee754_expf+0x178>)
 8007eb6:	4411      	add	r1, r2
 8007eb8:	ed91 7a00 	vldr	s14, [r1]
 8007ebc:	4946      	ldr	r1, [pc, #280]	; (8007fd8 <__ieee754_expf+0x17c>)
 8007ebe:	440a      	add	r2, r1
 8007ec0:	edd2 7a00 	vldr	s15, [r2]
 8007ec4:	ee30 7a47 	vsub.f32	s14, s0, s14
 8007ec8:	f1c3 0201 	rsb	r2, r3, #1
 8007ecc:	1ad2      	subs	r2, r2, r3
 8007ece:	ee37 0a67 	vsub.f32	s0, s14, s15
 8007ed2:	ee60 6a00 	vmul.f32	s13, s0, s0
 8007ed6:	eddf 5a41 	vldr	s11, [pc, #260]	; 8007fdc <__ieee754_expf+0x180>
 8007eda:	ed9f 5a41 	vldr	s10, [pc, #260]	; 8007fe0 <__ieee754_expf+0x184>
 8007ede:	eea6 5aa5 	vfma.f32	s10, s13, s11
 8007ee2:	eddf 5a40 	vldr	s11, [pc, #256]	; 8007fe4 <__ieee754_expf+0x188>
 8007ee6:	eee5 5a26 	vfma.f32	s11, s10, s13
 8007eea:	ed9f 5a3f 	vldr	s10, [pc, #252]	; 8007fe8 <__ieee754_expf+0x18c>
 8007eee:	eea5 5aa6 	vfma.f32	s10, s11, s13
 8007ef2:	eddf 5a3e 	vldr	s11, [pc, #248]	; 8007fec <__ieee754_expf+0x190>
 8007ef6:	eee5 5a26 	vfma.f32	s11, s10, s13
 8007efa:	eeb0 5a40 	vmov.f32	s10, s0
 8007efe:	eea5 5ae6 	vfms.f32	s10, s11, s13
 8007f02:	eef0 5a00 	vmov.f32	s11, #0	; 0x40000000  2.0
 8007f06:	eef0 6a45 	vmov.f32	s13, s10
 8007f0a:	ee20 5a05 	vmul.f32	s10, s0, s10
 8007f0e:	bb92      	cbnz	r2, 8007f76 <__ieee754_expf+0x11a>
 8007f10:	ee76 6ae5 	vsub.f32	s13, s13, s11
 8007f14:	eec5 7a26 	vdiv.f32	s15, s10, s13
 8007f18:	ee37 0ac0 	vsub.f32	s0, s15, s0
 8007f1c:	ee36 0a40 	vsub.f32	s0, s12, s0
 8007f20:	4770      	bx	lr
 8007f22:	4b33      	ldr	r3, [pc, #204]	; (8007ff0 <__ieee754_expf+0x194>)
 8007f24:	ed9f 7a33 	vldr	s14, [pc, #204]	; 8007ff4 <__ieee754_expf+0x198>
 8007f28:	4413      	add	r3, r2
 8007f2a:	edd3 7a00 	vldr	s15, [r3]
 8007f2e:	eee0 7a07 	vfma.f32	s15, s0, s14
 8007f32:	ed9f 7a31 	vldr	s14, [pc, #196]	; 8007ff8 <__ieee754_expf+0x19c>
 8007f36:	eefd 7ae7 	vcvt.s32.f32	s15, s15
 8007f3a:	ee17 2a90 	vmov	r2, s15
 8007f3e:	eef8 7ae7 	vcvt.f32.s32	s15, s15
 8007f42:	eea7 0ac7 	vfms.f32	s0, s15, s14
 8007f46:	eeb0 7a40 	vmov.f32	s14, s0
 8007f4a:	ed9f 0a2c 	vldr	s0, [pc, #176]	; 8007ffc <__ieee754_expf+0x1a0>
 8007f4e:	ee67 7a80 	vmul.f32	s15, s15, s0
 8007f52:	e7bc      	b.n	8007ece <__ieee754_expf+0x72>
 8007f54:	f1b1 5f46 	cmp.w	r1, #830472192	; 0x31800000
 8007f58:	d20b      	bcs.n	8007f72 <__ieee754_expf+0x116>
 8007f5a:	eddf 6a1a 	vldr	s13, [pc, #104]	; 8007fc4 <__ieee754_expf+0x168>
 8007f5e:	ee70 6a26 	vadd.f32	s13, s0, s13
 8007f62:	eef4 6ac6 	vcmpe.f32	s13, s12
 8007f66:	eef1 fa10 	vmrs	APSR_nzcv, fpscr
 8007f6a:	dd02      	ble.n	8007f72 <__ieee754_expf+0x116>
 8007f6c:	ee30 0a06 	vadd.f32	s0, s0, s12
 8007f70:	4770      	bx	lr
 8007f72:	2200      	movs	r2, #0
 8007f74:	e7ad      	b.n	8007ed2 <__ieee754_expf+0x76>
 8007f76:	ee75 6ae6 	vsub.f32	s13, s11, s13
 8007f7a:	f112 0f7d 	cmn.w	r2, #125	; 0x7d
 8007f7e:	ee85 0a26 	vdiv.f32	s0, s10, s13
 8007f82:	bfb8      	it	lt
 8007f84:	3264      	addlt	r2, #100	; 0x64
 8007f86:	ee77 7ac0 	vsub.f32	s15, s15, s0
 8007f8a:	ee37 0ac7 	vsub.f32	s0, s15, s14
 8007f8e:	ee76 7a40 	vsub.f32	s15, s12, s0
 8007f92:	ee17 3a90 	vmov	r3, s15
 8007f96:	bfab      	itete	ge
 8007f98:	eb03 53c2 	addge.w	r3, r3, r2, lsl #23
 8007f9c:	eb03 53c2 	addlt.w	r3, r3, r2, lsl #23
 8007fa0:	ee00 3a10 	vmovge	s0, r3
 8007fa4:	eddf 7a16 	vldrlt	s15, [pc, #88]	; 8008000 <__ieee754_expf+0x1a4>
 8007fa8:	bfbc      	itt	lt
 8007faa:	ee00 3a10 	vmovlt	s0, r3
 8007fae:	ee20 0a27 	vmullt.f32	s0, s0, s15
 8007fb2:	4770      	bx	lr
 8007fb4:	ed9f 0a01 	vldr	s0, [pc, #4]	; 8007fbc <__ieee754_expf+0x160>
 8007fb8:	4770      	bx	lr
 8007fba:	bf00      	nop
 8007fbc:	00000000 	.word	0x00000000
 8007fc0:	42b17217 	.word	0x42b17217
 8007fc4:	7149f2ca 	.word	0x7149f2ca
 8007fc8:	42cff1b5 	.word	0x42cff1b5
 8007fcc:	3eb17218 	.word	0x3eb17218
 8007fd0:	3f851591 	.word	0x3f851591
 8007fd4:	0803a714 	.word	0x0803a714
 8007fd8:	0803a71c 	.word	0x0803a71c
 8007fdc:	3331bb4c 	.word	0x3331bb4c
 8007fe0:	b5ddea0e 	.word	0xb5ddea0e
 8007fe4:	388ab355 	.word	0x388ab355
 8007fe8:	bb360b61 	.word	0xbb360b61
 8007fec:	3e2aaaab 	.word	0x3e2aaaab
 8007ff0:	0803a70c 	.word	0x0803a70c
 8007ff4:	3fb8aa3b 	.word	0x3fb8aa3b
 8007ff8:	3f317180 	.word	0x3f317180
 8007ffc:	3717f7d1 	.word	0x3717f7d1
 8008000:	0d800000 	.word	0x0d800000

08008004 <finitef>:
 8008004:	b082      	sub	sp, #8
 8008006:	ed8d 0a01 	vstr	s0, [sp, #4]
 800800a:	9801      	ldr	r0, [sp, #4]
 800800c:	f020 4000 	bic.w	r0, r0, #2147483648	; 0x80000000
 8008010:	f1b0 4fff 	cmp.w	r0, #2139095040	; 0x7f800000
 8008014:	bfac      	ite	ge
 8008016:	2000      	movge	r0, #0
 8008018:	2001      	movlt	r0, #1
 800801a:	b002      	add	sp, #8
 800801c:	4770      	bx	lr
	...

08008020 <_init>:
 8008020:	b5f8      	push	{r3, r4, r5, r6, r7, lr}
 8008022:	bf00      	nop
 8008024:	bcf8      	pop	{r3, r4, r5, r6, r7}
 8008026:	bc08      	pop	{r3}
 8008028:	469e      	mov	lr, r3
 800802a:	4770      	bx	lr

0800802c <_fini>:
 800802c:	b5f8      	push	{r3, r4, r5, r6, r7, lr}
 800802e:	bf00      	nop
 8008030:	bcf8      	pop	{r3, r4, r5, r6, r7}
 8008032:	bc08      	pop	{r3}
 8008034:	469e      	mov	lr, r3
 8008036:	4770      	bx	lr
